ARM GAS  /tmp/ccMYOmG8.s 			page 1


   1              		.cpu cortex-m4
   2              		.eabi_attribute 27, 1
   3              		.eabi_attribute 28, 1
   4              		.eabi_attribute 20, 1
   5              		.eabi_attribute 21, 1
   6              		.eabi_attribute 23, 3
   7              		.eabi_attribute 24, 1
   8              		.eabi_attribute 25, 1
   9              		.eabi_attribute 26, 1
  10              		.eabi_attribute 30, 1
  11              		.eabi_attribute 34, 1
  12              		.eabi_attribute 18, 4
  13              		.file	"stm32g4xx_hal_flash.c"
  14              		.text
  15              	.Ltext0:
  16              		.cfi_sections	.debug_frame
  17              		.section	.rodata.FLASH_Program_DoubleWord.str1.4,"aMS",%progbits,1
  18              		.align	2
  19              	.LC0:
  20 0000 44726976 		.ascii	"Drivers/STM32G4xx_HAL_Driver/Src/stm32g4xx_hal_flas"
  20      6572732F 
  20      53544D33 
  20      32473478 
  20      785F4841 
  21 0033 682E6300 		.ascii	"h.c\000"
  22              		.section	.text.FLASH_Program_DoubleWord,"ax",%progbits
  23              		.align	1
  24              		.arch armv7e-m
  25              		.syntax unified
  26              		.thumb
  27              		.thumb_func
  28              		.fpu fpv4-sp-d16
  30              	FLASH_Program_DoubleWord:
  31              	.LVL0:
  32              	.LFB144:
  33              		.file 1 "Drivers/STM32G4xx_HAL_Driver/Src/stm32g4xx_hal_flash.c"
   1:Drivers/STM32G4xx_HAL_Driver/Src/stm32g4xx_hal_flash.c **** /**
   2:Drivers/STM32G4xx_HAL_Driver/Src/stm32g4xx_hal_flash.c ****   ******************************************************************************
   3:Drivers/STM32G4xx_HAL_Driver/Src/stm32g4xx_hal_flash.c ****   * @file    stm32g4xx_hal_flash.c
   4:Drivers/STM32G4xx_HAL_Driver/Src/stm32g4xx_hal_flash.c ****   * @author  MCD Application Team
   5:Drivers/STM32G4xx_HAL_Driver/Src/stm32g4xx_hal_flash.c ****   * @brief   FLASH HAL module driver.
   6:Drivers/STM32G4xx_HAL_Driver/Src/stm32g4xx_hal_flash.c ****   *          This file provides firmware functions to manage the following
   7:Drivers/STM32G4xx_HAL_Driver/Src/stm32g4xx_hal_flash.c ****   *          functionalities of the internal FLASH memory:
   8:Drivers/STM32G4xx_HAL_Driver/Src/stm32g4xx_hal_flash.c ****   *           + Program operations functions
   9:Drivers/STM32G4xx_HAL_Driver/Src/stm32g4xx_hal_flash.c ****   *           + Memory Control functions
  10:Drivers/STM32G4xx_HAL_Driver/Src/stm32g4xx_hal_flash.c ****   *           + Peripheral Errors functions
  11:Drivers/STM32G4xx_HAL_Driver/Src/stm32g4xx_hal_flash.c ****   *
  12:Drivers/STM32G4xx_HAL_Driver/Src/stm32g4xx_hal_flash.c ****   @verbatim
  13:Drivers/STM32G4xx_HAL_Driver/Src/stm32g4xx_hal_flash.c ****   ==============================================================================
  14:Drivers/STM32G4xx_HAL_Driver/Src/stm32g4xx_hal_flash.c ****                         ##### FLASH peripheral features #####
  15:Drivers/STM32G4xx_HAL_Driver/Src/stm32g4xx_hal_flash.c ****   ==============================================================================
  16:Drivers/STM32G4xx_HAL_Driver/Src/stm32g4xx_hal_flash.c **** 
  17:Drivers/STM32G4xx_HAL_Driver/Src/stm32g4xx_hal_flash.c ****   [..] The Flash memory interface manages CPU AHB I-Code and D-Code accesses
  18:Drivers/STM32G4xx_HAL_Driver/Src/stm32g4xx_hal_flash.c ****        to the Flash memory. It implements the erase and program Flash memory operations
  19:Drivers/STM32G4xx_HAL_Driver/Src/stm32g4xx_hal_flash.c ****        and the read and write protection mechanisms.
  20:Drivers/STM32G4xx_HAL_Driver/Src/stm32g4xx_hal_flash.c **** 
  21:Drivers/STM32G4xx_HAL_Driver/Src/stm32g4xx_hal_flash.c ****   [..] The Flash memory interface accelerates code execution with a system of instruction
ARM GAS  /tmp/ccMYOmG8.s 			page 2


  22:Drivers/STM32G4xx_HAL_Driver/Src/stm32g4xx_hal_flash.c ****        prefetch and cache lines.
  23:Drivers/STM32G4xx_HAL_Driver/Src/stm32g4xx_hal_flash.c **** 
  24:Drivers/STM32G4xx_HAL_Driver/Src/stm32g4xx_hal_flash.c ****   [..] The FLASH main features are:
  25:Drivers/STM32G4xx_HAL_Driver/Src/stm32g4xx_hal_flash.c ****       (+) Flash memory read operations
  26:Drivers/STM32G4xx_HAL_Driver/Src/stm32g4xx_hal_flash.c ****       (+) Flash memory program/erase operations
  27:Drivers/STM32G4xx_HAL_Driver/Src/stm32g4xx_hal_flash.c ****       (+) Read / write protections
  28:Drivers/STM32G4xx_HAL_Driver/Src/stm32g4xx_hal_flash.c ****       (+) Option bytes programming
  29:Drivers/STM32G4xx_HAL_Driver/Src/stm32g4xx_hal_flash.c ****       (+) Prefetch on I-Code
  30:Drivers/STM32G4xx_HAL_Driver/Src/stm32g4xx_hal_flash.c ****       (+) 32 cache lines of 4*64 or 2*128 bits on I-Code
  31:Drivers/STM32G4xx_HAL_Driver/Src/stm32g4xx_hal_flash.c ****       (+) 8 cache lines of 4*64 or 2*128 bits on D-Code
  32:Drivers/STM32G4xx_HAL_Driver/Src/stm32g4xx_hal_flash.c ****       (+) Error code correction (ECC) : Data in flash are 72-bits word
  33:Drivers/STM32G4xx_HAL_Driver/Src/stm32g4xx_hal_flash.c ****           (8 bits added per double word)
  34:Drivers/STM32G4xx_HAL_Driver/Src/stm32g4xx_hal_flash.c **** 
  35:Drivers/STM32G4xx_HAL_Driver/Src/stm32g4xx_hal_flash.c **** 
  36:Drivers/STM32G4xx_HAL_Driver/Src/stm32g4xx_hal_flash.c ****                         ##### How to use this driver #####
  37:Drivers/STM32G4xx_HAL_Driver/Src/stm32g4xx_hal_flash.c ****   ==============================================================================
  38:Drivers/STM32G4xx_HAL_Driver/Src/stm32g4xx_hal_flash.c ****     [..]
  39:Drivers/STM32G4xx_HAL_Driver/Src/stm32g4xx_hal_flash.c ****       This driver provides functions and macros to configure and program the FLASH
  40:Drivers/STM32G4xx_HAL_Driver/Src/stm32g4xx_hal_flash.c ****       memory of all STM32G4xx devices.
  41:Drivers/STM32G4xx_HAL_Driver/Src/stm32g4xx_hal_flash.c **** 
  42:Drivers/STM32G4xx_HAL_Driver/Src/stm32g4xx_hal_flash.c ****       (#) Flash Memory IO Programming functions:
  43:Drivers/STM32G4xx_HAL_Driver/Src/stm32g4xx_hal_flash.c ****            (++) Lock and Unlock the FLASH interface using HAL_FLASH_Unlock() and
  44:Drivers/STM32G4xx_HAL_Driver/Src/stm32g4xx_hal_flash.c ****                 HAL_FLASH_Lock() functions
  45:Drivers/STM32G4xx_HAL_Driver/Src/stm32g4xx_hal_flash.c ****            (++) Program functions: double word and fast program (full row programming)
  46:Drivers/STM32G4xx_HAL_Driver/Src/stm32g4xx_hal_flash.c ****            (++) There are two modes of programming :
  47:Drivers/STM32G4xx_HAL_Driver/Src/stm32g4xx_hal_flash.c ****             (+++) Polling mode using HAL_FLASH_Program() function
  48:Drivers/STM32G4xx_HAL_Driver/Src/stm32g4xx_hal_flash.c ****             (+++) Interrupt mode using HAL_FLASH_Program_IT() function
  49:Drivers/STM32G4xx_HAL_Driver/Src/stm32g4xx_hal_flash.c **** 
  50:Drivers/STM32G4xx_HAL_Driver/Src/stm32g4xx_hal_flash.c ****       (#) Interrupts and flags management functions:
  51:Drivers/STM32G4xx_HAL_Driver/Src/stm32g4xx_hal_flash.c ****            (++) Handle FLASH interrupts by calling HAL_FLASH_IRQHandler()
  52:Drivers/STM32G4xx_HAL_Driver/Src/stm32g4xx_hal_flash.c ****            (++) Callback functions are called when the flash operations are finished :
  53:Drivers/STM32G4xx_HAL_Driver/Src/stm32g4xx_hal_flash.c ****                 HAL_FLASH_EndOfOperationCallback() when everything is ok, otherwise
  54:Drivers/STM32G4xx_HAL_Driver/Src/stm32g4xx_hal_flash.c ****                 HAL_FLASH_OperationErrorCallback()
  55:Drivers/STM32G4xx_HAL_Driver/Src/stm32g4xx_hal_flash.c ****            (++) Get error flag status by calling HAL_GetError()
  56:Drivers/STM32G4xx_HAL_Driver/Src/stm32g4xx_hal_flash.c **** 
  57:Drivers/STM32G4xx_HAL_Driver/Src/stm32g4xx_hal_flash.c ****       (#) Option bytes management functions:
  58:Drivers/STM32G4xx_HAL_Driver/Src/stm32g4xx_hal_flash.c ****            (++) Lock and Unlock the option bytes using HAL_FLASH_OB_Unlock() and
  59:Drivers/STM32G4xx_HAL_Driver/Src/stm32g4xx_hal_flash.c ****                 HAL_FLASH_OB_Lock() functions
  60:Drivers/STM32G4xx_HAL_Driver/Src/stm32g4xx_hal_flash.c ****            (++) Launch the reload of the option bytes using HAL_FLASH_Launch() function.
  61:Drivers/STM32G4xx_HAL_Driver/Src/stm32g4xx_hal_flash.c ****                 In this case, a reset is generated
  62:Drivers/STM32G4xx_HAL_Driver/Src/stm32g4xx_hal_flash.c **** 
  63:Drivers/STM32G4xx_HAL_Driver/Src/stm32g4xx_hal_flash.c ****     [..]
  64:Drivers/STM32G4xx_HAL_Driver/Src/stm32g4xx_hal_flash.c ****       In addition to these functions, this driver includes a set of macros allowing
  65:Drivers/STM32G4xx_HAL_Driver/Src/stm32g4xx_hal_flash.c ****       to handle the following operations:
  66:Drivers/STM32G4xx_HAL_Driver/Src/stm32g4xx_hal_flash.c ****        (+) Set the latency
  67:Drivers/STM32G4xx_HAL_Driver/Src/stm32g4xx_hal_flash.c ****        (+) Enable/Disable the prefetch buffer
  68:Drivers/STM32G4xx_HAL_Driver/Src/stm32g4xx_hal_flash.c ****        (+) Enable/Disable the Instruction cache and the Data cache
  69:Drivers/STM32G4xx_HAL_Driver/Src/stm32g4xx_hal_flash.c ****        (+) Reset the Instruction cache and the Data cache
  70:Drivers/STM32G4xx_HAL_Driver/Src/stm32g4xx_hal_flash.c ****        (+) Enable/Disable the Flash power-down during low-power run and sleep modes
  71:Drivers/STM32G4xx_HAL_Driver/Src/stm32g4xx_hal_flash.c ****        (+) Enable/Disable the Flash interrupts
  72:Drivers/STM32G4xx_HAL_Driver/Src/stm32g4xx_hal_flash.c ****        (+) Monitor the Flash flags status
  73:Drivers/STM32G4xx_HAL_Driver/Src/stm32g4xx_hal_flash.c **** 
  74:Drivers/STM32G4xx_HAL_Driver/Src/stm32g4xx_hal_flash.c ****   @endverbatim
  75:Drivers/STM32G4xx_HAL_Driver/Src/stm32g4xx_hal_flash.c ****   ******************************************************************************
  76:Drivers/STM32G4xx_HAL_Driver/Src/stm32g4xx_hal_flash.c ****   * @attention
  77:Drivers/STM32G4xx_HAL_Driver/Src/stm32g4xx_hal_flash.c ****   *
  78:Drivers/STM32G4xx_HAL_Driver/Src/stm32g4xx_hal_flash.c ****   * <h2><center>&copy; COPYRIGHT(c) 2019 STMicroelectronics</center></h2>
ARM GAS  /tmp/ccMYOmG8.s 			page 3


  79:Drivers/STM32G4xx_HAL_Driver/Src/stm32g4xx_hal_flash.c ****   *
  80:Drivers/STM32G4xx_HAL_Driver/Src/stm32g4xx_hal_flash.c ****   * This software component is licensed by ST under BSD 3-Clause license,
  81:Drivers/STM32G4xx_HAL_Driver/Src/stm32g4xx_hal_flash.c ****   * the "License"; You may not use this file except in compliance with the
  82:Drivers/STM32G4xx_HAL_Driver/Src/stm32g4xx_hal_flash.c ****   * License. You may obtain a copy of the License at:
  83:Drivers/STM32G4xx_HAL_Driver/Src/stm32g4xx_hal_flash.c ****   *                       opensource.org/licenses/BSD-3-Clause
  84:Drivers/STM32G4xx_HAL_Driver/Src/stm32g4xx_hal_flash.c ****   *
  85:Drivers/STM32G4xx_HAL_Driver/Src/stm32g4xx_hal_flash.c ****   ******************************************************************************
  86:Drivers/STM32G4xx_HAL_Driver/Src/stm32g4xx_hal_flash.c ****   */
  87:Drivers/STM32G4xx_HAL_Driver/Src/stm32g4xx_hal_flash.c **** 
  88:Drivers/STM32G4xx_HAL_Driver/Src/stm32g4xx_hal_flash.c **** /* Includes ------------------------------------------------------------------*/
  89:Drivers/STM32G4xx_HAL_Driver/Src/stm32g4xx_hal_flash.c **** #include "stm32g4xx_hal.h"
  90:Drivers/STM32G4xx_HAL_Driver/Src/stm32g4xx_hal_flash.c **** 
  91:Drivers/STM32G4xx_HAL_Driver/Src/stm32g4xx_hal_flash.c **** /** @addtogroup STM32G4xx_HAL_Driver
  92:Drivers/STM32G4xx_HAL_Driver/Src/stm32g4xx_hal_flash.c ****   * @{
  93:Drivers/STM32G4xx_HAL_Driver/Src/stm32g4xx_hal_flash.c ****   */
  94:Drivers/STM32G4xx_HAL_Driver/Src/stm32g4xx_hal_flash.c **** 
  95:Drivers/STM32G4xx_HAL_Driver/Src/stm32g4xx_hal_flash.c **** /** @defgroup FLASH FLASH
  96:Drivers/STM32G4xx_HAL_Driver/Src/stm32g4xx_hal_flash.c ****   * @brief FLASH HAL module driver
  97:Drivers/STM32G4xx_HAL_Driver/Src/stm32g4xx_hal_flash.c ****   * @{
  98:Drivers/STM32G4xx_HAL_Driver/Src/stm32g4xx_hal_flash.c ****   */
  99:Drivers/STM32G4xx_HAL_Driver/Src/stm32g4xx_hal_flash.c **** 
 100:Drivers/STM32G4xx_HAL_Driver/Src/stm32g4xx_hal_flash.c **** #ifdef HAL_FLASH_MODULE_ENABLED
 101:Drivers/STM32G4xx_HAL_Driver/Src/stm32g4xx_hal_flash.c **** 
 102:Drivers/STM32G4xx_HAL_Driver/Src/stm32g4xx_hal_flash.c **** /* Private typedef -----------------------------------------------------------*/
 103:Drivers/STM32G4xx_HAL_Driver/Src/stm32g4xx_hal_flash.c **** /* Private defines -----------------------------------------------------------*/
 104:Drivers/STM32G4xx_HAL_Driver/Src/stm32g4xx_hal_flash.c **** /** @defgroup FLASH_Private_Constants FLASH Private Constants
 105:Drivers/STM32G4xx_HAL_Driver/Src/stm32g4xx_hal_flash.c ****   * @{
 106:Drivers/STM32G4xx_HAL_Driver/Src/stm32g4xx_hal_flash.c ****   */
 107:Drivers/STM32G4xx_HAL_Driver/Src/stm32g4xx_hal_flash.c **** #define FLASH_NB_DOUBLE_WORDS_IN_ROW  32
 108:Drivers/STM32G4xx_HAL_Driver/Src/stm32g4xx_hal_flash.c **** /**
 109:Drivers/STM32G4xx_HAL_Driver/Src/stm32g4xx_hal_flash.c ****   * @}
 110:Drivers/STM32G4xx_HAL_Driver/Src/stm32g4xx_hal_flash.c ****   */
 111:Drivers/STM32G4xx_HAL_Driver/Src/stm32g4xx_hal_flash.c **** 
 112:Drivers/STM32G4xx_HAL_Driver/Src/stm32g4xx_hal_flash.c **** /* Private macros ------------------------------------------------------------*/
 113:Drivers/STM32G4xx_HAL_Driver/Src/stm32g4xx_hal_flash.c **** /* Private variables ---------------------------------------------------------*/
 114:Drivers/STM32G4xx_HAL_Driver/Src/stm32g4xx_hal_flash.c **** /** @defgroup FLASH_Private_Variables FLASH Private Variables
 115:Drivers/STM32G4xx_HAL_Driver/Src/stm32g4xx_hal_flash.c ****   * @{
 116:Drivers/STM32G4xx_HAL_Driver/Src/stm32g4xx_hal_flash.c ****   */
 117:Drivers/STM32G4xx_HAL_Driver/Src/stm32g4xx_hal_flash.c **** 
 118:Drivers/STM32G4xx_HAL_Driver/Src/stm32g4xx_hal_flash.c **** /**
 119:Drivers/STM32G4xx_HAL_Driver/Src/stm32g4xx_hal_flash.c ****   * @brief  Variable used for Program/Erase sectors under interruption
 120:Drivers/STM32G4xx_HAL_Driver/Src/stm32g4xx_hal_flash.c ****   */
 121:Drivers/STM32G4xx_HAL_Driver/Src/stm32g4xx_hal_flash.c **** FLASH_ProcessTypeDef pFlash  = {.Lock = HAL_UNLOCKED,
 122:Drivers/STM32G4xx_HAL_Driver/Src/stm32g4xx_hal_flash.c ****                                 .ErrorCode = HAL_FLASH_ERROR_NONE,
 123:Drivers/STM32G4xx_HAL_Driver/Src/stm32g4xx_hal_flash.c ****                                 .ProcedureOnGoing = FLASH_PROC_NONE,
 124:Drivers/STM32G4xx_HAL_Driver/Src/stm32g4xx_hal_flash.c ****                                 .Address = 0U,
 125:Drivers/STM32G4xx_HAL_Driver/Src/stm32g4xx_hal_flash.c ****                                 .Bank = FLASH_BANK_1,
 126:Drivers/STM32G4xx_HAL_Driver/Src/stm32g4xx_hal_flash.c ****                                 .Page = 0U,
 127:Drivers/STM32G4xx_HAL_Driver/Src/stm32g4xx_hal_flash.c ****                                 .NbPagesToErase = 0U,
 128:Drivers/STM32G4xx_HAL_Driver/Src/stm32g4xx_hal_flash.c ****                                 .CacheToReactivate = FLASH_CACHE_DISABLED};
 129:Drivers/STM32G4xx_HAL_Driver/Src/stm32g4xx_hal_flash.c **** /**
 130:Drivers/STM32G4xx_HAL_Driver/Src/stm32g4xx_hal_flash.c ****   * @}
 131:Drivers/STM32G4xx_HAL_Driver/Src/stm32g4xx_hal_flash.c ****   */
 132:Drivers/STM32G4xx_HAL_Driver/Src/stm32g4xx_hal_flash.c **** 
 133:Drivers/STM32G4xx_HAL_Driver/Src/stm32g4xx_hal_flash.c **** /* Private function prototypes -----------------------------------------------*/
 134:Drivers/STM32G4xx_HAL_Driver/Src/stm32g4xx_hal_flash.c **** /** @defgroup FLASH_Private_Functions FLASH Private Functions
 135:Drivers/STM32G4xx_HAL_Driver/Src/stm32g4xx_hal_flash.c ****   * @{
ARM GAS  /tmp/ccMYOmG8.s 			page 4


 136:Drivers/STM32G4xx_HAL_Driver/Src/stm32g4xx_hal_flash.c ****   */
 137:Drivers/STM32G4xx_HAL_Driver/Src/stm32g4xx_hal_flash.c **** static void          FLASH_Program_DoubleWord(uint32_t Address, uint64_t Data);
 138:Drivers/STM32G4xx_HAL_Driver/Src/stm32g4xx_hal_flash.c **** static void          FLASH_Program_Fast(uint32_t Address, uint32_t DataAddress);
 139:Drivers/STM32G4xx_HAL_Driver/Src/stm32g4xx_hal_flash.c **** /**
 140:Drivers/STM32G4xx_HAL_Driver/Src/stm32g4xx_hal_flash.c ****   * @}
 141:Drivers/STM32G4xx_HAL_Driver/Src/stm32g4xx_hal_flash.c ****   */
 142:Drivers/STM32G4xx_HAL_Driver/Src/stm32g4xx_hal_flash.c **** 
 143:Drivers/STM32G4xx_HAL_Driver/Src/stm32g4xx_hal_flash.c **** /* Exported functions --------------------------------------------------------*/
 144:Drivers/STM32G4xx_HAL_Driver/Src/stm32g4xx_hal_flash.c **** /** @defgroup FLASH_Exported_Functions FLASH Exported Functions
 145:Drivers/STM32G4xx_HAL_Driver/Src/stm32g4xx_hal_flash.c ****   * @{
 146:Drivers/STM32G4xx_HAL_Driver/Src/stm32g4xx_hal_flash.c ****   */
 147:Drivers/STM32G4xx_HAL_Driver/Src/stm32g4xx_hal_flash.c **** 
 148:Drivers/STM32G4xx_HAL_Driver/Src/stm32g4xx_hal_flash.c **** /** @defgroup FLASH_Exported_Functions_Group1 Programming operation functions
 149:Drivers/STM32G4xx_HAL_Driver/Src/stm32g4xx_hal_flash.c ****   *  @brief   Programming operation functions
 150:Drivers/STM32G4xx_HAL_Driver/Src/stm32g4xx_hal_flash.c ****   *
 151:Drivers/STM32G4xx_HAL_Driver/Src/stm32g4xx_hal_flash.c **** @verbatim
 152:Drivers/STM32G4xx_HAL_Driver/Src/stm32g4xx_hal_flash.c ****  ===============================================================================
 153:Drivers/STM32G4xx_HAL_Driver/Src/stm32g4xx_hal_flash.c ****                   ##### Programming operation functions #####
 154:Drivers/STM32G4xx_HAL_Driver/Src/stm32g4xx_hal_flash.c ****  ===============================================================================
 155:Drivers/STM32G4xx_HAL_Driver/Src/stm32g4xx_hal_flash.c ****     [..]
 156:Drivers/STM32G4xx_HAL_Driver/Src/stm32g4xx_hal_flash.c ****     This subsection provides a set of functions allowing to manage the FLASH
 157:Drivers/STM32G4xx_HAL_Driver/Src/stm32g4xx_hal_flash.c ****     program operations.
 158:Drivers/STM32G4xx_HAL_Driver/Src/stm32g4xx_hal_flash.c **** 
 159:Drivers/STM32G4xx_HAL_Driver/Src/stm32g4xx_hal_flash.c **** @endverbatim
 160:Drivers/STM32G4xx_HAL_Driver/Src/stm32g4xx_hal_flash.c ****   * @{
 161:Drivers/STM32G4xx_HAL_Driver/Src/stm32g4xx_hal_flash.c ****   */
 162:Drivers/STM32G4xx_HAL_Driver/Src/stm32g4xx_hal_flash.c **** 
 163:Drivers/STM32G4xx_HAL_Driver/Src/stm32g4xx_hal_flash.c **** /**
 164:Drivers/STM32G4xx_HAL_Driver/Src/stm32g4xx_hal_flash.c ****   * @brief  Program double word or fast program of a row at a specified address.
 165:Drivers/STM32G4xx_HAL_Driver/Src/stm32g4xx_hal_flash.c ****   * @param  TypeProgram Indicate the way to program at a specified address.
 166:Drivers/STM32G4xx_HAL_Driver/Src/stm32g4xx_hal_flash.c ****   *         This parameter can be a value of @ref FLASH_Type_Program.
 167:Drivers/STM32G4xx_HAL_Driver/Src/stm32g4xx_hal_flash.c ****   * @param  Address specifies the address to be programmed.
 168:Drivers/STM32G4xx_HAL_Driver/Src/stm32g4xx_hal_flash.c ****   * @param  Data specifies the data to be programmed.
 169:Drivers/STM32G4xx_HAL_Driver/Src/stm32g4xx_hal_flash.c ****   *         This parameter is the data for the double word program and the address where
 170:Drivers/STM32G4xx_HAL_Driver/Src/stm32g4xx_hal_flash.c ****   *         are stored the data for the row fast program.
 171:Drivers/STM32G4xx_HAL_Driver/Src/stm32g4xx_hal_flash.c ****   *
 172:Drivers/STM32G4xx_HAL_Driver/Src/stm32g4xx_hal_flash.c ****   * @retval HAL_Status
 173:Drivers/STM32G4xx_HAL_Driver/Src/stm32g4xx_hal_flash.c ****   */
 174:Drivers/STM32G4xx_HAL_Driver/Src/stm32g4xx_hal_flash.c **** HAL_StatusTypeDef HAL_FLASH_Program(uint32_t TypeProgram, uint32_t Address, uint64_t Data)
 175:Drivers/STM32G4xx_HAL_Driver/Src/stm32g4xx_hal_flash.c **** {
 176:Drivers/STM32G4xx_HAL_Driver/Src/stm32g4xx_hal_flash.c ****   HAL_StatusTypeDef status;
 177:Drivers/STM32G4xx_HAL_Driver/Src/stm32g4xx_hal_flash.c ****   uint32_t prog_bit = 0;
 178:Drivers/STM32G4xx_HAL_Driver/Src/stm32g4xx_hal_flash.c **** 
 179:Drivers/STM32G4xx_HAL_Driver/Src/stm32g4xx_hal_flash.c ****   /* Check the parameters */
 180:Drivers/STM32G4xx_HAL_Driver/Src/stm32g4xx_hal_flash.c ****   assert_param(IS_FLASH_TYPEPROGRAM(TypeProgram));
 181:Drivers/STM32G4xx_HAL_Driver/Src/stm32g4xx_hal_flash.c **** 
 182:Drivers/STM32G4xx_HAL_Driver/Src/stm32g4xx_hal_flash.c ****   /* Process Locked */
 183:Drivers/STM32G4xx_HAL_Driver/Src/stm32g4xx_hal_flash.c ****   __HAL_LOCK(&pFlash);
 184:Drivers/STM32G4xx_HAL_Driver/Src/stm32g4xx_hal_flash.c **** 
 185:Drivers/STM32G4xx_HAL_Driver/Src/stm32g4xx_hal_flash.c ****   /* Wait for last operation to be completed */
 186:Drivers/STM32G4xx_HAL_Driver/Src/stm32g4xx_hal_flash.c ****   status = FLASH_WaitForLastOperation((uint32_t)FLASH_TIMEOUT_VALUE);
 187:Drivers/STM32G4xx_HAL_Driver/Src/stm32g4xx_hal_flash.c **** 
 188:Drivers/STM32G4xx_HAL_Driver/Src/stm32g4xx_hal_flash.c ****   if (status == HAL_OK)
 189:Drivers/STM32G4xx_HAL_Driver/Src/stm32g4xx_hal_flash.c ****   {
 190:Drivers/STM32G4xx_HAL_Driver/Src/stm32g4xx_hal_flash.c ****     pFlash.ErrorCode = HAL_FLASH_ERROR_NONE;
 191:Drivers/STM32G4xx_HAL_Driver/Src/stm32g4xx_hal_flash.c **** 
 192:Drivers/STM32G4xx_HAL_Driver/Src/stm32g4xx_hal_flash.c ****     if (TypeProgram == FLASH_TYPEPROGRAM_DOUBLEWORD)
ARM GAS  /tmp/ccMYOmG8.s 			page 5


 193:Drivers/STM32G4xx_HAL_Driver/Src/stm32g4xx_hal_flash.c ****     {
 194:Drivers/STM32G4xx_HAL_Driver/Src/stm32g4xx_hal_flash.c ****       /* Program double-word (64-bit) at a specified address */
 195:Drivers/STM32G4xx_HAL_Driver/Src/stm32g4xx_hal_flash.c ****       FLASH_Program_DoubleWord(Address, Data);
 196:Drivers/STM32G4xx_HAL_Driver/Src/stm32g4xx_hal_flash.c ****       prog_bit = FLASH_CR_PG;
 197:Drivers/STM32G4xx_HAL_Driver/Src/stm32g4xx_hal_flash.c ****     }
 198:Drivers/STM32G4xx_HAL_Driver/Src/stm32g4xx_hal_flash.c ****     else if ((TypeProgram == FLASH_TYPEPROGRAM_FAST) || (TypeProgram == FLASH_TYPEPROGRAM_FAST_AND_
 199:Drivers/STM32G4xx_HAL_Driver/Src/stm32g4xx_hal_flash.c ****     {
 200:Drivers/STM32G4xx_HAL_Driver/Src/stm32g4xx_hal_flash.c ****       /* Fast program a 32 row double-word (64-bit) at a specified address */
 201:Drivers/STM32G4xx_HAL_Driver/Src/stm32g4xx_hal_flash.c ****       FLASH_Program_Fast(Address, (uint32_t)Data);
 202:Drivers/STM32G4xx_HAL_Driver/Src/stm32g4xx_hal_flash.c **** 
 203:Drivers/STM32G4xx_HAL_Driver/Src/stm32g4xx_hal_flash.c ****       /* If it is the last row, the bit will be cleared at the end of the operation */
 204:Drivers/STM32G4xx_HAL_Driver/Src/stm32g4xx_hal_flash.c ****       if (TypeProgram == FLASH_TYPEPROGRAM_FAST_AND_LAST)
 205:Drivers/STM32G4xx_HAL_Driver/Src/stm32g4xx_hal_flash.c ****       {
 206:Drivers/STM32G4xx_HAL_Driver/Src/stm32g4xx_hal_flash.c ****         prog_bit = FLASH_CR_FSTPG;
 207:Drivers/STM32G4xx_HAL_Driver/Src/stm32g4xx_hal_flash.c ****       }
 208:Drivers/STM32G4xx_HAL_Driver/Src/stm32g4xx_hal_flash.c ****     }
 209:Drivers/STM32G4xx_HAL_Driver/Src/stm32g4xx_hal_flash.c ****     else
 210:Drivers/STM32G4xx_HAL_Driver/Src/stm32g4xx_hal_flash.c ****     {
 211:Drivers/STM32G4xx_HAL_Driver/Src/stm32g4xx_hal_flash.c ****       /* Nothing to do */
 212:Drivers/STM32G4xx_HAL_Driver/Src/stm32g4xx_hal_flash.c ****     }
 213:Drivers/STM32G4xx_HAL_Driver/Src/stm32g4xx_hal_flash.c **** 
 214:Drivers/STM32G4xx_HAL_Driver/Src/stm32g4xx_hal_flash.c ****     /* Wait for last operation to be completed */
 215:Drivers/STM32G4xx_HAL_Driver/Src/stm32g4xx_hal_flash.c ****     status = FLASH_WaitForLastOperation((uint32_t)FLASH_TIMEOUT_VALUE);
 216:Drivers/STM32G4xx_HAL_Driver/Src/stm32g4xx_hal_flash.c **** 
 217:Drivers/STM32G4xx_HAL_Driver/Src/stm32g4xx_hal_flash.c ****     /* If the program operation is completed, disable the PG or FSTPG Bit */
 218:Drivers/STM32G4xx_HAL_Driver/Src/stm32g4xx_hal_flash.c ****     if (prog_bit != 0U)
 219:Drivers/STM32G4xx_HAL_Driver/Src/stm32g4xx_hal_flash.c ****     {
 220:Drivers/STM32G4xx_HAL_Driver/Src/stm32g4xx_hal_flash.c ****       CLEAR_BIT(FLASH->CR, prog_bit);
 221:Drivers/STM32G4xx_HAL_Driver/Src/stm32g4xx_hal_flash.c ****     }
 222:Drivers/STM32G4xx_HAL_Driver/Src/stm32g4xx_hal_flash.c ****   }
 223:Drivers/STM32G4xx_HAL_Driver/Src/stm32g4xx_hal_flash.c **** 
 224:Drivers/STM32G4xx_HAL_Driver/Src/stm32g4xx_hal_flash.c ****   /* Process Unlocked */
 225:Drivers/STM32G4xx_HAL_Driver/Src/stm32g4xx_hal_flash.c ****   __HAL_UNLOCK(&pFlash);
 226:Drivers/STM32G4xx_HAL_Driver/Src/stm32g4xx_hal_flash.c **** 
 227:Drivers/STM32G4xx_HAL_Driver/Src/stm32g4xx_hal_flash.c ****   /* return status */
 228:Drivers/STM32G4xx_HAL_Driver/Src/stm32g4xx_hal_flash.c ****   return status;
 229:Drivers/STM32G4xx_HAL_Driver/Src/stm32g4xx_hal_flash.c **** }
 230:Drivers/STM32G4xx_HAL_Driver/Src/stm32g4xx_hal_flash.c **** 
 231:Drivers/STM32G4xx_HAL_Driver/Src/stm32g4xx_hal_flash.c **** /**
 232:Drivers/STM32G4xx_HAL_Driver/Src/stm32g4xx_hal_flash.c ****   * @brief  Program double word or fast program of a row at a specified address with interrupt enab
 233:Drivers/STM32G4xx_HAL_Driver/Src/stm32g4xx_hal_flash.c ****   * @param  TypeProgram Indicate the way to program at a specified address.
 234:Drivers/STM32G4xx_HAL_Driver/Src/stm32g4xx_hal_flash.c ****   *         This parameter can be a value of @ref FLASH_Type_Program.
 235:Drivers/STM32G4xx_HAL_Driver/Src/stm32g4xx_hal_flash.c ****   * @param  Address specifies the address to be programmed.
 236:Drivers/STM32G4xx_HAL_Driver/Src/stm32g4xx_hal_flash.c ****   * @param  Data specifies the data to be programmed.
 237:Drivers/STM32G4xx_HAL_Driver/Src/stm32g4xx_hal_flash.c ****   *         This parameter is the data for the double word program and the address where
 238:Drivers/STM32G4xx_HAL_Driver/Src/stm32g4xx_hal_flash.c ****   *         are stored the data for the row fast program.
 239:Drivers/STM32G4xx_HAL_Driver/Src/stm32g4xx_hal_flash.c ****   *
 240:Drivers/STM32G4xx_HAL_Driver/Src/stm32g4xx_hal_flash.c ****   * @retval HAL_Status
 241:Drivers/STM32G4xx_HAL_Driver/Src/stm32g4xx_hal_flash.c ****   */
 242:Drivers/STM32G4xx_HAL_Driver/Src/stm32g4xx_hal_flash.c **** HAL_StatusTypeDef HAL_FLASH_Program_IT(uint32_t TypeProgram, uint32_t Address, uint64_t Data)
 243:Drivers/STM32G4xx_HAL_Driver/Src/stm32g4xx_hal_flash.c **** {
 244:Drivers/STM32G4xx_HAL_Driver/Src/stm32g4xx_hal_flash.c ****   HAL_StatusTypeDef status;
 245:Drivers/STM32G4xx_HAL_Driver/Src/stm32g4xx_hal_flash.c **** 
 246:Drivers/STM32G4xx_HAL_Driver/Src/stm32g4xx_hal_flash.c ****   /* Check the parameters */
 247:Drivers/STM32G4xx_HAL_Driver/Src/stm32g4xx_hal_flash.c ****   assert_param(IS_FLASH_TYPEPROGRAM(TypeProgram));
 248:Drivers/STM32G4xx_HAL_Driver/Src/stm32g4xx_hal_flash.c **** 
 249:Drivers/STM32G4xx_HAL_Driver/Src/stm32g4xx_hal_flash.c ****   /* Process Locked */
ARM GAS  /tmp/ccMYOmG8.s 			page 6


 250:Drivers/STM32G4xx_HAL_Driver/Src/stm32g4xx_hal_flash.c ****   __HAL_LOCK(&pFlash);
 251:Drivers/STM32G4xx_HAL_Driver/Src/stm32g4xx_hal_flash.c **** 
 252:Drivers/STM32G4xx_HAL_Driver/Src/stm32g4xx_hal_flash.c ****   /* Reset error code */
 253:Drivers/STM32G4xx_HAL_Driver/Src/stm32g4xx_hal_flash.c ****   pFlash.ErrorCode = HAL_FLASH_ERROR_NONE;
 254:Drivers/STM32G4xx_HAL_Driver/Src/stm32g4xx_hal_flash.c **** 
 255:Drivers/STM32G4xx_HAL_Driver/Src/stm32g4xx_hal_flash.c ****   /* Wait for last operation to be completed */
 256:Drivers/STM32G4xx_HAL_Driver/Src/stm32g4xx_hal_flash.c ****   status = FLASH_WaitForLastOperation(FLASH_TIMEOUT_VALUE);
 257:Drivers/STM32G4xx_HAL_Driver/Src/stm32g4xx_hal_flash.c **** 
 258:Drivers/STM32G4xx_HAL_Driver/Src/stm32g4xx_hal_flash.c ****   if (status != HAL_OK)
 259:Drivers/STM32G4xx_HAL_Driver/Src/stm32g4xx_hal_flash.c ****   {
 260:Drivers/STM32G4xx_HAL_Driver/Src/stm32g4xx_hal_flash.c ****     /* Process Unlocked */
 261:Drivers/STM32G4xx_HAL_Driver/Src/stm32g4xx_hal_flash.c ****     __HAL_UNLOCK(&pFlash);
 262:Drivers/STM32G4xx_HAL_Driver/Src/stm32g4xx_hal_flash.c ****   }
 263:Drivers/STM32G4xx_HAL_Driver/Src/stm32g4xx_hal_flash.c ****   else
 264:Drivers/STM32G4xx_HAL_Driver/Src/stm32g4xx_hal_flash.c ****   {
 265:Drivers/STM32G4xx_HAL_Driver/Src/stm32g4xx_hal_flash.c ****     /* Set internal variables used by the IRQ handler */
 266:Drivers/STM32G4xx_HAL_Driver/Src/stm32g4xx_hal_flash.c ****     if (TypeProgram == FLASH_TYPEPROGRAM_FAST_AND_LAST)
 267:Drivers/STM32G4xx_HAL_Driver/Src/stm32g4xx_hal_flash.c ****     {
 268:Drivers/STM32G4xx_HAL_Driver/Src/stm32g4xx_hal_flash.c ****       pFlash.ProcedureOnGoing = FLASH_PROC_PROGRAM_LAST;
 269:Drivers/STM32G4xx_HAL_Driver/Src/stm32g4xx_hal_flash.c ****     }
 270:Drivers/STM32G4xx_HAL_Driver/Src/stm32g4xx_hal_flash.c ****     else
 271:Drivers/STM32G4xx_HAL_Driver/Src/stm32g4xx_hal_flash.c ****     {
 272:Drivers/STM32G4xx_HAL_Driver/Src/stm32g4xx_hal_flash.c ****       pFlash.ProcedureOnGoing = FLASH_PROC_PROGRAM;
 273:Drivers/STM32G4xx_HAL_Driver/Src/stm32g4xx_hal_flash.c ****     }
 274:Drivers/STM32G4xx_HAL_Driver/Src/stm32g4xx_hal_flash.c ****     pFlash.Address = Address;
 275:Drivers/STM32G4xx_HAL_Driver/Src/stm32g4xx_hal_flash.c **** 
 276:Drivers/STM32G4xx_HAL_Driver/Src/stm32g4xx_hal_flash.c ****     /* Enable End of Operation and Error interrupts */
 277:Drivers/STM32G4xx_HAL_Driver/Src/stm32g4xx_hal_flash.c ****     __HAL_FLASH_ENABLE_IT(FLASH_IT_EOP | FLASH_IT_OPERR);
 278:Drivers/STM32G4xx_HAL_Driver/Src/stm32g4xx_hal_flash.c **** 
 279:Drivers/STM32G4xx_HAL_Driver/Src/stm32g4xx_hal_flash.c ****     if (TypeProgram == FLASH_TYPEPROGRAM_DOUBLEWORD)
 280:Drivers/STM32G4xx_HAL_Driver/Src/stm32g4xx_hal_flash.c ****     {
 281:Drivers/STM32G4xx_HAL_Driver/Src/stm32g4xx_hal_flash.c ****       /* Program double-word (64-bit) at a specified address */
 282:Drivers/STM32G4xx_HAL_Driver/Src/stm32g4xx_hal_flash.c ****       FLASH_Program_DoubleWord(Address, Data);
 283:Drivers/STM32G4xx_HAL_Driver/Src/stm32g4xx_hal_flash.c ****     }
 284:Drivers/STM32G4xx_HAL_Driver/Src/stm32g4xx_hal_flash.c ****     else if ((TypeProgram == FLASH_TYPEPROGRAM_FAST) || (TypeProgram == FLASH_TYPEPROGRAM_FAST_AND_
 285:Drivers/STM32G4xx_HAL_Driver/Src/stm32g4xx_hal_flash.c ****     {
 286:Drivers/STM32G4xx_HAL_Driver/Src/stm32g4xx_hal_flash.c ****       /* Fast program a 32 row double-word (64-bit) at a specified address */
 287:Drivers/STM32G4xx_HAL_Driver/Src/stm32g4xx_hal_flash.c ****       FLASH_Program_Fast(Address, (uint32_t)Data);
 288:Drivers/STM32G4xx_HAL_Driver/Src/stm32g4xx_hal_flash.c ****     }
 289:Drivers/STM32G4xx_HAL_Driver/Src/stm32g4xx_hal_flash.c ****     else
 290:Drivers/STM32G4xx_HAL_Driver/Src/stm32g4xx_hal_flash.c ****     {
 291:Drivers/STM32G4xx_HAL_Driver/Src/stm32g4xx_hal_flash.c ****       /* Nothing to do */
 292:Drivers/STM32G4xx_HAL_Driver/Src/stm32g4xx_hal_flash.c ****     }
 293:Drivers/STM32G4xx_HAL_Driver/Src/stm32g4xx_hal_flash.c ****   }
 294:Drivers/STM32G4xx_HAL_Driver/Src/stm32g4xx_hal_flash.c **** 
 295:Drivers/STM32G4xx_HAL_Driver/Src/stm32g4xx_hal_flash.c ****   return status;
 296:Drivers/STM32G4xx_HAL_Driver/Src/stm32g4xx_hal_flash.c **** }
 297:Drivers/STM32G4xx_HAL_Driver/Src/stm32g4xx_hal_flash.c **** 
 298:Drivers/STM32G4xx_HAL_Driver/Src/stm32g4xx_hal_flash.c **** /**
 299:Drivers/STM32G4xx_HAL_Driver/Src/stm32g4xx_hal_flash.c ****   * @brief  Handle FLASH interrupt request.
 300:Drivers/STM32G4xx_HAL_Driver/Src/stm32g4xx_hal_flash.c ****   * @retval None
 301:Drivers/STM32G4xx_HAL_Driver/Src/stm32g4xx_hal_flash.c ****   */
 302:Drivers/STM32G4xx_HAL_Driver/Src/stm32g4xx_hal_flash.c **** void HAL_FLASH_IRQHandler(void)
 303:Drivers/STM32G4xx_HAL_Driver/Src/stm32g4xx_hal_flash.c **** {
 304:Drivers/STM32G4xx_HAL_Driver/Src/stm32g4xx_hal_flash.c ****   uint32_t tmp_page;
 305:Drivers/STM32G4xx_HAL_Driver/Src/stm32g4xx_hal_flash.c ****   uint32_t error;
 306:Drivers/STM32G4xx_HAL_Driver/Src/stm32g4xx_hal_flash.c ****   FLASH_ProcedureTypeDef procedure;
ARM GAS  /tmp/ccMYOmG8.s 			page 7


 307:Drivers/STM32G4xx_HAL_Driver/Src/stm32g4xx_hal_flash.c **** 
 308:Drivers/STM32G4xx_HAL_Driver/Src/stm32g4xx_hal_flash.c ****   /* If the operation is completed, disable the PG, PNB, MER1, MER2 and PER Bit */
 309:Drivers/STM32G4xx_HAL_Driver/Src/stm32g4xx_hal_flash.c ****   CLEAR_BIT(FLASH->CR, (FLASH_CR_PG | FLASH_CR_MER1 | FLASH_CR_PER | FLASH_CR_PNB));
 310:Drivers/STM32G4xx_HAL_Driver/Src/stm32g4xx_hal_flash.c **** #if defined (FLASH_OPTR_DBANK)
 311:Drivers/STM32G4xx_HAL_Driver/Src/stm32g4xx_hal_flash.c ****   CLEAR_BIT(FLASH->CR, FLASH_CR_MER2);
 312:Drivers/STM32G4xx_HAL_Driver/Src/stm32g4xx_hal_flash.c **** #endif
 313:Drivers/STM32G4xx_HAL_Driver/Src/stm32g4xx_hal_flash.c **** 
 314:Drivers/STM32G4xx_HAL_Driver/Src/stm32g4xx_hal_flash.c ****   /* Disable the FSTPG Bit only if it is the last row programmed */
 315:Drivers/STM32G4xx_HAL_Driver/Src/stm32g4xx_hal_flash.c ****   if (pFlash.ProcedureOnGoing == FLASH_PROC_PROGRAM_LAST)
 316:Drivers/STM32G4xx_HAL_Driver/Src/stm32g4xx_hal_flash.c ****   {
 317:Drivers/STM32G4xx_HAL_Driver/Src/stm32g4xx_hal_flash.c ****     CLEAR_BIT(FLASH->CR, FLASH_CR_FSTPG);
 318:Drivers/STM32G4xx_HAL_Driver/Src/stm32g4xx_hal_flash.c ****   }
 319:Drivers/STM32G4xx_HAL_Driver/Src/stm32g4xx_hal_flash.c **** 
 320:Drivers/STM32G4xx_HAL_Driver/Src/stm32g4xx_hal_flash.c ****   /* Check FLASH operation error flags */
 321:Drivers/STM32G4xx_HAL_Driver/Src/stm32g4xx_hal_flash.c ****   error = (FLASH->SR & FLASH_FLAG_SR_ERRORS);
 322:Drivers/STM32G4xx_HAL_Driver/Src/stm32g4xx_hal_flash.c **** 
 323:Drivers/STM32G4xx_HAL_Driver/Src/stm32g4xx_hal_flash.c ****   if (error != 0U)
 324:Drivers/STM32G4xx_HAL_Driver/Src/stm32g4xx_hal_flash.c ****   {
 325:Drivers/STM32G4xx_HAL_Driver/Src/stm32g4xx_hal_flash.c ****     /* Save the error code */
 326:Drivers/STM32G4xx_HAL_Driver/Src/stm32g4xx_hal_flash.c ****     pFlash.ErrorCode |= error;
 327:Drivers/STM32G4xx_HAL_Driver/Src/stm32g4xx_hal_flash.c **** 
 328:Drivers/STM32G4xx_HAL_Driver/Src/stm32g4xx_hal_flash.c ****     /* Clear error programming flags */
 329:Drivers/STM32G4xx_HAL_Driver/Src/stm32g4xx_hal_flash.c ****     __HAL_FLASH_CLEAR_FLAG(error);
 330:Drivers/STM32G4xx_HAL_Driver/Src/stm32g4xx_hal_flash.c **** 
 331:Drivers/STM32G4xx_HAL_Driver/Src/stm32g4xx_hal_flash.c ****     /* Flush the caches to be sure of the data consistency */
 332:Drivers/STM32G4xx_HAL_Driver/Src/stm32g4xx_hal_flash.c ****     FLASH_FlushCaches() ;
 333:Drivers/STM32G4xx_HAL_Driver/Src/stm32g4xx_hal_flash.c **** 
 334:Drivers/STM32G4xx_HAL_Driver/Src/stm32g4xx_hal_flash.c ****     /* FLASH error interrupt user callback */
 335:Drivers/STM32G4xx_HAL_Driver/Src/stm32g4xx_hal_flash.c ****     procedure = pFlash.ProcedureOnGoing;
 336:Drivers/STM32G4xx_HAL_Driver/Src/stm32g4xx_hal_flash.c ****     if (procedure == FLASH_PROC_PAGE_ERASE)
 337:Drivers/STM32G4xx_HAL_Driver/Src/stm32g4xx_hal_flash.c ****     {
 338:Drivers/STM32G4xx_HAL_Driver/Src/stm32g4xx_hal_flash.c ****       HAL_FLASH_OperationErrorCallback(pFlash.Page);
 339:Drivers/STM32G4xx_HAL_Driver/Src/stm32g4xx_hal_flash.c ****     }
 340:Drivers/STM32G4xx_HAL_Driver/Src/stm32g4xx_hal_flash.c ****     else if (procedure == FLASH_PROC_MASS_ERASE)
 341:Drivers/STM32G4xx_HAL_Driver/Src/stm32g4xx_hal_flash.c ****     {
 342:Drivers/STM32G4xx_HAL_Driver/Src/stm32g4xx_hal_flash.c ****       HAL_FLASH_OperationErrorCallback(pFlash.Bank);
 343:Drivers/STM32G4xx_HAL_Driver/Src/stm32g4xx_hal_flash.c ****     }
 344:Drivers/STM32G4xx_HAL_Driver/Src/stm32g4xx_hal_flash.c ****     else if ((procedure == FLASH_PROC_PROGRAM) ||
 345:Drivers/STM32G4xx_HAL_Driver/Src/stm32g4xx_hal_flash.c ****              (procedure == FLASH_PROC_PROGRAM_LAST))
 346:Drivers/STM32G4xx_HAL_Driver/Src/stm32g4xx_hal_flash.c ****     {
 347:Drivers/STM32G4xx_HAL_Driver/Src/stm32g4xx_hal_flash.c ****       HAL_FLASH_OperationErrorCallback(pFlash.Address);
 348:Drivers/STM32G4xx_HAL_Driver/Src/stm32g4xx_hal_flash.c ****     }
 349:Drivers/STM32G4xx_HAL_Driver/Src/stm32g4xx_hal_flash.c ****     else
 350:Drivers/STM32G4xx_HAL_Driver/Src/stm32g4xx_hal_flash.c ****     {
 351:Drivers/STM32G4xx_HAL_Driver/Src/stm32g4xx_hal_flash.c ****       /* Nothing to do */
 352:Drivers/STM32G4xx_HAL_Driver/Src/stm32g4xx_hal_flash.c ****     }
 353:Drivers/STM32G4xx_HAL_Driver/Src/stm32g4xx_hal_flash.c **** 
 354:Drivers/STM32G4xx_HAL_Driver/Src/stm32g4xx_hal_flash.c ****     /*Stop the procedure ongoing*/
 355:Drivers/STM32G4xx_HAL_Driver/Src/stm32g4xx_hal_flash.c ****     pFlash.ProcedureOnGoing = FLASH_PROC_NONE;
 356:Drivers/STM32G4xx_HAL_Driver/Src/stm32g4xx_hal_flash.c ****   }
 357:Drivers/STM32G4xx_HAL_Driver/Src/stm32g4xx_hal_flash.c **** 
 358:Drivers/STM32G4xx_HAL_Driver/Src/stm32g4xx_hal_flash.c ****   /* Check FLASH End of Operation flag  */
 359:Drivers/STM32G4xx_HAL_Driver/Src/stm32g4xx_hal_flash.c ****   if (__HAL_FLASH_GET_FLAG(FLASH_FLAG_EOP))
 360:Drivers/STM32G4xx_HAL_Driver/Src/stm32g4xx_hal_flash.c ****   {
 361:Drivers/STM32G4xx_HAL_Driver/Src/stm32g4xx_hal_flash.c ****     /* Clear FLASH End of Operation pending bit */
 362:Drivers/STM32G4xx_HAL_Driver/Src/stm32g4xx_hal_flash.c ****     __HAL_FLASH_CLEAR_FLAG(FLASH_FLAG_EOP);
 363:Drivers/STM32G4xx_HAL_Driver/Src/stm32g4xx_hal_flash.c **** 
ARM GAS  /tmp/ccMYOmG8.s 			page 8


 364:Drivers/STM32G4xx_HAL_Driver/Src/stm32g4xx_hal_flash.c ****     if (pFlash.ProcedureOnGoing == FLASH_PROC_PAGE_ERASE)
 365:Drivers/STM32G4xx_HAL_Driver/Src/stm32g4xx_hal_flash.c ****     {
 366:Drivers/STM32G4xx_HAL_Driver/Src/stm32g4xx_hal_flash.c ****       /* Nb of pages to erased can be decreased */
 367:Drivers/STM32G4xx_HAL_Driver/Src/stm32g4xx_hal_flash.c ****       pFlash.NbPagesToErase--;
 368:Drivers/STM32G4xx_HAL_Driver/Src/stm32g4xx_hal_flash.c **** 
 369:Drivers/STM32G4xx_HAL_Driver/Src/stm32g4xx_hal_flash.c ****       /* Check if there are still pages to erase*/
 370:Drivers/STM32G4xx_HAL_Driver/Src/stm32g4xx_hal_flash.c ****       if (pFlash.NbPagesToErase != 0U)
 371:Drivers/STM32G4xx_HAL_Driver/Src/stm32g4xx_hal_flash.c ****       {
 372:Drivers/STM32G4xx_HAL_Driver/Src/stm32g4xx_hal_flash.c ****         /* Indicate user which page has been erased*/
 373:Drivers/STM32G4xx_HAL_Driver/Src/stm32g4xx_hal_flash.c ****         HAL_FLASH_EndOfOperationCallback(pFlash.Page);
 374:Drivers/STM32G4xx_HAL_Driver/Src/stm32g4xx_hal_flash.c **** 
 375:Drivers/STM32G4xx_HAL_Driver/Src/stm32g4xx_hal_flash.c ****         /* Increment page number */
 376:Drivers/STM32G4xx_HAL_Driver/Src/stm32g4xx_hal_flash.c ****         pFlash.Page++;
 377:Drivers/STM32G4xx_HAL_Driver/Src/stm32g4xx_hal_flash.c ****         tmp_page = pFlash.Page;
 378:Drivers/STM32G4xx_HAL_Driver/Src/stm32g4xx_hal_flash.c ****         FLASH_PageErase(tmp_page, pFlash.Bank);
 379:Drivers/STM32G4xx_HAL_Driver/Src/stm32g4xx_hal_flash.c ****       }
 380:Drivers/STM32G4xx_HAL_Driver/Src/stm32g4xx_hal_flash.c ****       else
 381:Drivers/STM32G4xx_HAL_Driver/Src/stm32g4xx_hal_flash.c ****       {
 382:Drivers/STM32G4xx_HAL_Driver/Src/stm32g4xx_hal_flash.c ****         /* No more pages to Erase */
 383:Drivers/STM32G4xx_HAL_Driver/Src/stm32g4xx_hal_flash.c ****         /* Reset Address and stop Erase pages procedure */
 384:Drivers/STM32G4xx_HAL_Driver/Src/stm32g4xx_hal_flash.c ****         pFlash.Page = 0xFFFFFFFFU;
 385:Drivers/STM32G4xx_HAL_Driver/Src/stm32g4xx_hal_flash.c ****         pFlash.ProcedureOnGoing = FLASH_PROC_NONE;
 386:Drivers/STM32G4xx_HAL_Driver/Src/stm32g4xx_hal_flash.c **** 
 387:Drivers/STM32G4xx_HAL_Driver/Src/stm32g4xx_hal_flash.c ****         /* Flush the caches to be sure of the data consistency */
 388:Drivers/STM32G4xx_HAL_Driver/Src/stm32g4xx_hal_flash.c ****         FLASH_FlushCaches() ;
 389:Drivers/STM32G4xx_HAL_Driver/Src/stm32g4xx_hal_flash.c **** 
 390:Drivers/STM32G4xx_HAL_Driver/Src/stm32g4xx_hal_flash.c ****         /* FLASH EOP interrupt user callback */
 391:Drivers/STM32G4xx_HAL_Driver/Src/stm32g4xx_hal_flash.c ****         HAL_FLASH_EndOfOperationCallback(pFlash.Page);
 392:Drivers/STM32G4xx_HAL_Driver/Src/stm32g4xx_hal_flash.c ****       }
 393:Drivers/STM32G4xx_HAL_Driver/Src/stm32g4xx_hal_flash.c ****     }
 394:Drivers/STM32G4xx_HAL_Driver/Src/stm32g4xx_hal_flash.c ****     else
 395:Drivers/STM32G4xx_HAL_Driver/Src/stm32g4xx_hal_flash.c ****     {
 396:Drivers/STM32G4xx_HAL_Driver/Src/stm32g4xx_hal_flash.c ****       /* Flush the caches to be sure of the data consistency */
 397:Drivers/STM32G4xx_HAL_Driver/Src/stm32g4xx_hal_flash.c ****       FLASH_FlushCaches() ;
 398:Drivers/STM32G4xx_HAL_Driver/Src/stm32g4xx_hal_flash.c **** 
 399:Drivers/STM32G4xx_HAL_Driver/Src/stm32g4xx_hal_flash.c ****       procedure = pFlash.ProcedureOnGoing;
 400:Drivers/STM32G4xx_HAL_Driver/Src/stm32g4xx_hal_flash.c ****       if (procedure == FLASH_PROC_MASS_ERASE)
 401:Drivers/STM32G4xx_HAL_Driver/Src/stm32g4xx_hal_flash.c ****       {
 402:Drivers/STM32G4xx_HAL_Driver/Src/stm32g4xx_hal_flash.c ****         /* MassErase ended. Return the selected bank */
 403:Drivers/STM32G4xx_HAL_Driver/Src/stm32g4xx_hal_flash.c ****         /* FLASH EOP interrupt user callback */
 404:Drivers/STM32G4xx_HAL_Driver/Src/stm32g4xx_hal_flash.c ****         HAL_FLASH_EndOfOperationCallback(pFlash.Bank);
 405:Drivers/STM32G4xx_HAL_Driver/Src/stm32g4xx_hal_flash.c ****       }
 406:Drivers/STM32G4xx_HAL_Driver/Src/stm32g4xx_hal_flash.c ****       else if ((procedure == FLASH_PROC_PROGRAM) ||
 407:Drivers/STM32G4xx_HAL_Driver/Src/stm32g4xx_hal_flash.c ****                (procedure == FLASH_PROC_PROGRAM_LAST))
 408:Drivers/STM32G4xx_HAL_Driver/Src/stm32g4xx_hal_flash.c ****       {
 409:Drivers/STM32G4xx_HAL_Driver/Src/stm32g4xx_hal_flash.c ****         /* Program ended. Return the selected address */
 410:Drivers/STM32G4xx_HAL_Driver/Src/stm32g4xx_hal_flash.c ****         /* FLASH EOP interrupt user callback */
 411:Drivers/STM32G4xx_HAL_Driver/Src/stm32g4xx_hal_flash.c ****         HAL_FLASH_EndOfOperationCallback(pFlash.Address);
 412:Drivers/STM32G4xx_HAL_Driver/Src/stm32g4xx_hal_flash.c ****       }
 413:Drivers/STM32G4xx_HAL_Driver/Src/stm32g4xx_hal_flash.c ****       else
 414:Drivers/STM32G4xx_HAL_Driver/Src/stm32g4xx_hal_flash.c ****       {
 415:Drivers/STM32G4xx_HAL_Driver/Src/stm32g4xx_hal_flash.c ****         /* Nothing to do */
 416:Drivers/STM32G4xx_HAL_Driver/Src/stm32g4xx_hal_flash.c ****       }
 417:Drivers/STM32G4xx_HAL_Driver/Src/stm32g4xx_hal_flash.c **** 
 418:Drivers/STM32G4xx_HAL_Driver/Src/stm32g4xx_hal_flash.c ****       /*Clear the procedure ongoing*/
 419:Drivers/STM32G4xx_HAL_Driver/Src/stm32g4xx_hal_flash.c ****       pFlash.ProcedureOnGoing = FLASH_PROC_NONE;
 420:Drivers/STM32G4xx_HAL_Driver/Src/stm32g4xx_hal_flash.c ****     }
ARM GAS  /tmp/ccMYOmG8.s 			page 9


 421:Drivers/STM32G4xx_HAL_Driver/Src/stm32g4xx_hal_flash.c ****   }
 422:Drivers/STM32G4xx_HAL_Driver/Src/stm32g4xx_hal_flash.c **** 
 423:Drivers/STM32G4xx_HAL_Driver/Src/stm32g4xx_hal_flash.c ****   if (pFlash.ProcedureOnGoing == FLASH_PROC_NONE)
 424:Drivers/STM32G4xx_HAL_Driver/Src/stm32g4xx_hal_flash.c ****   {
 425:Drivers/STM32G4xx_HAL_Driver/Src/stm32g4xx_hal_flash.c ****     /* Disable End of Operation and Error interrupts */
 426:Drivers/STM32G4xx_HAL_Driver/Src/stm32g4xx_hal_flash.c ****     __HAL_FLASH_DISABLE_IT(FLASH_IT_EOP | FLASH_IT_OPERR);
 427:Drivers/STM32G4xx_HAL_Driver/Src/stm32g4xx_hal_flash.c **** 
 428:Drivers/STM32G4xx_HAL_Driver/Src/stm32g4xx_hal_flash.c ****     /* Process Unlocked */
 429:Drivers/STM32G4xx_HAL_Driver/Src/stm32g4xx_hal_flash.c ****     __HAL_UNLOCK(&pFlash);
 430:Drivers/STM32G4xx_HAL_Driver/Src/stm32g4xx_hal_flash.c ****   }
 431:Drivers/STM32G4xx_HAL_Driver/Src/stm32g4xx_hal_flash.c **** }
 432:Drivers/STM32G4xx_HAL_Driver/Src/stm32g4xx_hal_flash.c **** 
 433:Drivers/STM32G4xx_HAL_Driver/Src/stm32g4xx_hal_flash.c **** /**
 434:Drivers/STM32G4xx_HAL_Driver/Src/stm32g4xx_hal_flash.c ****   * @brief  FLASH end of operation interrupt callback.
 435:Drivers/STM32G4xx_HAL_Driver/Src/stm32g4xx_hal_flash.c ****   * @param  ReturnValue The value saved in this parameter depends on the ongoing procedure:
 436:Drivers/STM32G4xx_HAL_Driver/Src/stm32g4xx_hal_flash.c ****   *           @arg Mass Erase: Bank number which has been requested to erase
 437:Drivers/STM32G4xx_HAL_Driver/Src/stm32g4xx_hal_flash.c ****   *           @arg Page Erase: Page which has been erased
 438:Drivers/STM32G4xx_HAL_Driver/Src/stm32g4xx_hal_flash.c ****   *                            (if 0xFFFFFFFF, it means that all the selected pages have been erase
 439:Drivers/STM32G4xx_HAL_Driver/Src/stm32g4xx_hal_flash.c ****   *           @arg Program: Address which was selected for data program
 440:Drivers/STM32G4xx_HAL_Driver/Src/stm32g4xx_hal_flash.c ****   * @retval None
 441:Drivers/STM32G4xx_HAL_Driver/Src/stm32g4xx_hal_flash.c ****   */
 442:Drivers/STM32G4xx_HAL_Driver/Src/stm32g4xx_hal_flash.c **** __weak void HAL_FLASH_EndOfOperationCallback(uint32_t ReturnValue)
 443:Drivers/STM32G4xx_HAL_Driver/Src/stm32g4xx_hal_flash.c **** {
 444:Drivers/STM32G4xx_HAL_Driver/Src/stm32g4xx_hal_flash.c ****   /* Prevent unused argument(s) compilation warning */
 445:Drivers/STM32G4xx_HAL_Driver/Src/stm32g4xx_hal_flash.c ****   UNUSED(ReturnValue);
 446:Drivers/STM32G4xx_HAL_Driver/Src/stm32g4xx_hal_flash.c **** 
 447:Drivers/STM32G4xx_HAL_Driver/Src/stm32g4xx_hal_flash.c ****   /* NOTE : This function should not be modified, when the callback is needed,
 448:Drivers/STM32G4xx_HAL_Driver/Src/stm32g4xx_hal_flash.c ****             the HAL_FLASH_EndOfOperationCallback could be implemented in the user file
 449:Drivers/STM32G4xx_HAL_Driver/Src/stm32g4xx_hal_flash.c ****    */
 450:Drivers/STM32G4xx_HAL_Driver/Src/stm32g4xx_hal_flash.c **** }
 451:Drivers/STM32G4xx_HAL_Driver/Src/stm32g4xx_hal_flash.c **** 
 452:Drivers/STM32G4xx_HAL_Driver/Src/stm32g4xx_hal_flash.c **** /**
 453:Drivers/STM32G4xx_HAL_Driver/Src/stm32g4xx_hal_flash.c ****   * @brief  FLASH operation error interrupt callback.
 454:Drivers/STM32G4xx_HAL_Driver/Src/stm32g4xx_hal_flash.c ****   * @param  ReturnValue The value saved in this parameter depends on the ongoing procedure:
 455:Drivers/STM32G4xx_HAL_Driver/Src/stm32g4xx_hal_flash.c ****   *           @arg Mass Erase: Bank number which has been requested to erase
 456:Drivers/STM32G4xx_HAL_Driver/Src/stm32g4xx_hal_flash.c ****   *           @arg Page Erase: Page number which returned an error
 457:Drivers/STM32G4xx_HAL_Driver/Src/stm32g4xx_hal_flash.c ****   *           @arg Program: Address which was selected for data program
 458:Drivers/STM32G4xx_HAL_Driver/Src/stm32g4xx_hal_flash.c ****   * @retval None
 459:Drivers/STM32G4xx_HAL_Driver/Src/stm32g4xx_hal_flash.c ****   */
 460:Drivers/STM32G4xx_HAL_Driver/Src/stm32g4xx_hal_flash.c **** __weak void HAL_FLASH_OperationErrorCallback(uint32_t ReturnValue)
 461:Drivers/STM32G4xx_HAL_Driver/Src/stm32g4xx_hal_flash.c **** {
 462:Drivers/STM32G4xx_HAL_Driver/Src/stm32g4xx_hal_flash.c ****   /* Prevent unused argument(s) compilation warning */
 463:Drivers/STM32G4xx_HAL_Driver/Src/stm32g4xx_hal_flash.c ****   UNUSED(ReturnValue);
 464:Drivers/STM32G4xx_HAL_Driver/Src/stm32g4xx_hal_flash.c **** 
 465:Drivers/STM32G4xx_HAL_Driver/Src/stm32g4xx_hal_flash.c ****   /* NOTE : This function should not be modified, when the callback is needed,
 466:Drivers/STM32G4xx_HAL_Driver/Src/stm32g4xx_hal_flash.c ****             the HAL_FLASH_OperationErrorCallback could be implemented in the user file
 467:Drivers/STM32G4xx_HAL_Driver/Src/stm32g4xx_hal_flash.c ****    */
 468:Drivers/STM32G4xx_HAL_Driver/Src/stm32g4xx_hal_flash.c **** }
 469:Drivers/STM32G4xx_HAL_Driver/Src/stm32g4xx_hal_flash.c **** 
 470:Drivers/STM32G4xx_HAL_Driver/Src/stm32g4xx_hal_flash.c **** /**
 471:Drivers/STM32G4xx_HAL_Driver/Src/stm32g4xx_hal_flash.c ****   * @}
 472:Drivers/STM32G4xx_HAL_Driver/Src/stm32g4xx_hal_flash.c ****   */
 473:Drivers/STM32G4xx_HAL_Driver/Src/stm32g4xx_hal_flash.c **** 
 474:Drivers/STM32G4xx_HAL_Driver/Src/stm32g4xx_hal_flash.c **** /** @defgroup FLASH_Exported_Functions_Group2 Peripheral Control functions
 475:Drivers/STM32G4xx_HAL_Driver/Src/stm32g4xx_hal_flash.c ****   * @brief   Management functions
 476:Drivers/STM32G4xx_HAL_Driver/Src/stm32g4xx_hal_flash.c ****   *
 477:Drivers/STM32G4xx_HAL_Driver/Src/stm32g4xx_hal_flash.c **** @verbatim
ARM GAS  /tmp/ccMYOmG8.s 			page 10


 478:Drivers/STM32G4xx_HAL_Driver/Src/stm32g4xx_hal_flash.c ****  ===============================================================================
 479:Drivers/STM32G4xx_HAL_Driver/Src/stm32g4xx_hal_flash.c ****                       ##### Peripheral Control functions #####
 480:Drivers/STM32G4xx_HAL_Driver/Src/stm32g4xx_hal_flash.c ****  ===============================================================================
 481:Drivers/STM32G4xx_HAL_Driver/Src/stm32g4xx_hal_flash.c ****     [..]
 482:Drivers/STM32G4xx_HAL_Driver/Src/stm32g4xx_hal_flash.c ****     This subsection provides a set of functions allowing to control the FLASH
 483:Drivers/STM32G4xx_HAL_Driver/Src/stm32g4xx_hal_flash.c ****     memory operations.
 484:Drivers/STM32G4xx_HAL_Driver/Src/stm32g4xx_hal_flash.c **** 
 485:Drivers/STM32G4xx_HAL_Driver/Src/stm32g4xx_hal_flash.c **** @endverbatim
 486:Drivers/STM32G4xx_HAL_Driver/Src/stm32g4xx_hal_flash.c ****   * @{
 487:Drivers/STM32G4xx_HAL_Driver/Src/stm32g4xx_hal_flash.c ****   */
 488:Drivers/STM32G4xx_HAL_Driver/Src/stm32g4xx_hal_flash.c **** 
 489:Drivers/STM32G4xx_HAL_Driver/Src/stm32g4xx_hal_flash.c **** /**
 490:Drivers/STM32G4xx_HAL_Driver/Src/stm32g4xx_hal_flash.c ****   * @brief  Unlock the FLASH control register access.
 491:Drivers/STM32G4xx_HAL_Driver/Src/stm32g4xx_hal_flash.c ****   * @retval HAL_Status
 492:Drivers/STM32G4xx_HAL_Driver/Src/stm32g4xx_hal_flash.c ****   */
 493:Drivers/STM32G4xx_HAL_Driver/Src/stm32g4xx_hal_flash.c **** HAL_StatusTypeDef HAL_FLASH_Unlock(void)
 494:Drivers/STM32G4xx_HAL_Driver/Src/stm32g4xx_hal_flash.c **** {
 495:Drivers/STM32G4xx_HAL_Driver/Src/stm32g4xx_hal_flash.c ****   HAL_StatusTypeDef status = HAL_OK;
 496:Drivers/STM32G4xx_HAL_Driver/Src/stm32g4xx_hal_flash.c **** 
 497:Drivers/STM32G4xx_HAL_Driver/Src/stm32g4xx_hal_flash.c ****   if (READ_BIT(FLASH->CR, FLASH_CR_LOCK) != 0U)
 498:Drivers/STM32G4xx_HAL_Driver/Src/stm32g4xx_hal_flash.c ****   {
 499:Drivers/STM32G4xx_HAL_Driver/Src/stm32g4xx_hal_flash.c ****     /* Authorize the FLASH Registers access */
 500:Drivers/STM32G4xx_HAL_Driver/Src/stm32g4xx_hal_flash.c ****     WRITE_REG(FLASH->KEYR, FLASH_KEY1);
 501:Drivers/STM32G4xx_HAL_Driver/Src/stm32g4xx_hal_flash.c ****     WRITE_REG(FLASH->KEYR, FLASH_KEY2);
 502:Drivers/STM32G4xx_HAL_Driver/Src/stm32g4xx_hal_flash.c **** 
 503:Drivers/STM32G4xx_HAL_Driver/Src/stm32g4xx_hal_flash.c ****     /* verify Flash is unlocked */
 504:Drivers/STM32G4xx_HAL_Driver/Src/stm32g4xx_hal_flash.c ****     if (READ_BIT(FLASH->CR, FLASH_CR_LOCK) != 0U)
 505:Drivers/STM32G4xx_HAL_Driver/Src/stm32g4xx_hal_flash.c ****     {
 506:Drivers/STM32G4xx_HAL_Driver/Src/stm32g4xx_hal_flash.c ****       status = HAL_ERROR;
 507:Drivers/STM32G4xx_HAL_Driver/Src/stm32g4xx_hal_flash.c ****     }
 508:Drivers/STM32G4xx_HAL_Driver/Src/stm32g4xx_hal_flash.c ****   }
 509:Drivers/STM32G4xx_HAL_Driver/Src/stm32g4xx_hal_flash.c **** 
 510:Drivers/STM32G4xx_HAL_Driver/Src/stm32g4xx_hal_flash.c ****   return status;
 511:Drivers/STM32G4xx_HAL_Driver/Src/stm32g4xx_hal_flash.c **** }
 512:Drivers/STM32G4xx_HAL_Driver/Src/stm32g4xx_hal_flash.c **** 
 513:Drivers/STM32G4xx_HAL_Driver/Src/stm32g4xx_hal_flash.c **** /**
 514:Drivers/STM32G4xx_HAL_Driver/Src/stm32g4xx_hal_flash.c ****   * @brief  Lock the FLASH control register access.
 515:Drivers/STM32G4xx_HAL_Driver/Src/stm32g4xx_hal_flash.c ****   * @retval HAL_Status
 516:Drivers/STM32G4xx_HAL_Driver/Src/stm32g4xx_hal_flash.c ****   */
 517:Drivers/STM32G4xx_HAL_Driver/Src/stm32g4xx_hal_flash.c **** HAL_StatusTypeDef HAL_FLASH_Lock(void)
 518:Drivers/STM32G4xx_HAL_Driver/Src/stm32g4xx_hal_flash.c **** {
 519:Drivers/STM32G4xx_HAL_Driver/Src/stm32g4xx_hal_flash.c ****   HAL_StatusTypeDef status = HAL_ERROR;
 520:Drivers/STM32G4xx_HAL_Driver/Src/stm32g4xx_hal_flash.c **** 
 521:Drivers/STM32G4xx_HAL_Driver/Src/stm32g4xx_hal_flash.c ****   /* Set the LOCK Bit to lock the FLASH Registers access */
 522:Drivers/STM32G4xx_HAL_Driver/Src/stm32g4xx_hal_flash.c ****   SET_BIT(FLASH->CR, FLASH_CR_LOCK);
 523:Drivers/STM32G4xx_HAL_Driver/Src/stm32g4xx_hal_flash.c **** 
 524:Drivers/STM32G4xx_HAL_Driver/Src/stm32g4xx_hal_flash.c ****   /* verify Flash is locked */
 525:Drivers/STM32G4xx_HAL_Driver/Src/stm32g4xx_hal_flash.c ****   if (READ_BIT(FLASH->CR, FLASH_CR_LOCK) != 0U)
 526:Drivers/STM32G4xx_HAL_Driver/Src/stm32g4xx_hal_flash.c ****   {
 527:Drivers/STM32G4xx_HAL_Driver/Src/stm32g4xx_hal_flash.c ****     status = HAL_OK;
 528:Drivers/STM32G4xx_HAL_Driver/Src/stm32g4xx_hal_flash.c ****   }
 529:Drivers/STM32G4xx_HAL_Driver/Src/stm32g4xx_hal_flash.c **** 
 530:Drivers/STM32G4xx_HAL_Driver/Src/stm32g4xx_hal_flash.c ****   return status;
 531:Drivers/STM32G4xx_HAL_Driver/Src/stm32g4xx_hal_flash.c **** }
 532:Drivers/STM32G4xx_HAL_Driver/Src/stm32g4xx_hal_flash.c **** 
 533:Drivers/STM32G4xx_HAL_Driver/Src/stm32g4xx_hal_flash.c **** /**
 534:Drivers/STM32G4xx_HAL_Driver/Src/stm32g4xx_hal_flash.c ****   * @brief  Unlock the FLASH Option Bytes Registers access.
ARM GAS  /tmp/ccMYOmG8.s 			page 11


 535:Drivers/STM32G4xx_HAL_Driver/Src/stm32g4xx_hal_flash.c ****   * @retval HAL_Status
 536:Drivers/STM32G4xx_HAL_Driver/Src/stm32g4xx_hal_flash.c ****   */
 537:Drivers/STM32G4xx_HAL_Driver/Src/stm32g4xx_hal_flash.c **** HAL_StatusTypeDef HAL_FLASH_OB_Unlock(void)
 538:Drivers/STM32G4xx_HAL_Driver/Src/stm32g4xx_hal_flash.c **** {
 539:Drivers/STM32G4xx_HAL_Driver/Src/stm32g4xx_hal_flash.c ****   HAL_StatusTypeDef status = HAL_OK;
 540:Drivers/STM32G4xx_HAL_Driver/Src/stm32g4xx_hal_flash.c **** 
 541:Drivers/STM32G4xx_HAL_Driver/Src/stm32g4xx_hal_flash.c ****   if (READ_BIT(FLASH->CR, FLASH_CR_OPTLOCK) != 0U)
 542:Drivers/STM32G4xx_HAL_Driver/Src/stm32g4xx_hal_flash.c ****   {
 543:Drivers/STM32G4xx_HAL_Driver/Src/stm32g4xx_hal_flash.c ****     /* Authorizes the Option Byte register programming */
 544:Drivers/STM32G4xx_HAL_Driver/Src/stm32g4xx_hal_flash.c ****     WRITE_REG(FLASH->OPTKEYR, FLASH_OPTKEY1);
 545:Drivers/STM32G4xx_HAL_Driver/Src/stm32g4xx_hal_flash.c ****     WRITE_REG(FLASH->OPTKEYR, FLASH_OPTKEY2);
 546:Drivers/STM32G4xx_HAL_Driver/Src/stm32g4xx_hal_flash.c **** 
 547:Drivers/STM32G4xx_HAL_Driver/Src/stm32g4xx_hal_flash.c ****     /* verify option bytes are unlocked */
 548:Drivers/STM32G4xx_HAL_Driver/Src/stm32g4xx_hal_flash.c ****     if (READ_BIT(FLASH->CR, FLASH_CR_OPTLOCK) != 0U)
 549:Drivers/STM32G4xx_HAL_Driver/Src/stm32g4xx_hal_flash.c ****     {
 550:Drivers/STM32G4xx_HAL_Driver/Src/stm32g4xx_hal_flash.c ****       status = HAL_ERROR;
 551:Drivers/STM32G4xx_HAL_Driver/Src/stm32g4xx_hal_flash.c ****     }
 552:Drivers/STM32G4xx_HAL_Driver/Src/stm32g4xx_hal_flash.c ****   }
 553:Drivers/STM32G4xx_HAL_Driver/Src/stm32g4xx_hal_flash.c **** 
 554:Drivers/STM32G4xx_HAL_Driver/Src/stm32g4xx_hal_flash.c ****   return status;
 555:Drivers/STM32G4xx_HAL_Driver/Src/stm32g4xx_hal_flash.c **** }
 556:Drivers/STM32G4xx_HAL_Driver/Src/stm32g4xx_hal_flash.c **** 
 557:Drivers/STM32G4xx_HAL_Driver/Src/stm32g4xx_hal_flash.c **** /**
 558:Drivers/STM32G4xx_HAL_Driver/Src/stm32g4xx_hal_flash.c ****   * @brief  Lock the FLASH Option Bytes Registers access.
 559:Drivers/STM32G4xx_HAL_Driver/Src/stm32g4xx_hal_flash.c ****   * @retval HAL_Status
 560:Drivers/STM32G4xx_HAL_Driver/Src/stm32g4xx_hal_flash.c ****   */
 561:Drivers/STM32G4xx_HAL_Driver/Src/stm32g4xx_hal_flash.c **** HAL_StatusTypeDef HAL_FLASH_OB_Lock(void)
 562:Drivers/STM32G4xx_HAL_Driver/Src/stm32g4xx_hal_flash.c **** {
 563:Drivers/STM32G4xx_HAL_Driver/Src/stm32g4xx_hal_flash.c ****   HAL_StatusTypeDef status = HAL_ERROR;
 564:Drivers/STM32G4xx_HAL_Driver/Src/stm32g4xx_hal_flash.c **** 
 565:Drivers/STM32G4xx_HAL_Driver/Src/stm32g4xx_hal_flash.c ****   /* Set the OPTLOCK Bit to lock the FLASH Option Byte Registers access */
 566:Drivers/STM32G4xx_HAL_Driver/Src/stm32g4xx_hal_flash.c ****   SET_BIT(FLASH->CR, FLASH_CR_OPTLOCK);
 567:Drivers/STM32G4xx_HAL_Driver/Src/stm32g4xx_hal_flash.c **** 
 568:Drivers/STM32G4xx_HAL_Driver/Src/stm32g4xx_hal_flash.c ****   /* Verify option bytes are locked */
 569:Drivers/STM32G4xx_HAL_Driver/Src/stm32g4xx_hal_flash.c ****   if (READ_BIT(FLASH->CR, FLASH_CR_OPTLOCK) != 0U)
 570:Drivers/STM32G4xx_HAL_Driver/Src/stm32g4xx_hal_flash.c ****   {
 571:Drivers/STM32G4xx_HAL_Driver/Src/stm32g4xx_hal_flash.c ****     status = HAL_OK;
 572:Drivers/STM32G4xx_HAL_Driver/Src/stm32g4xx_hal_flash.c ****   }
 573:Drivers/STM32G4xx_HAL_Driver/Src/stm32g4xx_hal_flash.c **** 
 574:Drivers/STM32G4xx_HAL_Driver/Src/stm32g4xx_hal_flash.c ****   return status;
 575:Drivers/STM32G4xx_HAL_Driver/Src/stm32g4xx_hal_flash.c **** }
 576:Drivers/STM32G4xx_HAL_Driver/Src/stm32g4xx_hal_flash.c **** 
 577:Drivers/STM32G4xx_HAL_Driver/Src/stm32g4xx_hal_flash.c **** /**
 578:Drivers/STM32G4xx_HAL_Driver/Src/stm32g4xx_hal_flash.c ****   * @brief  Launch the option byte loading.
 579:Drivers/STM32G4xx_HAL_Driver/Src/stm32g4xx_hal_flash.c ****   * @retval HAL_Status
 580:Drivers/STM32G4xx_HAL_Driver/Src/stm32g4xx_hal_flash.c ****   */
 581:Drivers/STM32G4xx_HAL_Driver/Src/stm32g4xx_hal_flash.c **** HAL_StatusTypeDef HAL_FLASH_OB_Launch(void)
 582:Drivers/STM32G4xx_HAL_Driver/Src/stm32g4xx_hal_flash.c **** {
 583:Drivers/STM32G4xx_HAL_Driver/Src/stm32g4xx_hal_flash.c ****   /* Set the bit to force the option byte reloading */
 584:Drivers/STM32G4xx_HAL_Driver/Src/stm32g4xx_hal_flash.c ****   SET_BIT(FLASH->CR, FLASH_CR_OBL_LAUNCH);
 585:Drivers/STM32G4xx_HAL_Driver/Src/stm32g4xx_hal_flash.c **** 
 586:Drivers/STM32G4xx_HAL_Driver/Src/stm32g4xx_hal_flash.c ****   /* Wait for last operation to be completed */
 587:Drivers/STM32G4xx_HAL_Driver/Src/stm32g4xx_hal_flash.c ****   return (FLASH_WaitForLastOperation((uint32_t)FLASH_TIMEOUT_VALUE));
 588:Drivers/STM32G4xx_HAL_Driver/Src/stm32g4xx_hal_flash.c **** }
 589:Drivers/STM32G4xx_HAL_Driver/Src/stm32g4xx_hal_flash.c **** 
 590:Drivers/STM32G4xx_HAL_Driver/Src/stm32g4xx_hal_flash.c **** /**
 591:Drivers/STM32G4xx_HAL_Driver/Src/stm32g4xx_hal_flash.c ****   * @}
ARM GAS  /tmp/ccMYOmG8.s 			page 12


 592:Drivers/STM32G4xx_HAL_Driver/Src/stm32g4xx_hal_flash.c ****   */
 593:Drivers/STM32G4xx_HAL_Driver/Src/stm32g4xx_hal_flash.c **** 
 594:Drivers/STM32G4xx_HAL_Driver/Src/stm32g4xx_hal_flash.c **** /** @defgroup FLASH_Exported_Functions_Group3 Peripheral State and Errors functions
 595:Drivers/STM32G4xx_HAL_Driver/Src/stm32g4xx_hal_flash.c ****   * @brief   Peripheral Errors functions
 596:Drivers/STM32G4xx_HAL_Driver/Src/stm32g4xx_hal_flash.c ****   *
 597:Drivers/STM32G4xx_HAL_Driver/Src/stm32g4xx_hal_flash.c **** @verbatim
 598:Drivers/STM32G4xx_HAL_Driver/Src/stm32g4xx_hal_flash.c ****  ===============================================================================
 599:Drivers/STM32G4xx_HAL_Driver/Src/stm32g4xx_hal_flash.c ****                 ##### Peripheral Errors functions #####
 600:Drivers/STM32G4xx_HAL_Driver/Src/stm32g4xx_hal_flash.c ****  ===============================================================================
 601:Drivers/STM32G4xx_HAL_Driver/Src/stm32g4xx_hal_flash.c ****     [..]
 602:Drivers/STM32G4xx_HAL_Driver/Src/stm32g4xx_hal_flash.c ****     This subsection permits to get in run-time Errors of the FLASH peripheral.
 603:Drivers/STM32G4xx_HAL_Driver/Src/stm32g4xx_hal_flash.c **** 
 604:Drivers/STM32G4xx_HAL_Driver/Src/stm32g4xx_hal_flash.c **** @endverbatim
 605:Drivers/STM32G4xx_HAL_Driver/Src/stm32g4xx_hal_flash.c ****   * @{
 606:Drivers/STM32G4xx_HAL_Driver/Src/stm32g4xx_hal_flash.c ****   */
 607:Drivers/STM32G4xx_HAL_Driver/Src/stm32g4xx_hal_flash.c **** 
 608:Drivers/STM32G4xx_HAL_Driver/Src/stm32g4xx_hal_flash.c **** /**
 609:Drivers/STM32G4xx_HAL_Driver/Src/stm32g4xx_hal_flash.c ****   * @brief  Get the specific FLASH error flag.
 610:Drivers/STM32G4xx_HAL_Driver/Src/stm32g4xx_hal_flash.c ****   * @retval FLASH_ErrorCode. The returned value can be:
 611:Drivers/STM32G4xx_HAL_Driver/Src/stm32g4xx_hal_flash.c ****   *            @arg HAL_FLASH_ERROR_RD: FLASH Read Protection error flag (PCROP)
 612:Drivers/STM32G4xx_HAL_Driver/Src/stm32g4xx_hal_flash.c ****   *            @arg HAL_FLASH_ERROR_PGS: FLASH Programming Sequence error flag
 613:Drivers/STM32G4xx_HAL_Driver/Src/stm32g4xx_hal_flash.c ****   *            @arg HAL_FLASH_ERROR_PGP: FLASH Programming Parallelism error flag
 614:Drivers/STM32G4xx_HAL_Driver/Src/stm32g4xx_hal_flash.c ****   *            @arg HAL_FLASH_ERROR_PGA: FLASH Programming Alignment error flag
 615:Drivers/STM32G4xx_HAL_Driver/Src/stm32g4xx_hal_flash.c ****   *            @arg HAL_FLASH_ERROR_WRP: FLASH Write protected error flag
 616:Drivers/STM32G4xx_HAL_Driver/Src/stm32g4xx_hal_flash.c ****   *            @arg HAL_FLASH_ERROR_OPERATION: FLASH operation Error flag
 617:Drivers/STM32G4xx_HAL_Driver/Src/stm32g4xx_hal_flash.c ****   *            @arg HAL_FLASH_ERROR_NONE: No error set
 618:Drivers/STM32G4xx_HAL_Driver/Src/stm32g4xx_hal_flash.c ****   *            @arg HAL_FLASH_ERROR_OP: FLASH Operation error
 619:Drivers/STM32G4xx_HAL_Driver/Src/stm32g4xx_hal_flash.c ****   *            @arg HAL_FLASH_ERROR_PROG: FLASH Programming error
 620:Drivers/STM32G4xx_HAL_Driver/Src/stm32g4xx_hal_flash.c ****   *            @arg HAL_FLASH_ERROR_WRP: FLASH Write protection error
 621:Drivers/STM32G4xx_HAL_Driver/Src/stm32g4xx_hal_flash.c ****   *            @arg HAL_FLASH_ERROR_PGA: FLASH Programming alignment error
 622:Drivers/STM32G4xx_HAL_Driver/Src/stm32g4xx_hal_flash.c ****   *            @arg HAL_FLASH_ERROR_SIZ: FLASH Size error
 623:Drivers/STM32G4xx_HAL_Driver/Src/stm32g4xx_hal_flash.c ****   *            @arg HAL_FLASH_ERROR_PGS: FLASH Programming sequence error
 624:Drivers/STM32G4xx_HAL_Driver/Src/stm32g4xx_hal_flash.c ****   *            @arg HAL_FLASH_ERROR_MIS: FLASH Fast programming data miss error
 625:Drivers/STM32G4xx_HAL_Driver/Src/stm32g4xx_hal_flash.c ****   *            @arg HAL_FLASH_ERROR_FAST: FLASH Fast programming error
 626:Drivers/STM32G4xx_HAL_Driver/Src/stm32g4xx_hal_flash.c ****   *            @arg HAL_FLASH_ERROR_RD: FLASH PCROP read error
 627:Drivers/STM32G4xx_HAL_Driver/Src/stm32g4xx_hal_flash.c ****   *            @arg HAL_FLASH_ERROR_OPTV: FLASH Option validity error
 628:Drivers/STM32G4xx_HAL_Driver/Src/stm32g4xx_hal_flash.c ****   */
 629:Drivers/STM32G4xx_HAL_Driver/Src/stm32g4xx_hal_flash.c **** uint32_t HAL_FLASH_GetError(void)
 630:Drivers/STM32G4xx_HAL_Driver/Src/stm32g4xx_hal_flash.c **** {
 631:Drivers/STM32G4xx_HAL_Driver/Src/stm32g4xx_hal_flash.c ****   return pFlash.ErrorCode;
 632:Drivers/STM32G4xx_HAL_Driver/Src/stm32g4xx_hal_flash.c **** }
 633:Drivers/STM32G4xx_HAL_Driver/Src/stm32g4xx_hal_flash.c **** 
 634:Drivers/STM32G4xx_HAL_Driver/Src/stm32g4xx_hal_flash.c **** /**
 635:Drivers/STM32G4xx_HAL_Driver/Src/stm32g4xx_hal_flash.c ****   * @}
 636:Drivers/STM32G4xx_HAL_Driver/Src/stm32g4xx_hal_flash.c ****   */
 637:Drivers/STM32G4xx_HAL_Driver/Src/stm32g4xx_hal_flash.c **** 
 638:Drivers/STM32G4xx_HAL_Driver/Src/stm32g4xx_hal_flash.c **** /**
 639:Drivers/STM32G4xx_HAL_Driver/Src/stm32g4xx_hal_flash.c ****   * @}
 640:Drivers/STM32G4xx_HAL_Driver/Src/stm32g4xx_hal_flash.c ****   */
 641:Drivers/STM32G4xx_HAL_Driver/Src/stm32g4xx_hal_flash.c **** 
 642:Drivers/STM32G4xx_HAL_Driver/Src/stm32g4xx_hal_flash.c **** /* Private functions ---------------------------------------------------------*/
 643:Drivers/STM32G4xx_HAL_Driver/Src/stm32g4xx_hal_flash.c **** 
 644:Drivers/STM32G4xx_HAL_Driver/Src/stm32g4xx_hal_flash.c **** /** @addtogroup FLASH_Private_Functions
 645:Drivers/STM32G4xx_HAL_Driver/Src/stm32g4xx_hal_flash.c ****   * @{
 646:Drivers/STM32G4xx_HAL_Driver/Src/stm32g4xx_hal_flash.c ****   */
 647:Drivers/STM32G4xx_HAL_Driver/Src/stm32g4xx_hal_flash.c **** 
 648:Drivers/STM32G4xx_HAL_Driver/Src/stm32g4xx_hal_flash.c **** /**
ARM GAS  /tmp/ccMYOmG8.s 			page 13


 649:Drivers/STM32G4xx_HAL_Driver/Src/stm32g4xx_hal_flash.c ****   * @brief  Wait for a FLASH operation to complete.
 650:Drivers/STM32G4xx_HAL_Driver/Src/stm32g4xx_hal_flash.c ****   * @param  Timeout maximum flash operation timeout.
 651:Drivers/STM32G4xx_HAL_Driver/Src/stm32g4xx_hal_flash.c ****   * @retval HAL_Status
 652:Drivers/STM32G4xx_HAL_Driver/Src/stm32g4xx_hal_flash.c ****   */
 653:Drivers/STM32G4xx_HAL_Driver/Src/stm32g4xx_hal_flash.c **** HAL_StatusTypeDef FLASH_WaitForLastOperation(uint32_t Timeout)
 654:Drivers/STM32G4xx_HAL_Driver/Src/stm32g4xx_hal_flash.c **** {
 655:Drivers/STM32G4xx_HAL_Driver/Src/stm32g4xx_hal_flash.c ****   /* Wait for the FLASH operation to complete by polling on BUSY flag to be reset.
 656:Drivers/STM32G4xx_HAL_Driver/Src/stm32g4xx_hal_flash.c ****      Even if the FLASH operation fails, the BUSY flag will be reset and an error
 657:Drivers/STM32G4xx_HAL_Driver/Src/stm32g4xx_hal_flash.c ****      flag will be set */
 658:Drivers/STM32G4xx_HAL_Driver/Src/stm32g4xx_hal_flash.c **** 
 659:Drivers/STM32G4xx_HAL_Driver/Src/stm32g4xx_hal_flash.c ****   uint32_t tickstart = HAL_GetTick();
 660:Drivers/STM32G4xx_HAL_Driver/Src/stm32g4xx_hal_flash.c ****   uint32_t error;
 661:Drivers/STM32G4xx_HAL_Driver/Src/stm32g4xx_hal_flash.c **** 
 662:Drivers/STM32G4xx_HAL_Driver/Src/stm32g4xx_hal_flash.c ****   while (__HAL_FLASH_GET_FLAG(FLASH_FLAG_BSY))
 663:Drivers/STM32G4xx_HAL_Driver/Src/stm32g4xx_hal_flash.c ****   {
 664:Drivers/STM32G4xx_HAL_Driver/Src/stm32g4xx_hal_flash.c ****     if ((HAL_GetTick() - tickstart) > Timeout)
 665:Drivers/STM32G4xx_HAL_Driver/Src/stm32g4xx_hal_flash.c ****     {
 666:Drivers/STM32G4xx_HAL_Driver/Src/stm32g4xx_hal_flash.c ****       return HAL_TIMEOUT;
 667:Drivers/STM32G4xx_HAL_Driver/Src/stm32g4xx_hal_flash.c ****     }
 668:Drivers/STM32G4xx_HAL_Driver/Src/stm32g4xx_hal_flash.c ****   }
 669:Drivers/STM32G4xx_HAL_Driver/Src/stm32g4xx_hal_flash.c **** 
 670:Drivers/STM32G4xx_HAL_Driver/Src/stm32g4xx_hal_flash.c ****   /* Check FLASH operation error flags */
 671:Drivers/STM32G4xx_HAL_Driver/Src/stm32g4xx_hal_flash.c ****   error = (FLASH->SR & FLASH_FLAG_SR_ERRORS);
 672:Drivers/STM32G4xx_HAL_Driver/Src/stm32g4xx_hal_flash.c ****   if (error != 0u)
 673:Drivers/STM32G4xx_HAL_Driver/Src/stm32g4xx_hal_flash.c ****   {
 674:Drivers/STM32G4xx_HAL_Driver/Src/stm32g4xx_hal_flash.c ****     /* Save the error code */
 675:Drivers/STM32G4xx_HAL_Driver/Src/stm32g4xx_hal_flash.c ****     pFlash.ErrorCode |= error;
 676:Drivers/STM32G4xx_HAL_Driver/Src/stm32g4xx_hal_flash.c **** 
 677:Drivers/STM32G4xx_HAL_Driver/Src/stm32g4xx_hal_flash.c ****     /* Clear error programming flags */
 678:Drivers/STM32G4xx_HAL_Driver/Src/stm32g4xx_hal_flash.c ****     __HAL_FLASH_CLEAR_FLAG(error);
 679:Drivers/STM32G4xx_HAL_Driver/Src/stm32g4xx_hal_flash.c **** 
 680:Drivers/STM32G4xx_HAL_Driver/Src/stm32g4xx_hal_flash.c ****     return HAL_ERROR;
 681:Drivers/STM32G4xx_HAL_Driver/Src/stm32g4xx_hal_flash.c ****   }
 682:Drivers/STM32G4xx_HAL_Driver/Src/stm32g4xx_hal_flash.c **** 
 683:Drivers/STM32G4xx_HAL_Driver/Src/stm32g4xx_hal_flash.c ****   /* Check FLASH End of Operation flag  */
 684:Drivers/STM32G4xx_HAL_Driver/Src/stm32g4xx_hal_flash.c ****   if (__HAL_FLASH_GET_FLAG(FLASH_FLAG_EOP))
 685:Drivers/STM32G4xx_HAL_Driver/Src/stm32g4xx_hal_flash.c ****   {
 686:Drivers/STM32G4xx_HAL_Driver/Src/stm32g4xx_hal_flash.c ****     /* Clear FLASH End of Operation pending bit */
 687:Drivers/STM32G4xx_HAL_Driver/Src/stm32g4xx_hal_flash.c ****     __HAL_FLASH_CLEAR_FLAG(FLASH_FLAG_EOP);
 688:Drivers/STM32G4xx_HAL_Driver/Src/stm32g4xx_hal_flash.c ****   }
 689:Drivers/STM32G4xx_HAL_Driver/Src/stm32g4xx_hal_flash.c **** 
 690:Drivers/STM32G4xx_HAL_Driver/Src/stm32g4xx_hal_flash.c ****   /* If there is an error flag set */
 691:Drivers/STM32G4xx_HAL_Driver/Src/stm32g4xx_hal_flash.c ****   return HAL_OK;
 692:Drivers/STM32G4xx_HAL_Driver/Src/stm32g4xx_hal_flash.c **** }
 693:Drivers/STM32G4xx_HAL_Driver/Src/stm32g4xx_hal_flash.c **** 
 694:Drivers/STM32G4xx_HAL_Driver/Src/stm32g4xx_hal_flash.c **** /**
 695:Drivers/STM32G4xx_HAL_Driver/Src/stm32g4xx_hal_flash.c ****   * @brief  Program double-word (64-bit) at a specified address.
 696:Drivers/STM32G4xx_HAL_Driver/Src/stm32g4xx_hal_flash.c ****   * @param  Address specifies the address to be programmed.
 697:Drivers/STM32G4xx_HAL_Driver/Src/stm32g4xx_hal_flash.c ****   * @param  Data specifies the data to be programmed.
 698:Drivers/STM32G4xx_HAL_Driver/Src/stm32g4xx_hal_flash.c ****   * @retval None
 699:Drivers/STM32G4xx_HAL_Driver/Src/stm32g4xx_hal_flash.c ****   */
 700:Drivers/STM32G4xx_HAL_Driver/Src/stm32g4xx_hal_flash.c **** static void FLASH_Program_DoubleWord(uint32_t Address, uint64_t Data)
 701:Drivers/STM32G4xx_HAL_Driver/Src/stm32g4xx_hal_flash.c **** {
  34              		.loc 1 701 1 view -0
  35              		.cfi_startproc
  36              		@ args = 0, pretend = 0, frame = 0
  37              		@ frame_needed = 0, uses_anonymous_args = 0
ARM GAS  /tmp/ccMYOmG8.s 			page 14


  38              		.loc 1 701 1 is_stmt 0 view .LVU1
  39 0000 70B5     		push	{r4, r5, r6, lr}
  40              	.LCFI0:
  41              		.cfi_def_cfa_offset 16
  42              		.cfi_offset 4, -16
  43              		.cfi_offset 5, -12
  44              		.cfi_offset 6, -8
  45              		.cfi_offset 14, -4
  46 0002 0446     		mov	r4, r0
  47 0004 1646     		mov	r6, r2
  48 0006 1D46     		mov	r5, r3
 702:Drivers/STM32G4xx_HAL_Driver/Src/stm32g4xx_hal_flash.c ****   /* Check the parameters */
 703:Drivers/STM32G4xx_HAL_Driver/Src/stm32g4xx_hal_flash.c ****   assert_param(IS_FLASH_PROGRAM_ADDRESS(Address));
  49              		.loc 1 703 3 is_stmt 1 view .LVU2
  50 0008 B0F1006F 		cmp	r0, #134217728
  51 000c 0ED3     		bcc	.L2
  52              		.loc 1 703 3 is_stmt 0 discriminator 2 view .LVU3
  53 000e 144B     		ldr	r3, .L8
  54 0010 1A88     		ldrh	r2, [r3]
  55              	.LVL1:
  56              		.loc 1 703 3 discriminator 2 view .LVU4
  57 0012 4FF6FF73 		movw	r3, #65535
  58 0016 9A42     		cmp	r2, r3
  59 0018 19D0     		beq	.L5
  60              		.loc 1 703 3 discriminator 3 view .LVU5
  61 001a 114B     		ldr	r3, .L8
  62 001c 1A68     		ldr	r2, [r3]
  63 001e 114B     		ldr	r3, .L8+4
  64 0020 03EA8223 		and	r3, r3, r2, lsl #10
  65 0024 03F10063 		add	r3, r3, #134217728
  66              	.L3:
  67              		.loc 1 703 3 discriminator 6 view .LVU6
  68 0028 A342     		cmp	r3, r4
  69 002a 06D8     		bhi	.L4
  70              	.L2:
  71              		.loc 1 703 3 discriminator 7 view .LVU7
  72 002c 04F16043 		add	r3, r4, #-536870912
  73 0030 03F51043 		add	r3, r3, #36864
  74 0034 B3F5806F 		cmp	r3, #1024
  75 0038 0BD2     		bcs	.L7
  76              	.LVL2:
  77              	.L4:
 704:Drivers/STM32G4xx_HAL_Driver/Src/stm32g4xx_hal_flash.c **** 
 705:Drivers/STM32G4xx_HAL_Driver/Src/stm32g4xx_hal_flash.c ****   /* Set PG bit */
 706:Drivers/STM32G4xx_HAL_Driver/Src/stm32g4xx_hal_flash.c ****   SET_BIT(FLASH->CR, FLASH_CR_PG);
  78              		.loc 1 706 3 is_stmt 1 view .LVU8
  79 003a 0B4A     		ldr	r2, .L8+8
  80 003c 5369     		ldr	r3, [r2, #20]
  81 003e 43F00103 		orr	r3, r3, #1
  82 0042 5361     		str	r3, [r2, #20]
 707:Drivers/STM32G4xx_HAL_Driver/Src/stm32g4xx_hal_flash.c **** 
 708:Drivers/STM32G4xx_HAL_Driver/Src/stm32g4xx_hal_flash.c ****   /* Program first word */
 709:Drivers/STM32G4xx_HAL_Driver/Src/stm32g4xx_hal_flash.c ****   *(uint32_t *)Address = (uint32_t)Data;
  83              		.loc 1 709 3 view .LVU9
  84              		.loc 1 709 24 is_stmt 0 view .LVU10
  85 0044 2660     		str	r6, [r4]
 710:Drivers/STM32G4xx_HAL_Driver/Src/stm32g4xx_hal_flash.c **** 
ARM GAS  /tmp/ccMYOmG8.s 			page 15


 711:Drivers/STM32G4xx_HAL_Driver/Src/stm32g4xx_hal_flash.c ****   /* Barrier to ensure programming is performed in 2 steps, in right order
 712:Drivers/STM32G4xx_HAL_Driver/Src/stm32g4xx_hal_flash.c ****     (independently of compiler optimization behavior) */
 713:Drivers/STM32G4xx_HAL_Driver/Src/stm32g4xx_hal_flash.c ****   __ISB();
  86              		.loc 1 713 3 is_stmt 1 view .LVU11
  87              	.LBB10:
  88              	.LBI10:
  89              		.file 2 "Drivers/CMSIS/Include/cmsis_gcc.h"
   1:Drivers/CMSIS/Include/cmsis_gcc.h **** /**************************************************************************//**
   2:Drivers/CMSIS/Include/cmsis_gcc.h ****  * @file     cmsis_gcc.h
   3:Drivers/CMSIS/Include/cmsis_gcc.h ****  * @brief    CMSIS compiler GCC header file
   4:Drivers/CMSIS/Include/cmsis_gcc.h ****  * @version  V5.2.0
   5:Drivers/CMSIS/Include/cmsis_gcc.h ****  * @date     08. May 2019
   6:Drivers/CMSIS/Include/cmsis_gcc.h ****  ******************************************************************************/
   7:Drivers/CMSIS/Include/cmsis_gcc.h **** /*
   8:Drivers/CMSIS/Include/cmsis_gcc.h ****  * Copyright (c) 2009-2019 Arm Limited. All rights reserved.
   9:Drivers/CMSIS/Include/cmsis_gcc.h ****  *
  10:Drivers/CMSIS/Include/cmsis_gcc.h ****  * SPDX-License-Identifier: Apache-2.0
  11:Drivers/CMSIS/Include/cmsis_gcc.h ****  *
  12:Drivers/CMSIS/Include/cmsis_gcc.h ****  * Licensed under the Apache License, Version 2.0 (the License); you may
  13:Drivers/CMSIS/Include/cmsis_gcc.h ****  * not use this file except in compliance with the License.
  14:Drivers/CMSIS/Include/cmsis_gcc.h ****  * You may obtain a copy of the License at
  15:Drivers/CMSIS/Include/cmsis_gcc.h ****  *
  16:Drivers/CMSIS/Include/cmsis_gcc.h ****  * www.apache.org/licenses/LICENSE-2.0
  17:Drivers/CMSIS/Include/cmsis_gcc.h ****  *
  18:Drivers/CMSIS/Include/cmsis_gcc.h ****  * Unless required by applicable law or agreed to in writing, software
  19:Drivers/CMSIS/Include/cmsis_gcc.h ****  * distributed under the License is distributed on an AS IS BASIS, WITHOUT
  20:Drivers/CMSIS/Include/cmsis_gcc.h ****  * WARRANTIES OR CONDITIONS OF ANY KIND, either express or implied.
  21:Drivers/CMSIS/Include/cmsis_gcc.h ****  * See the License for the specific language governing permissions and
  22:Drivers/CMSIS/Include/cmsis_gcc.h ****  * limitations under the License.
  23:Drivers/CMSIS/Include/cmsis_gcc.h ****  */
  24:Drivers/CMSIS/Include/cmsis_gcc.h **** 
  25:Drivers/CMSIS/Include/cmsis_gcc.h **** #ifndef __CMSIS_GCC_H
  26:Drivers/CMSIS/Include/cmsis_gcc.h **** #define __CMSIS_GCC_H
  27:Drivers/CMSIS/Include/cmsis_gcc.h **** 
  28:Drivers/CMSIS/Include/cmsis_gcc.h **** /* ignore some GCC warnings */
  29:Drivers/CMSIS/Include/cmsis_gcc.h **** #pragma GCC diagnostic push
  30:Drivers/CMSIS/Include/cmsis_gcc.h **** #pragma GCC diagnostic ignored "-Wsign-conversion"
  31:Drivers/CMSIS/Include/cmsis_gcc.h **** #pragma GCC diagnostic ignored "-Wconversion"
  32:Drivers/CMSIS/Include/cmsis_gcc.h **** #pragma GCC diagnostic ignored "-Wunused-parameter"
  33:Drivers/CMSIS/Include/cmsis_gcc.h **** 
  34:Drivers/CMSIS/Include/cmsis_gcc.h **** /* Fallback for __has_builtin */
  35:Drivers/CMSIS/Include/cmsis_gcc.h **** #ifndef __has_builtin
  36:Drivers/CMSIS/Include/cmsis_gcc.h ****   #define __has_builtin(x) (0)
  37:Drivers/CMSIS/Include/cmsis_gcc.h **** #endif
  38:Drivers/CMSIS/Include/cmsis_gcc.h **** 
  39:Drivers/CMSIS/Include/cmsis_gcc.h **** /* CMSIS compiler specific defines */
  40:Drivers/CMSIS/Include/cmsis_gcc.h **** #ifndef   __ASM
  41:Drivers/CMSIS/Include/cmsis_gcc.h ****   #define __ASM                                  __asm
  42:Drivers/CMSIS/Include/cmsis_gcc.h **** #endif
  43:Drivers/CMSIS/Include/cmsis_gcc.h **** #ifndef   __INLINE
  44:Drivers/CMSIS/Include/cmsis_gcc.h ****   #define __INLINE                               inline
  45:Drivers/CMSIS/Include/cmsis_gcc.h **** #endif
  46:Drivers/CMSIS/Include/cmsis_gcc.h **** #ifndef   __STATIC_INLINE
  47:Drivers/CMSIS/Include/cmsis_gcc.h ****   #define __STATIC_INLINE                        static inline
  48:Drivers/CMSIS/Include/cmsis_gcc.h **** #endif
  49:Drivers/CMSIS/Include/cmsis_gcc.h **** #ifndef   __STATIC_FORCEINLINE                 
  50:Drivers/CMSIS/Include/cmsis_gcc.h ****   #define __STATIC_FORCEINLINE                   __attribute__((always_inline)) static inline
ARM GAS  /tmp/ccMYOmG8.s 			page 16


  51:Drivers/CMSIS/Include/cmsis_gcc.h **** #endif                                           
  52:Drivers/CMSIS/Include/cmsis_gcc.h **** #ifndef   __NO_RETURN
  53:Drivers/CMSIS/Include/cmsis_gcc.h ****   #define __NO_RETURN                            __attribute__((__noreturn__))
  54:Drivers/CMSIS/Include/cmsis_gcc.h **** #endif
  55:Drivers/CMSIS/Include/cmsis_gcc.h **** #ifndef   __USED
  56:Drivers/CMSIS/Include/cmsis_gcc.h ****   #define __USED                                 __attribute__((used))
  57:Drivers/CMSIS/Include/cmsis_gcc.h **** #endif
  58:Drivers/CMSIS/Include/cmsis_gcc.h **** #ifndef   __WEAK
  59:Drivers/CMSIS/Include/cmsis_gcc.h ****   #define __WEAK                                 __attribute__((weak))
  60:Drivers/CMSIS/Include/cmsis_gcc.h **** #endif
  61:Drivers/CMSIS/Include/cmsis_gcc.h **** #ifndef   __PACKED
  62:Drivers/CMSIS/Include/cmsis_gcc.h ****   #define __PACKED                               __attribute__((packed, aligned(1)))
  63:Drivers/CMSIS/Include/cmsis_gcc.h **** #endif
  64:Drivers/CMSIS/Include/cmsis_gcc.h **** #ifndef   __PACKED_STRUCT
  65:Drivers/CMSIS/Include/cmsis_gcc.h ****   #define __PACKED_STRUCT                        struct __attribute__((packed, aligned(1)))
  66:Drivers/CMSIS/Include/cmsis_gcc.h **** #endif
  67:Drivers/CMSIS/Include/cmsis_gcc.h **** #ifndef   __PACKED_UNION
  68:Drivers/CMSIS/Include/cmsis_gcc.h ****   #define __PACKED_UNION                         union __attribute__((packed, aligned(1)))
  69:Drivers/CMSIS/Include/cmsis_gcc.h **** #endif
  70:Drivers/CMSIS/Include/cmsis_gcc.h **** #ifndef   __UNALIGNED_UINT32        /* deprecated */
  71:Drivers/CMSIS/Include/cmsis_gcc.h ****   #pragma GCC diagnostic push
  72:Drivers/CMSIS/Include/cmsis_gcc.h ****   #pragma GCC diagnostic ignored "-Wpacked"
  73:Drivers/CMSIS/Include/cmsis_gcc.h ****   #pragma GCC diagnostic ignored "-Wattributes"
  74:Drivers/CMSIS/Include/cmsis_gcc.h ****   struct __attribute__((packed)) T_UINT32 { uint32_t v; };
  75:Drivers/CMSIS/Include/cmsis_gcc.h ****   #pragma GCC diagnostic pop
  76:Drivers/CMSIS/Include/cmsis_gcc.h ****   #define __UNALIGNED_UINT32(x)                  (((struct T_UINT32 *)(x))->v)
  77:Drivers/CMSIS/Include/cmsis_gcc.h **** #endif
  78:Drivers/CMSIS/Include/cmsis_gcc.h **** #ifndef   __UNALIGNED_UINT16_WRITE
  79:Drivers/CMSIS/Include/cmsis_gcc.h ****   #pragma GCC diagnostic push
  80:Drivers/CMSIS/Include/cmsis_gcc.h ****   #pragma GCC diagnostic ignored "-Wpacked"
  81:Drivers/CMSIS/Include/cmsis_gcc.h ****   #pragma GCC diagnostic ignored "-Wattributes"
  82:Drivers/CMSIS/Include/cmsis_gcc.h ****   __PACKED_STRUCT T_UINT16_WRITE { uint16_t v; };
  83:Drivers/CMSIS/Include/cmsis_gcc.h ****   #pragma GCC diagnostic pop
  84:Drivers/CMSIS/Include/cmsis_gcc.h ****   #define __UNALIGNED_UINT16_WRITE(addr, val)    (void)((((struct T_UINT16_WRITE *)(void *)(addr))-
  85:Drivers/CMSIS/Include/cmsis_gcc.h **** #endif
  86:Drivers/CMSIS/Include/cmsis_gcc.h **** #ifndef   __UNALIGNED_UINT16_READ
  87:Drivers/CMSIS/Include/cmsis_gcc.h ****   #pragma GCC diagnostic push
  88:Drivers/CMSIS/Include/cmsis_gcc.h ****   #pragma GCC diagnostic ignored "-Wpacked"
  89:Drivers/CMSIS/Include/cmsis_gcc.h ****   #pragma GCC diagnostic ignored "-Wattributes"
  90:Drivers/CMSIS/Include/cmsis_gcc.h ****   __PACKED_STRUCT T_UINT16_READ { uint16_t v; };
  91:Drivers/CMSIS/Include/cmsis_gcc.h ****   #pragma GCC diagnostic pop
  92:Drivers/CMSIS/Include/cmsis_gcc.h ****   #define __UNALIGNED_UINT16_READ(addr)          (((const struct T_UINT16_READ *)(const void *)(add
  93:Drivers/CMSIS/Include/cmsis_gcc.h **** #endif
  94:Drivers/CMSIS/Include/cmsis_gcc.h **** #ifndef   __UNALIGNED_UINT32_WRITE
  95:Drivers/CMSIS/Include/cmsis_gcc.h ****   #pragma GCC diagnostic push
  96:Drivers/CMSIS/Include/cmsis_gcc.h ****   #pragma GCC diagnostic ignored "-Wpacked"
  97:Drivers/CMSIS/Include/cmsis_gcc.h ****   #pragma GCC diagnostic ignored "-Wattributes"
  98:Drivers/CMSIS/Include/cmsis_gcc.h ****   __PACKED_STRUCT T_UINT32_WRITE { uint32_t v; };
  99:Drivers/CMSIS/Include/cmsis_gcc.h ****   #pragma GCC diagnostic pop
 100:Drivers/CMSIS/Include/cmsis_gcc.h ****   #define __UNALIGNED_UINT32_WRITE(addr, val)    (void)((((struct T_UINT32_WRITE *)(void *)(addr))-
 101:Drivers/CMSIS/Include/cmsis_gcc.h **** #endif
 102:Drivers/CMSIS/Include/cmsis_gcc.h **** #ifndef   __UNALIGNED_UINT32_READ
 103:Drivers/CMSIS/Include/cmsis_gcc.h ****   #pragma GCC diagnostic push
 104:Drivers/CMSIS/Include/cmsis_gcc.h ****   #pragma GCC diagnostic ignored "-Wpacked"
 105:Drivers/CMSIS/Include/cmsis_gcc.h ****   #pragma GCC diagnostic ignored "-Wattributes"
 106:Drivers/CMSIS/Include/cmsis_gcc.h ****   __PACKED_STRUCT T_UINT32_READ { uint32_t v; };
 107:Drivers/CMSIS/Include/cmsis_gcc.h ****   #pragma GCC diagnostic pop
ARM GAS  /tmp/ccMYOmG8.s 			page 17


 108:Drivers/CMSIS/Include/cmsis_gcc.h ****   #define __UNALIGNED_UINT32_READ(addr)          (((const struct T_UINT32_READ *)(const void *)(add
 109:Drivers/CMSIS/Include/cmsis_gcc.h **** #endif
 110:Drivers/CMSIS/Include/cmsis_gcc.h **** #ifndef   __ALIGNED
 111:Drivers/CMSIS/Include/cmsis_gcc.h ****   #define __ALIGNED(x)                           __attribute__((aligned(x)))
 112:Drivers/CMSIS/Include/cmsis_gcc.h **** #endif
 113:Drivers/CMSIS/Include/cmsis_gcc.h **** #ifndef   __RESTRICT
 114:Drivers/CMSIS/Include/cmsis_gcc.h ****   #define __RESTRICT                             __restrict
 115:Drivers/CMSIS/Include/cmsis_gcc.h **** #endif
 116:Drivers/CMSIS/Include/cmsis_gcc.h **** #ifndef   __COMPILER_BARRIER
 117:Drivers/CMSIS/Include/cmsis_gcc.h ****   #define __COMPILER_BARRIER()                   __ASM volatile("":::"memory")
 118:Drivers/CMSIS/Include/cmsis_gcc.h **** #endif
 119:Drivers/CMSIS/Include/cmsis_gcc.h **** 
 120:Drivers/CMSIS/Include/cmsis_gcc.h **** /* #########################  Startup and Lowlevel Init  ######################## */
 121:Drivers/CMSIS/Include/cmsis_gcc.h **** 
 122:Drivers/CMSIS/Include/cmsis_gcc.h **** #ifndef __PROGRAM_START
 123:Drivers/CMSIS/Include/cmsis_gcc.h **** 
 124:Drivers/CMSIS/Include/cmsis_gcc.h **** /**
 125:Drivers/CMSIS/Include/cmsis_gcc.h ****   \brief   Initializes data and bss sections
 126:Drivers/CMSIS/Include/cmsis_gcc.h ****   \details This default implementations initialized all data and additional bss
 127:Drivers/CMSIS/Include/cmsis_gcc.h ****            sections relying on .copy.table and .zero.table specified properly
 128:Drivers/CMSIS/Include/cmsis_gcc.h ****            in the used linker script.
 129:Drivers/CMSIS/Include/cmsis_gcc.h ****   
 130:Drivers/CMSIS/Include/cmsis_gcc.h ****  */
 131:Drivers/CMSIS/Include/cmsis_gcc.h **** __STATIC_FORCEINLINE __NO_RETURN void __cmsis_start(void)
 132:Drivers/CMSIS/Include/cmsis_gcc.h **** {
 133:Drivers/CMSIS/Include/cmsis_gcc.h ****   extern void _start(void) __NO_RETURN;
 134:Drivers/CMSIS/Include/cmsis_gcc.h ****   
 135:Drivers/CMSIS/Include/cmsis_gcc.h ****   typedef struct {
 136:Drivers/CMSIS/Include/cmsis_gcc.h ****     uint32_t const* src;
 137:Drivers/CMSIS/Include/cmsis_gcc.h ****     uint32_t* dest;
 138:Drivers/CMSIS/Include/cmsis_gcc.h ****     uint32_t  wlen;
 139:Drivers/CMSIS/Include/cmsis_gcc.h ****   } __copy_table_t;
 140:Drivers/CMSIS/Include/cmsis_gcc.h ****   
 141:Drivers/CMSIS/Include/cmsis_gcc.h ****   typedef struct {
 142:Drivers/CMSIS/Include/cmsis_gcc.h ****     uint32_t* dest;
 143:Drivers/CMSIS/Include/cmsis_gcc.h ****     uint32_t  wlen;
 144:Drivers/CMSIS/Include/cmsis_gcc.h ****   } __zero_table_t;
 145:Drivers/CMSIS/Include/cmsis_gcc.h ****   
 146:Drivers/CMSIS/Include/cmsis_gcc.h ****   extern const __copy_table_t __copy_table_start__;
 147:Drivers/CMSIS/Include/cmsis_gcc.h ****   extern const __copy_table_t __copy_table_end__;
 148:Drivers/CMSIS/Include/cmsis_gcc.h ****   extern const __zero_table_t __zero_table_start__;
 149:Drivers/CMSIS/Include/cmsis_gcc.h ****   extern const __zero_table_t __zero_table_end__;
 150:Drivers/CMSIS/Include/cmsis_gcc.h **** 
 151:Drivers/CMSIS/Include/cmsis_gcc.h ****   for (__copy_table_t const* pTable = &__copy_table_start__; pTable < &__copy_table_end__; ++pTable
 152:Drivers/CMSIS/Include/cmsis_gcc.h ****     for(uint32_t i=0u; i<pTable->wlen; ++i) {
 153:Drivers/CMSIS/Include/cmsis_gcc.h ****       pTable->dest[i] = pTable->src[i];
 154:Drivers/CMSIS/Include/cmsis_gcc.h ****     }
 155:Drivers/CMSIS/Include/cmsis_gcc.h ****   }
 156:Drivers/CMSIS/Include/cmsis_gcc.h ****  
 157:Drivers/CMSIS/Include/cmsis_gcc.h ****   for (__zero_table_t const* pTable = &__zero_table_start__; pTable < &__zero_table_end__; ++pTable
 158:Drivers/CMSIS/Include/cmsis_gcc.h ****     for(uint32_t i=0u; i<pTable->wlen; ++i) {
 159:Drivers/CMSIS/Include/cmsis_gcc.h ****       pTable->dest[i] = 0u;
 160:Drivers/CMSIS/Include/cmsis_gcc.h ****     }
 161:Drivers/CMSIS/Include/cmsis_gcc.h ****   }
 162:Drivers/CMSIS/Include/cmsis_gcc.h ****  
 163:Drivers/CMSIS/Include/cmsis_gcc.h ****   _start();
 164:Drivers/CMSIS/Include/cmsis_gcc.h **** }
ARM GAS  /tmp/ccMYOmG8.s 			page 18


 165:Drivers/CMSIS/Include/cmsis_gcc.h ****   
 166:Drivers/CMSIS/Include/cmsis_gcc.h **** #define __PROGRAM_START           __cmsis_start
 167:Drivers/CMSIS/Include/cmsis_gcc.h **** #endif
 168:Drivers/CMSIS/Include/cmsis_gcc.h **** 
 169:Drivers/CMSIS/Include/cmsis_gcc.h **** #ifndef __INITIAL_SP
 170:Drivers/CMSIS/Include/cmsis_gcc.h **** #define __INITIAL_SP              __StackTop
 171:Drivers/CMSIS/Include/cmsis_gcc.h **** #endif
 172:Drivers/CMSIS/Include/cmsis_gcc.h **** 
 173:Drivers/CMSIS/Include/cmsis_gcc.h **** #ifndef __STACK_LIMIT
 174:Drivers/CMSIS/Include/cmsis_gcc.h **** #define __STACK_LIMIT             __StackLimit
 175:Drivers/CMSIS/Include/cmsis_gcc.h **** #endif
 176:Drivers/CMSIS/Include/cmsis_gcc.h **** 
 177:Drivers/CMSIS/Include/cmsis_gcc.h **** #ifndef __VECTOR_TABLE
 178:Drivers/CMSIS/Include/cmsis_gcc.h **** #define __VECTOR_TABLE            __Vectors
 179:Drivers/CMSIS/Include/cmsis_gcc.h **** #endif
 180:Drivers/CMSIS/Include/cmsis_gcc.h **** 
 181:Drivers/CMSIS/Include/cmsis_gcc.h **** #ifndef __VECTOR_TABLE_ATTRIBUTE
 182:Drivers/CMSIS/Include/cmsis_gcc.h **** #define __VECTOR_TABLE_ATTRIBUTE  __attribute((used, section(".vectors")))
 183:Drivers/CMSIS/Include/cmsis_gcc.h **** #endif
 184:Drivers/CMSIS/Include/cmsis_gcc.h **** 
 185:Drivers/CMSIS/Include/cmsis_gcc.h **** /* ###########################  Core Function Access  ########################### */
 186:Drivers/CMSIS/Include/cmsis_gcc.h **** /** \ingroup  CMSIS_Core_FunctionInterface
 187:Drivers/CMSIS/Include/cmsis_gcc.h ****     \defgroup CMSIS_Core_RegAccFunctions CMSIS Core Register Access Functions
 188:Drivers/CMSIS/Include/cmsis_gcc.h ****   @{
 189:Drivers/CMSIS/Include/cmsis_gcc.h ****  */
 190:Drivers/CMSIS/Include/cmsis_gcc.h **** 
 191:Drivers/CMSIS/Include/cmsis_gcc.h **** /**
 192:Drivers/CMSIS/Include/cmsis_gcc.h ****   \brief   Enable IRQ Interrupts
 193:Drivers/CMSIS/Include/cmsis_gcc.h ****   \details Enables IRQ interrupts by clearing the I-bit in the CPSR.
 194:Drivers/CMSIS/Include/cmsis_gcc.h ****            Can only be executed in Privileged modes.
 195:Drivers/CMSIS/Include/cmsis_gcc.h ****  */
 196:Drivers/CMSIS/Include/cmsis_gcc.h **** __STATIC_FORCEINLINE void __enable_irq(void)
 197:Drivers/CMSIS/Include/cmsis_gcc.h **** {
 198:Drivers/CMSIS/Include/cmsis_gcc.h ****   __ASM volatile ("cpsie i" : : : "memory");
 199:Drivers/CMSIS/Include/cmsis_gcc.h **** }
 200:Drivers/CMSIS/Include/cmsis_gcc.h **** 
 201:Drivers/CMSIS/Include/cmsis_gcc.h **** 
 202:Drivers/CMSIS/Include/cmsis_gcc.h **** /**
 203:Drivers/CMSIS/Include/cmsis_gcc.h ****   \brief   Disable IRQ Interrupts
 204:Drivers/CMSIS/Include/cmsis_gcc.h ****   \details Disables IRQ interrupts by setting the I-bit in the CPSR.
 205:Drivers/CMSIS/Include/cmsis_gcc.h ****            Can only be executed in Privileged modes.
 206:Drivers/CMSIS/Include/cmsis_gcc.h ****  */
 207:Drivers/CMSIS/Include/cmsis_gcc.h **** __STATIC_FORCEINLINE void __disable_irq(void)
 208:Drivers/CMSIS/Include/cmsis_gcc.h **** {
 209:Drivers/CMSIS/Include/cmsis_gcc.h ****   __ASM volatile ("cpsid i" : : : "memory");
 210:Drivers/CMSIS/Include/cmsis_gcc.h **** }
 211:Drivers/CMSIS/Include/cmsis_gcc.h **** 
 212:Drivers/CMSIS/Include/cmsis_gcc.h **** 
 213:Drivers/CMSIS/Include/cmsis_gcc.h **** /**
 214:Drivers/CMSIS/Include/cmsis_gcc.h ****   \brief   Get Control Register
 215:Drivers/CMSIS/Include/cmsis_gcc.h ****   \details Returns the content of the Control Register.
 216:Drivers/CMSIS/Include/cmsis_gcc.h ****   \return               Control Register value
 217:Drivers/CMSIS/Include/cmsis_gcc.h ****  */
 218:Drivers/CMSIS/Include/cmsis_gcc.h **** __STATIC_FORCEINLINE uint32_t __get_CONTROL(void)
 219:Drivers/CMSIS/Include/cmsis_gcc.h **** {
 220:Drivers/CMSIS/Include/cmsis_gcc.h ****   uint32_t result;
 221:Drivers/CMSIS/Include/cmsis_gcc.h **** 
ARM GAS  /tmp/ccMYOmG8.s 			page 19


 222:Drivers/CMSIS/Include/cmsis_gcc.h ****   __ASM volatile ("MRS %0, control" : "=r" (result) );
 223:Drivers/CMSIS/Include/cmsis_gcc.h ****   return(result);
 224:Drivers/CMSIS/Include/cmsis_gcc.h **** }
 225:Drivers/CMSIS/Include/cmsis_gcc.h **** 
 226:Drivers/CMSIS/Include/cmsis_gcc.h **** 
 227:Drivers/CMSIS/Include/cmsis_gcc.h **** #if (defined (__ARM_FEATURE_CMSE ) && (__ARM_FEATURE_CMSE == 3))
 228:Drivers/CMSIS/Include/cmsis_gcc.h **** /**
 229:Drivers/CMSIS/Include/cmsis_gcc.h ****   \brief   Get Control Register (non-secure)
 230:Drivers/CMSIS/Include/cmsis_gcc.h ****   \details Returns the content of the non-secure Control Register when in secure mode.
 231:Drivers/CMSIS/Include/cmsis_gcc.h ****   \return               non-secure Control Register value
 232:Drivers/CMSIS/Include/cmsis_gcc.h ****  */
 233:Drivers/CMSIS/Include/cmsis_gcc.h **** __STATIC_FORCEINLINE uint32_t __TZ_get_CONTROL_NS(void)
 234:Drivers/CMSIS/Include/cmsis_gcc.h **** {
 235:Drivers/CMSIS/Include/cmsis_gcc.h ****   uint32_t result;
 236:Drivers/CMSIS/Include/cmsis_gcc.h **** 
 237:Drivers/CMSIS/Include/cmsis_gcc.h ****   __ASM volatile ("MRS %0, control_ns" : "=r" (result) );
 238:Drivers/CMSIS/Include/cmsis_gcc.h ****   return(result);
 239:Drivers/CMSIS/Include/cmsis_gcc.h **** }
 240:Drivers/CMSIS/Include/cmsis_gcc.h **** #endif
 241:Drivers/CMSIS/Include/cmsis_gcc.h **** 
 242:Drivers/CMSIS/Include/cmsis_gcc.h **** 
 243:Drivers/CMSIS/Include/cmsis_gcc.h **** /**
 244:Drivers/CMSIS/Include/cmsis_gcc.h ****   \brief   Set Control Register
 245:Drivers/CMSIS/Include/cmsis_gcc.h ****   \details Writes the given value to the Control Register.
 246:Drivers/CMSIS/Include/cmsis_gcc.h ****   \param [in]    control  Control Register value to set
 247:Drivers/CMSIS/Include/cmsis_gcc.h ****  */
 248:Drivers/CMSIS/Include/cmsis_gcc.h **** __STATIC_FORCEINLINE void __set_CONTROL(uint32_t control)
 249:Drivers/CMSIS/Include/cmsis_gcc.h **** {
 250:Drivers/CMSIS/Include/cmsis_gcc.h ****   __ASM volatile ("MSR control, %0" : : "r" (control) : "memory");
 251:Drivers/CMSIS/Include/cmsis_gcc.h **** }
 252:Drivers/CMSIS/Include/cmsis_gcc.h **** 
 253:Drivers/CMSIS/Include/cmsis_gcc.h **** 
 254:Drivers/CMSIS/Include/cmsis_gcc.h **** #if (defined (__ARM_FEATURE_CMSE ) && (__ARM_FEATURE_CMSE == 3))
 255:Drivers/CMSIS/Include/cmsis_gcc.h **** /**
 256:Drivers/CMSIS/Include/cmsis_gcc.h ****   \brief   Set Control Register (non-secure)
 257:Drivers/CMSIS/Include/cmsis_gcc.h ****   \details Writes the given value to the non-secure Control Register when in secure state.
 258:Drivers/CMSIS/Include/cmsis_gcc.h ****   \param [in]    control  Control Register value to set
 259:Drivers/CMSIS/Include/cmsis_gcc.h ****  */
 260:Drivers/CMSIS/Include/cmsis_gcc.h **** __STATIC_FORCEINLINE void __TZ_set_CONTROL_NS(uint32_t control)
 261:Drivers/CMSIS/Include/cmsis_gcc.h **** {
 262:Drivers/CMSIS/Include/cmsis_gcc.h ****   __ASM volatile ("MSR control_ns, %0" : : "r" (control) : "memory");
 263:Drivers/CMSIS/Include/cmsis_gcc.h **** }
 264:Drivers/CMSIS/Include/cmsis_gcc.h **** #endif
 265:Drivers/CMSIS/Include/cmsis_gcc.h **** 
 266:Drivers/CMSIS/Include/cmsis_gcc.h **** 
 267:Drivers/CMSIS/Include/cmsis_gcc.h **** /**
 268:Drivers/CMSIS/Include/cmsis_gcc.h ****   \brief   Get IPSR Register
 269:Drivers/CMSIS/Include/cmsis_gcc.h ****   \details Returns the content of the IPSR Register.
 270:Drivers/CMSIS/Include/cmsis_gcc.h ****   \return               IPSR Register value
 271:Drivers/CMSIS/Include/cmsis_gcc.h ****  */
 272:Drivers/CMSIS/Include/cmsis_gcc.h **** __STATIC_FORCEINLINE uint32_t __get_IPSR(void)
 273:Drivers/CMSIS/Include/cmsis_gcc.h **** {
 274:Drivers/CMSIS/Include/cmsis_gcc.h ****   uint32_t result;
 275:Drivers/CMSIS/Include/cmsis_gcc.h **** 
 276:Drivers/CMSIS/Include/cmsis_gcc.h ****   __ASM volatile ("MRS %0, ipsr" : "=r" (result) );
 277:Drivers/CMSIS/Include/cmsis_gcc.h ****   return(result);
 278:Drivers/CMSIS/Include/cmsis_gcc.h **** }
ARM GAS  /tmp/ccMYOmG8.s 			page 20


 279:Drivers/CMSIS/Include/cmsis_gcc.h **** 
 280:Drivers/CMSIS/Include/cmsis_gcc.h **** 
 281:Drivers/CMSIS/Include/cmsis_gcc.h **** /**
 282:Drivers/CMSIS/Include/cmsis_gcc.h ****   \brief   Get APSR Register
 283:Drivers/CMSIS/Include/cmsis_gcc.h ****   \details Returns the content of the APSR Register.
 284:Drivers/CMSIS/Include/cmsis_gcc.h ****   \return               APSR Register value
 285:Drivers/CMSIS/Include/cmsis_gcc.h ****  */
 286:Drivers/CMSIS/Include/cmsis_gcc.h **** __STATIC_FORCEINLINE uint32_t __get_APSR(void)
 287:Drivers/CMSIS/Include/cmsis_gcc.h **** {
 288:Drivers/CMSIS/Include/cmsis_gcc.h ****   uint32_t result;
 289:Drivers/CMSIS/Include/cmsis_gcc.h **** 
 290:Drivers/CMSIS/Include/cmsis_gcc.h ****   __ASM volatile ("MRS %0, apsr" : "=r" (result) );
 291:Drivers/CMSIS/Include/cmsis_gcc.h ****   return(result);
 292:Drivers/CMSIS/Include/cmsis_gcc.h **** }
 293:Drivers/CMSIS/Include/cmsis_gcc.h **** 
 294:Drivers/CMSIS/Include/cmsis_gcc.h **** 
 295:Drivers/CMSIS/Include/cmsis_gcc.h **** /**
 296:Drivers/CMSIS/Include/cmsis_gcc.h ****   \brief   Get xPSR Register
 297:Drivers/CMSIS/Include/cmsis_gcc.h ****   \details Returns the content of the xPSR Register.
 298:Drivers/CMSIS/Include/cmsis_gcc.h ****   \return               xPSR Register value
 299:Drivers/CMSIS/Include/cmsis_gcc.h ****  */
 300:Drivers/CMSIS/Include/cmsis_gcc.h **** __STATIC_FORCEINLINE uint32_t __get_xPSR(void)
 301:Drivers/CMSIS/Include/cmsis_gcc.h **** {
 302:Drivers/CMSIS/Include/cmsis_gcc.h ****   uint32_t result;
 303:Drivers/CMSIS/Include/cmsis_gcc.h **** 
 304:Drivers/CMSIS/Include/cmsis_gcc.h ****   __ASM volatile ("MRS %0, xpsr" : "=r" (result) );
 305:Drivers/CMSIS/Include/cmsis_gcc.h ****   return(result);
 306:Drivers/CMSIS/Include/cmsis_gcc.h **** }
 307:Drivers/CMSIS/Include/cmsis_gcc.h **** 
 308:Drivers/CMSIS/Include/cmsis_gcc.h **** 
 309:Drivers/CMSIS/Include/cmsis_gcc.h **** /**
 310:Drivers/CMSIS/Include/cmsis_gcc.h ****   \brief   Get Process Stack Pointer
 311:Drivers/CMSIS/Include/cmsis_gcc.h ****   \details Returns the current value of the Process Stack Pointer (PSP).
 312:Drivers/CMSIS/Include/cmsis_gcc.h ****   \return               PSP Register value
 313:Drivers/CMSIS/Include/cmsis_gcc.h ****  */
 314:Drivers/CMSIS/Include/cmsis_gcc.h **** __STATIC_FORCEINLINE uint32_t __get_PSP(void)
 315:Drivers/CMSIS/Include/cmsis_gcc.h **** {
 316:Drivers/CMSIS/Include/cmsis_gcc.h ****   uint32_t result;
 317:Drivers/CMSIS/Include/cmsis_gcc.h **** 
 318:Drivers/CMSIS/Include/cmsis_gcc.h ****   __ASM volatile ("MRS %0, psp"  : "=r" (result) );
 319:Drivers/CMSIS/Include/cmsis_gcc.h ****   return(result);
 320:Drivers/CMSIS/Include/cmsis_gcc.h **** }
 321:Drivers/CMSIS/Include/cmsis_gcc.h **** 
 322:Drivers/CMSIS/Include/cmsis_gcc.h **** 
 323:Drivers/CMSIS/Include/cmsis_gcc.h **** #if (defined (__ARM_FEATURE_CMSE ) && (__ARM_FEATURE_CMSE == 3))
 324:Drivers/CMSIS/Include/cmsis_gcc.h **** /**
 325:Drivers/CMSIS/Include/cmsis_gcc.h ****   \brief   Get Process Stack Pointer (non-secure)
 326:Drivers/CMSIS/Include/cmsis_gcc.h ****   \details Returns the current value of the non-secure Process Stack Pointer (PSP) when in secure s
 327:Drivers/CMSIS/Include/cmsis_gcc.h ****   \return               PSP Register value
 328:Drivers/CMSIS/Include/cmsis_gcc.h ****  */
 329:Drivers/CMSIS/Include/cmsis_gcc.h **** __STATIC_FORCEINLINE uint32_t __TZ_get_PSP_NS(void)
 330:Drivers/CMSIS/Include/cmsis_gcc.h **** {
 331:Drivers/CMSIS/Include/cmsis_gcc.h ****   uint32_t result;
 332:Drivers/CMSIS/Include/cmsis_gcc.h **** 
 333:Drivers/CMSIS/Include/cmsis_gcc.h ****   __ASM volatile ("MRS %0, psp_ns"  : "=r" (result) );
 334:Drivers/CMSIS/Include/cmsis_gcc.h ****   return(result);
 335:Drivers/CMSIS/Include/cmsis_gcc.h **** }
ARM GAS  /tmp/ccMYOmG8.s 			page 21


 336:Drivers/CMSIS/Include/cmsis_gcc.h **** #endif
 337:Drivers/CMSIS/Include/cmsis_gcc.h **** 
 338:Drivers/CMSIS/Include/cmsis_gcc.h **** 
 339:Drivers/CMSIS/Include/cmsis_gcc.h **** /**
 340:Drivers/CMSIS/Include/cmsis_gcc.h ****   \brief   Set Process Stack Pointer
 341:Drivers/CMSIS/Include/cmsis_gcc.h ****   \details Assigns the given value to the Process Stack Pointer (PSP).
 342:Drivers/CMSIS/Include/cmsis_gcc.h ****   \param [in]    topOfProcStack  Process Stack Pointer value to set
 343:Drivers/CMSIS/Include/cmsis_gcc.h ****  */
 344:Drivers/CMSIS/Include/cmsis_gcc.h **** __STATIC_FORCEINLINE void __set_PSP(uint32_t topOfProcStack)
 345:Drivers/CMSIS/Include/cmsis_gcc.h **** {
 346:Drivers/CMSIS/Include/cmsis_gcc.h ****   __ASM volatile ("MSR psp, %0" : : "r" (topOfProcStack) : );
 347:Drivers/CMSIS/Include/cmsis_gcc.h **** }
 348:Drivers/CMSIS/Include/cmsis_gcc.h **** 
 349:Drivers/CMSIS/Include/cmsis_gcc.h **** 
 350:Drivers/CMSIS/Include/cmsis_gcc.h **** #if (defined (__ARM_FEATURE_CMSE ) && (__ARM_FEATURE_CMSE == 3))
 351:Drivers/CMSIS/Include/cmsis_gcc.h **** /**
 352:Drivers/CMSIS/Include/cmsis_gcc.h ****   \brief   Set Process Stack Pointer (non-secure)
 353:Drivers/CMSIS/Include/cmsis_gcc.h ****   \details Assigns the given value to the non-secure Process Stack Pointer (PSP) when in secure sta
 354:Drivers/CMSIS/Include/cmsis_gcc.h ****   \param [in]    topOfProcStack  Process Stack Pointer value to set
 355:Drivers/CMSIS/Include/cmsis_gcc.h ****  */
 356:Drivers/CMSIS/Include/cmsis_gcc.h **** __STATIC_FORCEINLINE void __TZ_set_PSP_NS(uint32_t topOfProcStack)
 357:Drivers/CMSIS/Include/cmsis_gcc.h **** {
 358:Drivers/CMSIS/Include/cmsis_gcc.h ****   __ASM volatile ("MSR psp_ns, %0" : : "r" (topOfProcStack) : );
 359:Drivers/CMSIS/Include/cmsis_gcc.h **** }
 360:Drivers/CMSIS/Include/cmsis_gcc.h **** #endif
 361:Drivers/CMSIS/Include/cmsis_gcc.h **** 
 362:Drivers/CMSIS/Include/cmsis_gcc.h **** 
 363:Drivers/CMSIS/Include/cmsis_gcc.h **** /**
 364:Drivers/CMSIS/Include/cmsis_gcc.h ****   \brief   Get Main Stack Pointer
 365:Drivers/CMSIS/Include/cmsis_gcc.h ****   \details Returns the current value of the Main Stack Pointer (MSP).
 366:Drivers/CMSIS/Include/cmsis_gcc.h ****   \return               MSP Register value
 367:Drivers/CMSIS/Include/cmsis_gcc.h ****  */
 368:Drivers/CMSIS/Include/cmsis_gcc.h **** __STATIC_FORCEINLINE uint32_t __get_MSP(void)
 369:Drivers/CMSIS/Include/cmsis_gcc.h **** {
 370:Drivers/CMSIS/Include/cmsis_gcc.h ****   uint32_t result;
 371:Drivers/CMSIS/Include/cmsis_gcc.h **** 
 372:Drivers/CMSIS/Include/cmsis_gcc.h ****   __ASM volatile ("MRS %0, msp" : "=r" (result) );
 373:Drivers/CMSIS/Include/cmsis_gcc.h ****   return(result);
 374:Drivers/CMSIS/Include/cmsis_gcc.h **** }
 375:Drivers/CMSIS/Include/cmsis_gcc.h **** 
 376:Drivers/CMSIS/Include/cmsis_gcc.h **** 
 377:Drivers/CMSIS/Include/cmsis_gcc.h **** #if (defined (__ARM_FEATURE_CMSE ) && (__ARM_FEATURE_CMSE == 3))
 378:Drivers/CMSIS/Include/cmsis_gcc.h **** /**
 379:Drivers/CMSIS/Include/cmsis_gcc.h ****   \brief   Get Main Stack Pointer (non-secure)
 380:Drivers/CMSIS/Include/cmsis_gcc.h ****   \details Returns the current value of the non-secure Main Stack Pointer (MSP) when in secure stat
 381:Drivers/CMSIS/Include/cmsis_gcc.h ****   \return               MSP Register value
 382:Drivers/CMSIS/Include/cmsis_gcc.h ****  */
 383:Drivers/CMSIS/Include/cmsis_gcc.h **** __STATIC_FORCEINLINE uint32_t __TZ_get_MSP_NS(void)
 384:Drivers/CMSIS/Include/cmsis_gcc.h **** {
 385:Drivers/CMSIS/Include/cmsis_gcc.h ****   uint32_t result;
 386:Drivers/CMSIS/Include/cmsis_gcc.h **** 
 387:Drivers/CMSIS/Include/cmsis_gcc.h ****   __ASM volatile ("MRS %0, msp_ns" : "=r" (result) );
 388:Drivers/CMSIS/Include/cmsis_gcc.h ****   return(result);
 389:Drivers/CMSIS/Include/cmsis_gcc.h **** }
 390:Drivers/CMSIS/Include/cmsis_gcc.h **** #endif
 391:Drivers/CMSIS/Include/cmsis_gcc.h **** 
 392:Drivers/CMSIS/Include/cmsis_gcc.h **** 
ARM GAS  /tmp/ccMYOmG8.s 			page 22


 393:Drivers/CMSIS/Include/cmsis_gcc.h **** /**
 394:Drivers/CMSIS/Include/cmsis_gcc.h ****   \brief   Set Main Stack Pointer
 395:Drivers/CMSIS/Include/cmsis_gcc.h ****   \details Assigns the given value to the Main Stack Pointer (MSP).
 396:Drivers/CMSIS/Include/cmsis_gcc.h ****   \param [in]    topOfMainStack  Main Stack Pointer value to set
 397:Drivers/CMSIS/Include/cmsis_gcc.h ****  */
 398:Drivers/CMSIS/Include/cmsis_gcc.h **** __STATIC_FORCEINLINE void __set_MSP(uint32_t topOfMainStack)
 399:Drivers/CMSIS/Include/cmsis_gcc.h **** {
 400:Drivers/CMSIS/Include/cmsis_gcc.h ****   __ASM volatile ("MSR msp, %0" : : "r" (topOfMainStack) : );
 401:Drivers/CMSIS/Include/cmsis_gcc.h **** }
 402:Drivers/CMSIS/Include/cmsis_gcc.h **** 
 403:Drivers/CMSIS/Include/cmsis_gcc.h **** 
 404:Drivers/CMSIS/Include/cmsis_gcc.h **** #if (defined (__ARM_FEATURE_CMSE ) && (__ARM_FEATURE_CMSE == 3))
 405:Drivers/CMSIS/Include/cmsis_gcc.h **** /**
 406:Drivers/CMSIS/Include/cmsis_gcc.h ****   \brief   Set Main Stack Pointer (non-secure)
 407:Drivers/CMSIS/Include/cmsis_gcc.h ****   \details Assigns the given value to the non-secure Main Stack Pointer (MSP) when in secure state.
 408:Drivers/CMSIS/Include/cmsis_gcc.h ****   \param [in]    topOfMainStack  Main Stack Pointer value to set
 409:Drivers/CMSIS/Include/cmsis_gcc.h ****  */
 410:Drivers/CMSIS/Include/cmsis_gcc.h **** __STATIC_FORCEINLINE void __TZ_set_MSP_NS(uint32_t topOfMainStack)
 411:Drivers/CMSIS/Include/cmsis_gcc.h **** {
 412:Drivers/CMSIS/Include/cmsis_gcc.h ****   __ASM volatile ("MSR msp_ns, %0" : : "r" (topOfMainStack) : );
 413:Drivers/CMSIS/Include/cmsis_gcc.h **** }
 414:Drivers/CMSIS/Include/cmsis_gcc.h **** #endif
 415:Drivers/CMSIS/Include/cmsis_gcc.h **** 
 416:Drivers/CMSIS/Include/cmsis_gcc.h **** 
 417:Drivers/CMSIS/Include/cmsis_gcc.h **** #if (defined (__ARM_FEATURE_CMSE ) && (__ARM_FEATURE_CMSE == 3))
 418:Drivers/CMSIS/Include/cmsis_gcc.h **** /**
 419:Drivers/CMSIS/Include/cmsis_gcc.h ****   \brief   Get Stack Pointer (non-secure)
 420:Drivers/CMSIS/Include/cmsis_gcc.h ****   \details Returns the current value of the non-secure Stack Pointer (SP) when in secure state.
 421:Drivers/CMSIS/Include/cmsis_gcc.h ****   \return               SP Register value
 422:Drivers/CMSIS/Include/cmsis_gcc.h ****  */
 423:Drivers/CMSIS/Include/cmsis_gcc.h **** __STATIC_FORCEINLINE uint32_t __TZ_get_SP_NS(void)
 424:Drivers/CMSIS/Include/cmsis_gcc.h **** {
 425:Drivers/CMSIS/Include/cmsis_gcc.h ****   uint32_t result;
 426:Drivers/CMSIS/Include/cmsis_gcc.h **** 
 427:Drivers/CMSIS/Include/cmsis_gcc.h ****   __ASM volatile ("MRS %0, sp_ns" : "=r" (result) );
 428:Drivers/CMSIS/Include/cmsis_gcc.h ****   return(result);
 429:Drivers/CMSIS/Include/cmsis_gcc.h **** }
 430:Drivers/CMSIS/Include/cmsis_gcc.h **** 
 431:Drivers/CMSIS/Include/cmsis_gcc.h **** 
 432:Drivers/CMSIS/Include/cmsis_gcc.h **** /**
 433:Drivers/CMSIS/Include/cmsis_gcc.h ****   \brief   Set Stack Pointer (non-secure)
 434:Drivers/CMSIS/Include/cmsis_gcc.h ****   \details Assigns the given value to the non-secure Stack Pointer (SP) when in secure state.
 435:Drivers/CMSIS/Include/cmsis_gcc.h ****   \param [in]    topOfStack  Stack Pointer value to set
 436:Drivers/CMSIS/Include/cmsis_gcc.h ****  */
 437:Drivers/CMSIS/Include/cmsis_gcc.h **** __STATIC_FORCEINLINE void __TZ_set_SP_NS(uint32_t topOfStack)
 438:Drivers/CMSIS/Include/cmsis_gcc.h **** {
 439:Drivers/CMSIS/Include/cmsis_gcc.h ****   __ASM volatile ("MSR sp_ns, %0" : : "r" (topOfStack) : );
 440:Drivers/CMSIS/Include/cmsis_gcc.h **** }
 441:Drivers/CMSIS/Include/cmsis_gcc.h **** #endif
 442:Drivers/CMSIS/Include/cmsis_gcc.h **** 
 443:Drivers/CMSIS/Include/cmsis_gcc.h **** 
 444:Drivers/CMSIS/Include/cmsis_gcc.h **** /**
 445:Drivers/CMSIS/Include/cmsis_gcc.h ****   \brief   Get Priority Mask
 446:Drivers/CMSIS/Include/cmsis_gcc.h ****   \details Returns the current state of the priority mask bit from the Priority Mask Register.
 447:Drivers/CMSIS/Include/cmsis_gcc.h ****   \return               Priority Mask value
 448:Drivers/CMSIS/Include/cmsis_gcc.h ****  */
 449:Drivers/CMSIS/Include/cmsis_gcc.h **** __STATIC_FORCEINLINE uint32_t __get_PRIMASK(void)
ARM GAS  /tmp/ccMYOmG8.s 			page 23


 450:Drivers/CMSIS/Include/cmsis_gcc.h **** {
 451:Drivers/CMSIS/Include/cmsis_gcc.h ****   uint32_t result;
 452:Drivers/CMSIS/Include/cmsis_gcc.h **** 
 453:Drivers/CMSIS/Include/cmsis_gcc.h ****   __ASM volatile ("MRS %0, primask" : "=r" (result) :: "memory");
 454:Drivers/CMSIS/Include/cmsis_gcc.h ****   return(result);
 455:Drivers/CMSIS/Include/cmsis_gcc.h **** }
 456:Drivers/CMSIS/Include/cmsis_gcc.h **** 
 457:Drivers/CMSIS/Include/cmsis_gcc.h **** 
 458:Drivers/CMSIS/Include/cmsis_gcc.h **** #if (defined (__ARM_FEATURE_CMSE ) && (__ARM_FEATURE_CMSE == 3))
 459:Drivers/CMSIS/Include/cmsis_gcc.h **** /**
 460:Drivers/CMSIS/Include/cmsis_gcc.h ****   \brief   Get Priority Mask (non-secure)
 461:Drivers/CMSIS/Include/cmsis_gcc.h ****   \details Returns the current state of the non-secure priority mask bit from the Priority Mask Reg
 462:Drivers/CMSIS/Include/cmsis_gcc.h ****   \return               Priority Mask value
 463:Drivers/CMSIS/Include/cmsis_gcc.h ****  */
 464:Drivers/CMSIS/Include/cmsis_gcc.h **** __STATIC_FORCEINLINE uint32_t __TZ_get_PRIMASK_NS(void)
 465:Drivers/CMSIS/Include/cmsis_gcc.h **** {
 466:Drivers/CMSIS/Include/cmsis_gcc.h ****   uint32_t result;
 467:Drivers/CMSIS/Include/cmsis_gcc.h **** 
 468:Drivers/CMSIS/Include/cmsis_gcc.h ****   __ASM volatile ("MRS %0, primask_ns" : "=r" (result) :: "memory");
 469:Drivers/CMSIS/Include/cmsis_gcc.h ****   return(result);
 470:Drivers/CMSIS/Include/cmsis_gcc.h **** }
 471:Drivers/CMSIS/Include/cmsis_gcc.h **** #endif
 472:Drivers/CMSIS/Include/cmsis_gcc.h **** 
 473:Drivers/CMSIS/Include/cmsis_gcc.h **** 
 474:Drivers/CMSIS/Include/cmsis_gcc.h **** /**
 475:Drivers/CMSIS/Include/cmsis_gcc.h ****   \brief   Set Priority Mask
 476:Drivers/CMSIS/Include/cmsis_gcc.h ****   \details Assigns the given value to the Priority Mask Register.
 477:Drivers/CMSIS/Include/cmsis_gcc.h ****   \param [in]    priMask  Priority Mask
 478:Drivers/CMSIS/Include/cmsis_gcc.h ****  */
 479:Drivers/CMSIS/Include/cmsis_gcc.h **** __STATIC_FORCEINLINE void __set_PRIMASK(uint32_t priMask)
 480:Drivers/CMSIS/Include/cmsis_gcc.h **** {
 481:Drivers/CMSIS/Include/cmsis_gcc.h ****   __ASM volatile ("MSR primask, %0" : : "r" (priMask) : "memory");
 482:Drivers/CMSIS/Include/cmsis_gcc.h **** }
 483:Drivers/CMSIS/Include/cmsis_gcc.h **** 
 484:Drivers/CMSIS/Include/cmsis_gcc.h **** 
 485:Drivers/CMSIS/Include/cmsis_gcc.h **** #if (defined (__ARM_FEATURE_CMSE ) && (__ARM_FEATURE_CMSE == 3))
 486:Drivers/CMSIS/Include/cmsis_gcc.h **** /**
 487:Drivers/CMSIS/Include/cmsis_gcc.h ****   \brief   Set Priority Mask (non-secure)
 488:Drivers/CMSIS/Include/cmsis_gcc.h ****   \details Assigns the given value to the non-secure Priority Mask Register when in secure state.
 489:Drivers/CMSIS/Include/cmsis_gcc.h ****   \param [in]    priMask  Priority Mask
 490:Drivers/CMSIS/Include/cmsis_gcc.h ****  */
 491:Drivers/CMSIS/Include/cmsis_gcc.h **** __STATIC_FORCEINLINE void __TZ_set_PRIMASK_NS(uint32_t priMask)
 492:Drivers/CMSIS/Include/cmsis_gcc.h **** {
 493:Drivers/CMSIS/Include/cmsis_gcc.h ****   __ASM volatile ("MSR primask_ns, %0" : : "r" (priMask) : "memory");
 494:Drivers/CMSIS/Include/cmsis_gcc.h **** }
 495:Drivers/CMSIS/Include/cmsis_gcc.h **** #endif
 496:Drivers/CMSIS/Include/cmsis_gcc.h **** 
 497:Drivers/CMSIS/Include/cmsis_gcc.h **** 
 498:Drivers/CMSIS/Include/cmsis_gcc.h **** #if ((defined (__ARM_ARCH_7M__      ) && (__ARM_ARCH_7M__      == 1)) || \
 499:Drivers/CMSIS/Include/cmsis_gcc.h ****      (defined (__ARM_ARCH_7EM__     ) && (__ARM_ARCH_7EM__     == 1)) || \
 500:Drivers/CMSIS/Include/cmsis_gcc.h ****      (defined (__ARM_ARCH_8M_MAIN__ ) && (__ARM_ARCH_8M_MAIN__ == 1))    )
 501:Drivers/CMSIS/Include/cmsis_gcc.h **** /**
 502:Drivers/CMSIS/Include/cmsis_gcc.h ****   \brief   Enable FIQ
 503:Drivers/CMSIS/Include/cmsis_gcc.h ****   \details Enables FIQ interrupts by clearing the F-bit in the CPSR.
 504:Drivers/CMSIS/Include/cmsis_gcc.h ****            Can only be executed in Privileged modes.
 505:Drivers/CMSIS/Include/cmsis_gcc.h ****  */
 506:Drivers/CMSIS/Include/cmsis_gcc.h **** __STATIC_FORCEINLINE void __enable_fault_irq(void)
ARM GAS  /tmp/ccMYOmG8.s 			page 24


 507:Drivers/CMSIS/Include/cmsis_gcc.h **** {
 508:Drivers/CMSIS/Include/cmsis_gcc.h ****   __ASM volatile ("cpsie f" : : : "memory");
 509:Drivers/CMSIS/Include/cmsis_gcc.h **** }
 510:Drivers/CMSIS/Include/cmsis_gcc.h **** 
 511:Drivers/CMSIS/Include/cmsis_gcc.h **** 
 512:Drivers/CMSIS/Include/cmsis_gcc.h **** /**
 513:Drivers/CMSIS/Include/cmsis_gcc.h ****   \brief   Disable FIQ
 514:Drivers/CMSIS/Include/cmsis_gcc.h ****   \details Disables FIQ interrupts by setting the F-bit in the CPSR.
 515:Drivers/CMSIS/Include/cmsis_gcc.h ****            Can only be executed in Privileged modes.
 516:Drivers/CMSIS/Include/cmsis_gcc.h ****  */
 517:Drivers/CMSIS/Include/cmsis_gcc.h **** __STATIC_FORCEINLINE void __disable_fault_irq(void)
 518:Drivers/CMSIS/Include/cmsis_gcc.h **** {
 519:Drivers/CMSIS/Include/cmsis_gcc.h ****   __ASM volatile ("cpsid f" : : : "memory");
 520:Drivers/CMSIS/Include/cmsis_gcc.h **** }
 521:Drivers/CMSIS/Include/cmsis_gcc.h **** 
 522:Drivers/CMSIS/Include/cmsis_gcc.h **** 
 523:Drivers/CMSIS/Include/cmsis_gcc.h **** /**
 524:Drivers/CMSIS/Include/cmsis_gcc.h ****   \brief   Get Base Priority
 525:Drivers/CMSIS/Include/cmsis_gcc.h ****   \details Returns the current value of the Base Priority register.
 526:Drivers/CMSIS/Include/cmsis_gcc.h ****   \return               Base Priority register value
 527:Drivers/CMSIS/Include/cmsis_gcc.h ****  */
 528:Drivers/CMSIS/Include/cmsis_gcc.h **** __STATIC_FORCEINLINE uint32_t __get_BASEPRI(void)
 529:Drivers/CMSIS/Include/cmsis_gcc.h **** {
 530:Drivers/CMSIS/Include/cmsis_gcc.h ****   uint32_t result;
 531:Drivers/CMSIS/Include/cmsis_gcc.h **** 
 532:Drivers/CMSIS/Include/cmsis_gcc.h ****   __ASM volatile ("MRS %0, basepri" : "=r" (result) );
 533:Drivers/CMSIS/Include/cmsis_gcc.h ****   return(result);
 534:Drivers/CMSIS/Include/cmsis_gcc.h **** }
 535:Drivers/CMSIS/Include/cmsis_gcc.h **** 
 536:Drivers/CMSIS/Include/cmsis_gcc.h **** 
 537:Drivers/CMSIS/Include/cmsis_gcc.h **** #if (defined (__ARM_FEATURE_CMSE ) && (__ARM_FEATURE_CMSE == 3))
 538:Drivers/CMSIS/Include/cmsis_gcc.h **** /**
 539:Drivers/CMSIS/Include/cmsis_gcc.h ****   \brief   Get Base Priority (non-secure)
 540:Drivers/CMSIS/Include/cmsis_gcc.h ****   \details Returns the current value of the non-secure Base Priority register when in secure state.
 541:Drivers/CMSIS/Include/cmsis_gcc.h ****   \return               Base Priority register value
 542:Drivers/CMSIS/Include/cmsis_gcc.h ****  */
 543:Drivers/CMSIS/Include/cmsis_gcc.h **** __STATIC_FORCEINLINE uint32_t __TZ_get_BASEPRI_NS(void)
 544:Drivers/CMSIS/Include/cmsis_gcc.h **** {
 545:Drivers/CMSIS/Include/cmsis_gcc.h ****   uint32_t result;
 546:Drivers/CMSIS/Include/cmsis_gcc.h **** 
 547:Drivers/CMSIS/Include/cmsis_gcc.h ****   __ASM volatile ("MRS %0, basepri_ns" : "=r" (result) );
 548:Drivers/CMSIS/Include/cmsis_gcc.h ****   return(result);
 549:Drivers/CMSIS/Include/cmsis_gcc.h **** }
 550:Drivers/CMSIS/Include/cmsis_gcc.h **** #endif
 551:Drivers/CMSIS/Include/cmsis_gcc.h **** 
 552:Drivers/CMSIS/Include/cmsis_gcc.h **** 
 553:Drivers/CMSIS/Include/cmsis_gcc.h **** /**
 554:Drivers/CMSIS/Include/cmsis_gcc.h ****   \brief   Set Base Priority
 555:Drivers/CMSIS/Include/cmsis_gcc.h ****   \details Assigns the given value to the Base Priority register.
 556:Drivers/CMSIS/Include/cmsis_gcc.h ****   \param [in]    basePri  Base Priority value to set
 557:Drivers/CMSIS/Include/cmsis_gcc.h ****  */
 558:Drivers/CMSIS/Include/cmsis_gcc.h **** __STATIC_FORCEINLINE void __set_BASEPRI(uint32_t basePri)
 559:Drivers/CMSIS/Include/cmsis_gcc.h **** {
 560:Drivers/CMSIS/Include/cmsis_gcc.h ****   __ASM volatile ("MSR basepri, %0" : : "r" (basePri) : "memory");
 561:Drivers/CMSIS/Include/cmsis_gcc.h **** }
 562:Drivers/CMSIS/Include/cmsis_gcc.h **** 
 563:Drivers/CMSIS/Include/cmsis_gcc.h **** 
ARM GAS  /tmp/ccMYOmG8.s 			page 25


 564:Drivers/CMSIS/Include/cmsis_gcc.h **** #if (defined (__ARM_FEATURE_CMSE ) && (__ARM_FEATURE_CMSE == 3))
 565:Drivers/CMSIS/Include/cmsis_gcc.h **** /**
 566:Drivers/CMSIS/Include/cmsis_gcc.h ****   \brief   Set Base Priority (non-secure)
 567:Drivers/CMSIS/Include/cmsis_gcc.h ****   \details Assigns the given value to the non-secure Base Priority register when in secure state.
 568:Drivers/CMSIS/Include/cmsis_gcc.h ****   \param [in]    basePri  Base Priority value to set
 569:Drivers/CMSIS/Include/cmsis_gcc.h ****  */
 570:Drivers/CMSIS/Include/cmsis_gcc.h **** __STATIC_FORCEINLINE void __TZ_set_BASEPRI_NS(uint32_t basePri)
 571:Drivers/CMSIS/Include/cmsis_gcc.h **** {
 572:Drivers/CMSIS/Include/cmsis_gcc.h ****   __ASM volatile ("MSR basepri_ns, %0" : : "r" (basePri) : "memory");
 573:Drivers/CMSIS/Include/cmsis_gcc.h **** }
 574:Drivers/CMSIS/Include/cmsis_gcc.h **** #endif
 575:Drivers/CMSIS/Include/cmsis_gcc.h **** 
 576:Drivers/CMSIS/Include/cmsis_gcc.h **** 
 577:Drivers/CMSIS/Include/cmsis_gcc.h **** /**
 578:Drivers/CMSIS/Include/cmsis_gcc.h ****   \brief   Set Base Priority with condition
 579:Drivers/CMSIS/Include/cmsis_gcc.h ****   \details Assigns the given value to the Base Priority register only if BASEPRI masking is disable
 580:Drivers/CMSIS/Include/cmsis_gcc.h ****            or the new value increases the BASEPRI priority level.
 581:Drivers/CMSIS/Include/cmsis_gcc.h ****   \param [in]    basePri  Base Priority value to set
 582:Drivers/CMSIS/Include/cmsis_gcc.h ****  */
 583:Drivers/CMSIS/Include/cmsis_gcc.h **** __STATIC_FORCEINLINE void __set_BASEPRI_MAX(uint32_t basePri)
 584:Drivers/CMSIS/Include/cmsis_gcc.h **** {
 585:Drivers/CMSIS/Include/cmsis_gcc.h ****   __ASM volatile ("MSR basepri_max, %0" : : "r" (basePri) : "memory");
 586:Drivers/CMSIS/Include/cmsis_gcc.h **** }
 587:Drivers/CMSIS/Include/cmsis_gcc.h **** 
 588:Drivers/CMSIS/Include/cmsis_gcc.h **** 
 589:Drivers/CMSIS/Include/cmsis_gcc.h **** /**
 590:Drivers/CMSIS/Include/cmsis_gcc.h ****   \brief   Get Fault Mask
 591:Drivers/CMSIS/Include/cmsis_gcc.h ****   \details Returns the current value of the Fault Mask register.
 592:Drivers/CMSIS/Include/cmsis_gcc.h ****   \return               Fault Mask register value
 593:Drivers/CMSIS/Include/cmsis_gcc.h ****  */
 594:Drivers/CMSIS/Include/cmsis_gcc.h **** __STATIC_FORCEINLINE uint32_t __get_FAULTMASK(void)
 595:Drivers/CMSIS/Include/cmsis_gcc.h **** {
 596:Drivers/CMSIS/Include/cmsis_gcc.h ****   uint32_t result;
 597:Drivers/CMSIS/Include/cmsis_gcc.h **** 
 598:Drivers/CMSIS/Include/cmsis_gcc.h ****   __ASM volatile ("MRS %0, faultmask" : "=r" (result) );
 599:Drivers/CMSIS/Include/cmsis_gcc.h ****   return(result);
 600:Drivers/CMSIS/Include/cmsis_gcc.h **** }
 601:Drivers/CMSIS/Include/cmsis_gcc.h **** 
 602:Drivers/CMSIS/Include/cmsis_gcc.h **** 
 603:Drivers/CMSIS/Include/cmsis_gcc.h **** #if (defined (__ARM_FEATURE_CMSE ) && (__ARM_FEATURE_CMSE == 3))
 604:Drivers/CMSIS/Include/cmsis_gcc.h **** /**
 605:Drivers/CMSIS/Include/cmsis_gcc.h ****   \brief   Get Fault Mask (non-secure)
 606:Drivers/CMSIS/Include/cmsis_gcc.h ****   \details Returns the current value of the non-secure Fault Mask register when in secure state.
 607:Drivers/CMSIS/Include/cmsis_gcc.h ****   \return               Fault Mask register value
 608:Drivers/CMSIS/Include/cmsis_gcc.h ****  */
 609:Drivers/CMSIS/Include/cmsis_gcc.h **** __STATIC_FORCEINLINE uint32_t __TZ_get_FAULTMASK_NS(void)
 610:Drivers/CMSIS/Include/cmsis_gcc.h **** {
 611:Drivers/CMSIS/Include/cmsis_gcc.h ****   uint32_t result;
 612:Drivers/CMSIS/Include/cmsis_gcc.h **** 
 613:Drivers/CMSIS/Include/cmsis_gcc.h ****   __ASM volatile ("MRS %0, faultmask_ns" : "=r" (result) );
 614:Drivers/CMSIS/Include/cmsis_gcc.h ****   return(result);
 615:Drivers/CMSIS/Include/cmsis_gcc.h **** }
 616:Drivers/CMSIS/Include/cmsis_gcc.h **** #endif
 617:Drivers/CMSIS/Include/cmsis_gcc.h **** 
 618:Drivers/CMSIS/Include/cmsis_gcc.h **** 
 619:Drivers/CMSIS/Include/cmsis_gcc.h **** /**
 620:Drivers/CMSIS/Include/cmsis_gcc.h ****   \brief   Set Fault Mask
ARM GAS  /tmp/ccMYOmG8.s 			page 26


 621:Drivers/CMSIS/Include/cmsis_gcc.h ****   \details Assigns the given value to the Fault Mask register.
 622:Drivers/CMSIS/Include/cmsis_gcc.h ****   \param [in]    faultMask  Fault Mask value to set
 623:Drivers/CMSIS/Include/cmsis_gcc.h ****  */
 624:Drivers/CMSIS/Include/cmsis_gcc.h **** __STATIC_FORCEINLINE void __set_FAULTMASK(uint32_t faultMask)
 625:Drivers/CMSIS/Include/cmsis_gcc.h **** {
 626:Drivers/CMSIS/Include/cmsis_gcc.h ****   __ASM volatile ("MSR faultmask, %0" : : "r" (faultMask) : "memory");
 627:Drivers/CMSIS/Include/cmsis_gcc.h **** }
 628:Drivers/CMSIS/Include/cmsis_gcc.h **** 
 629:Drivers/CMSIS/Include/cmsis_gcc.h **** 
 630:Drivers/CMSIS/Include/cmsis_gcc.h **** #if (defined (__ARM_FEATURE_CMSE ) && (__ARM_FEATURE_CMSE == 3))
 631:Drivers/CMSIS/Include/cmsis_gcc.h **** /**
 632:Drivers/CMSIS/Include/cmsis_gcc.h ****   \brief   Set Fault Mask (non-secure)
 633:Drivers/CMSIS/Include/cmsis_gcc.h ****   \details Assigns the given value to the non-secure Fault Mask register when in secure state.
 634:Drivers/CMSIS/Include/cmsis_gcc.h ****   \param [in]    faultMask  Fault Mask value to set
 635:Drivers/CMSIS/Include/cmsis_gcc.h ****  */
 636:Drivers/CMSIS/Include/cmsis_gcc.h **** __STATIC_FORCEINLINE void __TZ_set_FAULTMASK_NS(uint32_t faultMask)
 637:Drivers/CMSIS/Include/cmsis_gcc.h **** {
 638:Drivers/CMSIS/Include/cmsis_gcc.h ****   __ASM volatile ("MSR faultmask_ns, %0" : : "r" (faultMask) : "memory");
 639:Drivers/CMSIS/Include/cmsis_gcc.h **** }
 640:Drivers/CMSIS/Include/cmsis_gcc.h **** #endif
 641:Drivers/CMSIS/Include/cmsis_gcc.h **** 
 642:Drivers/CMSIS/Include/cmsis_gcc.h **** #endif /* ((defined (__ARM_ARCH_7M__      ) && (__ARM_ARCH_7M__      == 1)) || \
 643:Drivers/CMSIS/Include/cmsis_gcc.h ****            (defined (__ARM_ARCH_7EM__     ) && (__ARM_ARCH_7EM__     == 1)) || \
 644:Drivers/CMSIS/Include/cmsis_gcc.h ****            (defined (__ARM_ARCH_8M_MAIN__ ) && (__ARM_ARCH_8M_MAIN__ == 1))    ) */
 645:Drivers/CMSIS/Include/cmsis_gcc.h **** 
 646:Drivers/CMSIS/Include/cmsis_gcc.h **** 
 647:Drivers/CMSIS/Include/cmsis_gcc.h **** #if ((defined (__ARM_ARCH_8M_MAIN__ ) && (__ARM_ARCH_8M_MAIN__ == 1)) || \
 648:Drivers/CMSIS/Include/cmsis_gcc.h ****      (defined (__ARM_ARCH_8M_BASE__ ) && (__ARM_ARCH_8M_BASE__ == 1))    )
 649:Drivers/CMSIS/Include/cmsis_gcc.h **** 
 650:Drivers/CMSIS/Include/cmsis_gcc.h **** /**
 651:Drivers/CMSIS/Include/cmsis_gcc.h ****   \brief   Get Process Stack Pointer Limit
 652:Drivers/CMSIS/Include/cmsis_gcc.h ****   Devices without ARMv8-M Main Extensions (i.e. Cortex-M23) lack the non-secure
 653:Drivers/CMSIS/Include/cmsis_gcc.h ****   Stack Pointer Limit register hence zero is returned always in non-secure
 654:Drivers/CMSIS/Include/cmsis_gcc.h ****   mode.
 655:Drivers/CMSIS/Include/cmsis_gcc.h ****   
 656:Drivers/CMSIS/Include/cmsis_gcc.h ****   \details Returns the current value of the Process Stack Pointer Limit (PSPLIM).
 657:Drivers/CMSIS/Include/cmsis_gcc.h ****   \return               PSPLIM Register value
 658:Drivers/CMSIS/Include/cmsis_gcc.h ****  */
 659:Drivers/CMSIS/Include/cmsis_gcc.h **** __STATIC_FORCEINLINE uint32_t __get_PSPLIM(void)
 660:Drivers/CMSIS/Include/cmsis_gcc.h **** {
 661:Drivers/CMSIS/Include/cmsis_gcc.h **** #if (!(defined (__ARM_ARCH_8M_MAIN__ ) && (__ARM_ARCH_8M_MAIN__ == 1)) && \
 662:Drivers/CMSIS/Include/cmsis_gcc.h ****     (!defined (__ARM_FEATURE_CMSE) || (__ARM_FEATURE_CMSE < 3)))
 663:Drivers/CMSIS/Include/cmsis_gcc.h ****     // without main extensions, the non-secure PSPLIM is RAZ/WI
 664:Drivers/CMSIS/Include/cmsis_gcc.h ****   return 0U;
 665:Drivers/CMSIS/Include/cmsis_gcc.h **** #else
 666:Drivers/CMSIS/Include/cmsis_gcc.h ****   uint32_t result;
 667:Drivers/CMSIS/Include/cmsis_gcc.h ****   __ASM volatile ("MRS %0, psplim"  : "=r" (result) );
 668:Drivers/CMSIS/Include/cmsis_gcc.h ****   return result;
 669:Drivers/CMSIS/Include/cmsis_gcc.h **** #endif
 670:Drivers/CMSIS/Include/cmsis_gcc.h **** }
 671:Drivers/CMSIS/Include/cmsis_gcc.h **** 
 672:Drivers/CMSIS/Include/cmsis_gcc.h **** #if (defined (__ARM_FEATURE_CMSE) && (__ARM_FEATURE_CMSE == 3))
 673:Drivers/CMSIS/Include/cmsis_gcc.h **** /**
 674:Drivers/CMSIS/Include/cmsis_gcc.h ****   \brief   Get Process Stack Pointer Limit (non-secure)
 675:Drivers/CMSIS/Include/cmsis_gcc.h ****   Devices without ARMv8-M Main Extensions (i.e. Cortex-M23) lack the non-secure
 676:Drivers/CMSIS/Include/cmsis_gcc.h ****   Stack Pointer Limit register hence zero is returned always.
 677:Drivers/CMSIS/Include/cmsis_gcc.h **** 
ARM GAS  /tmp/ccMYOmG8.s 			page 27


 678:Drivers/CMSIS/Include/cmsis_gcc.h ****   \details Returns the current value of the non-secure Process Stack Pointer Limit (PSPLIM) when in
 679:Drivers/CMSIS/Include/cmsis_gcc.h ****   \return               PSPLIM Register value
 680:Drivers/CMSIS/Include/cmsis_gcc.h ****  */
 681:Drivers/CMSIS/Include/cmsis_gcc.h **** __STATIC_FORCEINLINE uint32_t __TZ_get_PSPLIM_NS(void)
 682:Drivers/CMSIS/Include/cmsis_gcc.h **** {
 683:Drivers/CMSIS/Include/cmsis_gcc.h **** #if (!(defined (__ARM_ARCH_8M_MAIN__ ) && (__ARM_ARCH_8M_MAIN__ == 1)))
 684:Drivers/CMSIS/Include/cmsis_gcc.h ****   // without main extensions, the non-secure PSPLIM is RAZ/WI
 685:Drivers/CMSIS/Include/cmsis_gcc.h ****   return 0U;
 686:Drivers/CMSIS/Include/cmsis_gcc.h **** #else
 687:Drivers/CMSIS/Include/cmsis_gcc.h ****   uint32_t result;
 688:Drivers/CMSIS/Include/cmsis_gcc.h ****   __ASM volatile ("MRS %0, psplim_ns"  : "=r" (result) );
 689:Drivers/CMSIS/Include/cmsis_gcc.h ****   return result;
 690:Drivers/CMSIS/Include/cmsis_gcc.h **** #endif
 691:Drivers/CMSIS/Include/cmsis_gcc.h **** }
 692:Drivers/CMSIS/Include/cmsis_gcc.h **** #endif
 693:Drivers/CMSIS/Include/cmsis_gcc.h **** 
 694:Drivers/CMSIS/Include/cmsis_gcc.h **** 
 695:Drivers/CMSIS/Include/cmsis_gcc.h **** /**
 696:Drivers/CMSIS/Include/cmsis_gcc.h ****   \brief   Set Process Stack Pointer Limit
 697:Drivers/CMSIS/Include/cmsis_gcc.h ****   Devices without ARMv8-M Main Extensions (i.e. Cortex-M23) lack the non-secure
 698:Drivers/CMSIS/Include/cmsis_gcc.h ****   Stack Pointer Limit register hence the write is silently ignored in non-secure
 699:Drivers/CMSIS/Include/cmsis_gcc.h ****   mode.
 700:Drivers/CMSIS/Include/cmsis_gcc.h ****   
 701:Drivers/CMSIS/Include/cmsis_gcc.h ****   \details Assigns the given value to the Process Stack Pointer Limit (PSPLIM).
 702:Drivers/CMSIS/Include/cmsis_gcc.h ****   \param [in]    ProcStackPtrLimit  Process Stack Pointer Limit value to set
 703:Drivers/CMSIS/Include/cmsis_gcc.h ****  */
 704:Drivers/CMSIS/Include/cmsis_gcc.h **** __STATIC_FORCEINLINE void __set_PSPLIM(uint32_t ProcStackPtrLimit)
 705:Drivers/CMSIS/Include/cmsis_gcc.h **** {
 706:Drivers/CMSIS/Include/cmsis_gcc.h **** #if (!(defined (__ARM_ARCH_8M_MAIN__ ) && (__ARM_ARCH_8M_MAIN__ == 1)) && \
 707:Drivers/CMSIS/Include/cmsis_gcc.h ****     (!defined (__ARM_FEATURE_CMSE) || (__ARM_FEATURE_CMSE < 3)))
 708:Drivers/CMSIS/Include/cmsis_gcc.h ****   // without main extensions, the non-secure PSPLIM is RAZ/WI
 709:Drivers/CMSIS/Include/cmsis_gcc.h ****   (void)ProcStackPtrLimit;
 710:Drivers/CMSIS/Include/cmsis_gcc.h **** #else
 711:Drivers/CMSIS/Include/cmsis_gcc.h ****   __ASM volatile ("MSR psplim, %0" : : "r" (ProcStackPtrLimit));
 712:Drivers/CMSIS/Include/cmsis_gcc.h **** #endif
 713:Drivers/CMSIS/Include/cmsis_gcc.h **** }
 714:Drivers/CMSIS/Include/cmsis_gcc.h **** 
 715:Drivers/CMSIS/Include/cmsis_gcc.h **** 
 716:Drivers/CMSIS/Include/cmsis_gcc.h **** #if (defined (__ARM_FEATURE_CMSE  ) && (__ARM_FEATURE_CMSE   == 3))
 717:Drivers/CMSIS/Include/cmsis_gcc.h **** /**
 718:Drivers/CMSIS/Include/cmsis_gcc.h ****   \brief   Set Process Stack Pointer (non-secure)
 719:Drivers/CMSIS/Include/cmsis_gcc.h ****   Devices without ARMv8-M Main Extensions (i.e. Cortex-M23) lack the non-secure
 720:Drivers/CMSIS/Include/cmsis_gcc.h ****   Stack Pointer Limit register hence the write is silently ignored.
 721:Drivers/CMSIS/Include/cmsis_gcc.h **** 
 722:Drivers/CMSIS/Include/cmsis_gcc.h ****   \details Assigns the given value to the non-secure Process Stack Pointer Limit (PSPLIM) when in s
 723:Drivers/CMSIS/Include/cmsis_gcc.h ****   \param [in]    ProcStackPtrLimit  Process Stack Pointer Limit value to set
 724:Drivers/CMSIS/Include/cmsis_gcc.h ****  */
 725:Drivers/CMSIS/Include/cmsis_gcc.h **** __STATIC_FORCEINLINE void __TZ_set_PSPLIM_NS(uint32_t ProcStackPtrLimit)
 726:Drivers/CMSIS/Include/cmsis_gcc.h **** {
 727:Drivers/CMSIS/Include/cmsis_gcc.h **** #if (!(defined (__ARM_ARCH_8M_MAIN__ ) && (__ARM_ARCH_8M_MAIN__ == 1)))
 728:Drivers/CMSIS/Include/cmsis_gcc.h ****   // without main extensions, the non-secure PSPLIM is RAZ/WI
 729:Drivers/CMSIS/Include/cmsis_gcc.h ****   (void)ProcStackPtrLimit;
 730:Drivers/CMSIS/Include/cmsis_gcc.h **** #else
 731:Drivers/CMSIS/Include/cmsis_gcc.h ****   __ASM volatile ("MSR psplim_ns, %0\n" : : "r" (ProcStackPtrLimit));
 732:Drivers/CMSIS/Include/cmsis_gcc.h **** #endif
 733:Drivers/CMSIS/Include/cmsis_gcc.h **** }
 734:Drivers/CMSIS/Include/cmsis_gcc.h **** #endif
ARM GAS  /tmp/ccMYOmG8.s 			page 28


 735:Drivers/CMSIS/Include/cmsis_gcc.h **** 
 736:Drivers/CMSIS/Include/cmsis_gcc.h **** 
 737:Drivers/CMSIS/Include/cmsis_gcc.h **** /**
 738:Drivers/CMSIS/Include/cmsis_gcc.h ****   \brief   Get Main Stack Pointer Limit
 739:Drivers/CMSIS/Include/cmsis_gcc.h ****   Devices without ARMv8-M Main Extensions (i.e. Cortex-M23) lack the non-secure
 740:Drivers/CMSIS/Include/cmsis_gcc.h ****   Stack Pointer Limit register hence zero is returned always in non-secure
 741:Drivers/CMSIS/Include/cmsis_gcc.h ****   mode.
 742:Drivers/CMSIS/Include/cmsis_gcc.h **** 
 743:Drivers/CMSIS/Include/cmsis_gcc.h ****   \details Returns the current value of the Main Stack Pointer Limit (MSPLIM).
 744:Drivers/CMSIS/Include/cmsis_gcc.h ****   \return               MSPLIM Register value
 745:Drivers/CMSIS/Include/cmsis_gcc.h ****  */
 746:Drivers/CMSIS/Include/cmsis_gcc.h **** __STATIC_FORCEINLINE uint32_t __get_MSPLIM(void)
 747:Drivers/CMSIS/Include/cmsis_gcc.h **** {
 748:Drivers/CMSIS/Include/cmsis_gcc.h **** #if (!(defined (__ARM_ARCH_8M_MAIN__ ) && (__ARM_ARCH_8M_MAIN__ == 1)) && \
 749:Drivers/CMSIS/Include/cmsis_gcc.h ****     (!defined (__ARM_FEATURE_CMSE) || (__ARM_FEATURE_CMSE < 3)))
 750:Drivers/CMSIS/Include/cmsis_gcc.h ****   // without main extensions, the non-secure MSPLIM is RAZ/WI
 751:Drivers/CMSIS/Include/cmsis_gcc.h ****   return 0U;
 752:Drivers/CMSIS/Include/cmsis_gcc.h **** #else
 753:Drivers/CMSIS/Include/cmsis_gcc.h ****   uint32_t result;
 754:Drivers/CMSIS/Include/cmsis_gcc.h ****   __ASM volatile ("MRS %0, msplim" : "=r" (result) );
 755:Drivers/CMSIS/Include/cmsis_gcc.h ****   return result;
 756:Drivers/CMSIS/Include/cmsis_gcc.h **** #endif
 757:Drivers/CMSIS/Include/cmsis_gcc.h **** }
 758:Drivers/CMSIS/Include/cmsis_gcc.h **** 
 759:Drivers/CMSIS/Include/cmsis_gcc.h **** 
 760:Drivers/CMSIS/Include/cmsis_gcc.h **** #if (defined (__ARM_FEATURE_CMSE  ) && (__ARM_FEATURE_CMSE   == 3))
 761:Drivers/CMSIS/Include/cmsis_gcc.h **** /**
 762:Drivers/CMSIS/Include/cmsis_gcc.h ****   \brief   Get Main Stack Pointer Limit (non-secure)
 763:Drivers/CMSIS/Include/cmsis_gcc.h ****   Devices without ARMv8-M Main Extensions (i.e. Cortex-M23) lack the non-secure
 764:Drivers/CMSIS/Include/cmsis_gcc.h ****   Stack Pointer Limit register hence zero is returned always.
 765:Drivers/CMSIS/Include/cmsis_gcc.h **** 
 766:Drivers/CMSIS/Include/cmsis_gcc.h ****   \details Returns the current value of the non-secure Main Stack Pointer Limit(MSPLIM) when in sec
 767:Drivers/CMSIS/Include/cmsis_gcc.h ****   \return               MSPLIM Register value
 768:Drivers/CMSIS/Include/cmsis_gcc.h ****  */
 769:Drivers/CMSIS/Include/cmsis_gcc.h **** __STATIC_FORCEINLINE uint32_t __TZ_get_MSPLIM_NS(void)
 770:Drivers/CMSIS/Include/cmsis_gcc.h **** {
 771:Drivers/CMSIS/Include/cmsis_gcc.h **** #if (!(defined (__ARM_ARCH_8M_MAIN__ ) && (__ARM_ARCH_8M_MAIN__ == 1)))
 772:Drivers/CMSIS/Include/cmsis_gcc.h ****   // without main extensions, the non-secure MSPLIM is RAZ/WI
 773:Drivers/CMSIS/Include/cmsis_gcc.h ****   return 0U;
 774:Drivers/CMSIS/Include/cmsis_gcc.h **** #else
 775:Drivers/CMSIS/Include/cmsis_gcc.h ****   uint32_t result;
 776:Drivers/CMSIS/Include/cmsis_gcc.h ****   __ASM volatile ("MRS %0, msplim_ns" : "=r" (result) );
 777:Drivers/CMSIS/Include/cmsis_gcc.h ****   return result;
 778:Drivers/CMSIS/Include/cmsis_gcc.h **** #endif
 779:Drivers/CMSIS/Include/cmsis_gcc.h **** }
 780:Drivers/CMSIS/Include/cmsis_gcc.h **** #endif
 781:Drivers/CMSIS/Include/cmsis_gcc.h **** 
 782:Drivers/CMSIS/Include/cmsis_gcc.h **** 
 783:Drivers/CMSIS/Include/cmsis_gcc.h **** /**
 784:Drivers/CMSIS/Include/cmsis_gcc.h ****   \brief   Set Main Stack Pointer Limit
 785:Drivers/CMSIS/Include/cmsis_gcc.h ****   Devices without ARMv8-M Main Extensions (i.e. Cortex-M23) lack the non-secure
 786:Drivers/CMSIS/Include/cmsis_gcc.h ****   Stack Pointer Limit register hence the write is silently ignored in non-secure
 787:Drivers/CMSIS/Include/cmsis_gcc.h ****   mode.
 788:Drivers/CMSIS/Include/cmsis_gcc.h **** 
 789:Drivers/CMSIS/Include/cmsis_gcc.h ****   \details Assigns the given value to the Main Stack Pointer Limit (MSPLIM).
 790:Drivers/CMSIS/Include/cmsis_gcc.h ****   \param [in]    MainStackPtrLimit  Main Stack Pointer Limit value to set
 791:Drivers/CMSIS/Include/cmsis_gcc.h ****  */
ARM GAS  /tmp/ccMYOmG8.s 			page 29


 792:Drivers/CMSIS/Include/cmsis_gcc.h **** __STATIC_FORCEINLINE void __set_MSPLIM(uint32_t MainStackPtrLimit)
 793:Drivers/CMSIS/Include/cmsis_gcc.h **** {
 794:Drivers/CMSIS/Include/cmsis_gcc.h **** #if (!(defined (__ARM_ARCH_8M_MAIN__ ) && (__ARM_ARCH_8M_MAIN__ == 1)) && \
 795:Drivers/CMSIS/Include/cmsis_gcc.h ****     (!defined (__ARM_FEATURE_CMSE) || (__ARM_FEATURE_CMSE < 3)))
 796:Drivers/CMSIS/Include/cmsis_gcc.h ****   // without main extensions, the non-secure MSPLIM is RAZ/WI
 797:Drivers/CMSIS/Include/cmsis_gcc.h ****   (void)MainStackPtrLimit;
 798:Drivers/CMSIS/Include/cmsis_gcc.h **** #else
 799:Drivers/CMSIS/Include/cmsis_gcc.h ****   __ASM volatile ("MSR msplim, %0" : : "r" (MainStackPtrLimit));
 800:Drivers/CMSIS/Include/cmsis_gcc.h **** #endif
 801:Drivers/CMSIS/Include/cmsis_gcc.h **** }
 802:Drivers/CMSIS/Include/cmsis_gcc.h **** 
 803:Drivers/CMSIS/Include/cmsis_gcc.h **** 
 804:Drivers/CMSIS/Include/cmsis_gcc.h **** #if (defined (__ARM_FEATURE_CMSE  ) && (__ARM_FEATURE_CMSE   == 3))
 805:Drivers/CMSIS/Include/cmsis_gcc.h **** /**
 806:Drivers/CMSIS/Include/cmsis_gcc.h ****   \brief   Set Main Stack Pointer Limit (non-secure)
 807:Drivers/CMSIS/Include/cmsis_gcc.h ****   Devices without ARMv8-M Main Extensions (i.e. Cortex-M23) lack the non-secure
 808:Drivers/CMSIS/Include/cmsis_gcc.h ****   Stack Pointer Limit register hence the write is silently ignored.
 809:Drivers/CMSIS/Include/cmsis_gcc.h **** 
 810:Drivers/CMSIS/Include/cmsis_gcc.h ****   \details Assigns the given value to the non-secure Main Stack Pointer Limit (MSPLIM) when in secu
 811:Drivers/CMSIS/Include/cmsis_gcc.h ****   \param [in]    MainStackPtrLimit  Main Stack Pointer value to set
 812:Drivers/CMSIS/Include/cmsis_gcc.h ****  */
 813:Drivers/CMSIS/Include/cmsis_gcc.h **** __STATIC_FORCEINLINE void __TZ_set_MSPLIM_NS(uint32_t MainStackPtrLimit)
 814:Drivers/CMSIS/Include/cmsis_gcc.h **** {
 815:Drivers/CMSIS/Include/cmsis_gcc.h **** #if (!(defined (__ARM_ARCH_8M_MAIN__ ) && (__ARM_ARCH_8M_MAIN__ == 1)))
 816:Drivers/CMSIS/Include/cmsis_gcc.h ****   // without main extensions, the non-secure MSPLIM is RAZ/WI
 817:Drivers/CMSIS/Include/cmsis_gcc.h ****   (void)MainStackPtrLimit;
 818:Drivers/CMSIS/Include/cmsis_gcc.h **** #else
 819:Drivers/CMSIS/Include/cmsis_gcc.h ****   __ASM volatile ("MSR msplim_ns, %0" : : "r" (MainStackPtrLimit));
 820:Drivers/CMSIS/Include/cmsis_gcc.h **** #endif
 821:Drivers/CMSIS/Include/cmsis_gcc.h **** }
 822:Drivers/CMSIS/Include/cmsis_gcc.h **** #endif
 823:Drivers/CMSIS/Include/cmsis_gcc.h **** 
 824:Drivers/CMSIS/Include/cmsis_gcc.h **** #endif /* ((defined (__ARM_ARCH_8M_MAIN__ ) && (__ARM_ARCH_8M_MAIN__ == 1)) || \
 825:Drivers/CMSIS/Include/cmsis_gcc.h ****            (defined (__ARM_ARCH_8M_BASE__ ) && (__ARM_ARCH_8M_BASE__ == 1))    ) */
 826:Drivers/CMSIS/Include/cmsis_gcc.h **** 
 827:Drivers/CMSIS/Include/cmsis_gcc.h **** 
 828:Drivers/CMSIS/Include/cmsis_gcc.h **** /**
 829:Drivers/CMSIS/Include/cmsis_gcc.h ****   \brief   Get FPSCR
 830:Drivers/CMSIS/Include/cmsis_gcc.h ****   \details Returns the current value of the Floating Point Status/Control register.
 831:Drivers/CMSIS/Include/cmsis_gcc.h ****   \return               Floating Point Status/Control register value
 832:Drivers/CMSIS/Include/cmsis_gcc.h ****  */
 833:Drivers/CMSIS/Include/cmsis_gcc.h **** __STATIC_FORCEINLINE uint32_t __get_FPSCR(void)
 834:Drivers/CMSIS/Include/cmsis_gcc.h **** {
 835:Drivers/CMSIS/Include/cmsis_gcc.h **** #if ((defined (__FPU_PRESENT) && (__FPU_PRESENT == 1U)) && \
 836:Drivers/CMSIS/Include/cmsis_gcc.h ****      (defined (__FPU_USED   ) && (__FPU_USED    == 1U))     )
 837:Drivers/CMSIS/Include/cmsis_gcc.h **** #if __has_builtin(__builtin_arm_get_fpscr) 
 838:Drivers/CMSIS/Include/cmsis_gcc.h **** // Re-enable using built-in when GCC has been fixed
 839:Drivers/CMSIS/Include/cmsis_gcc.h **** // || (__GNUC__ > 7) || (__GNUC__ == 7 && __GNUC_MINOR__ >= 2)
 840:Drivers/CMSIS/Include/cmsis_gcc.h ****   /* see https://gcc.gnu.org/ml/gcc-patches/2017-04/msg00443.html */
 841:Drivers/CMSIS/Include/cmsis_gcc.h ****   return __builtin_arm_get_fpscr();
 842:Drivers/CMSIS/Include/cmsis_gcc.h **** #else
 843:Drivers/CMSIS/Include/cmsis_gcc.h ****   uint32_t result;
 844:Drivers/CMSIS/Include/cmsis_gcc.h **** 
 845:Drivers/CMSIS/Include/cmsis_gcc.h ****   __ASM volatile ("VMRS %0, fpscr" : "=r" (result) );
 846:Drivers/CMSIS/Include/cmsis_gcc.h ****   return(result);
 847:Drivers/CMSIS/Include/cmsis_gcc.h **** #endif
 848:Drivers/CMSIS/Include/cmsis_gcc.h **** #else
ARM GAS  /tmp/ccMYOmG8.s 			page 30


 849:Drivers/CMSIS/Include/cmsis_gcc.h ****   return(0U);
 850:Drivers/CMSIS/Include/cmsis_gcc.h **** #endif
 851:Drivers/CMSIS/Include/cmsis_gcc.h **** }
 852:Drivers/CMSIS/Include/cmsis_gcc.h **** 
 853:Drivers/CMSIS/Include/cmsis_gcc.h **** 
 854:Drivers/CMSIS/Include/cmsis_gcc.h **** /**
 855:Drivers/CMSIS/Include/cmsis_gcc.h ****   \brief   Set FPSCR
 856:Drivers/CMSIS/Include/cmsis_gcc.h ****   \details Assigns the given value to the Floating Point Status/Control register.
 857:Drivers/CMSIS/Include/cmsis_gcc.h ****   \param [in]    fpscr  Floating Point Status/Control value to set
 858:Drivers/CMSIS/Include/cmsis_gcc.h ****  */
 859:Drivers/CMSIS/Include/cmsis_gcc.h **** __STATIC_FORCEINLINE void __set_FPSCR(uint32_t fpscr)
 860:Drivers/CMSIS/Include/cmsis_gcc.h **** {
 861:Drivers/CMSIS/Include/cmsis_gcc.h **** #if ((defined (__FPU_PRESENT) && (__FPU_PRESENT == 1U)) && \
 862:Drivers/CMSIS/Include/cmsis_gcc.h ****      (defined (__FPU_USED   ) && (__FPU_USED    == 1U))     )
 863:Drivers/CMSIS/Include/cmsis_gcc.h **** #if __has_builtin(__builtin_arm_set_fpscr)
 864:Drivers/CMSIS/Include/cmsis_gcc.h **** // Re-enable using built-in when GCC has been fixed
 865:Drivers/CMSIS/Include/cmsis_gcc.h **** // || (__GNUC__ > 7) || (__GNUC__ == 7 && __GNUC_MINOR__ >= 2)
 866:Drivers/CMSIS/Include/cmsis_gcc.h ****   /* see https://gcc.gnu.org/ml/gcc-patches/2017-04/msg00443.html */
 867:Drivers/CMSIS/Include/cmsis_gcc.h ****   __builtin_arm_set_fpscr(fpscr);
 868:Drivers/CMSIS/Include/cmsis_gcc.h **** #else
 869:Drivers/CMSIS/Include/cmsis_gcc.h ****   __ASM volatile ("VMSR fpscr, %0" : : "r" (fpscr) : "vfpcc", "memory");
 870:Drivers/CMSIS/Include/cmsis_gcc.h **** #endif
 871:Drivers/CMSIS/Include/cmsis_gcc.h **** #else
 872:Drivers/CMSIS/Include/cmsis_gcc.h ****   (void)fpscr;
 873:Drivers/CMSIS/Include/cmsis_gcc.h **** #endif
 874:Drivers/CMSIS/Include/cmsis_gcc.h **** }
 875:Drivers/CMSIS/Include/cmsis_gcc.h **** 
 876:Drivers/CMSIS/Include/cmsis_gcc.h **** 
 877:Drivers/CMSIS/Include/cmsis_gcc.h **** /*@} end of CMSIS_Core_RegAccFunctions */
 878:Drivers/CMSIS/Include/cmsis_gcc.h **** 
 879:Drivers/CMSIS/Include/cmsis_gcc.h **** 
 880:Drivers/CMSIS/Include/cmsis_gcc.h **** /* ##########################  Core Instruction Access  ######################### */
 881:Drivers/CMSIS/Include/cmsis_gcc.h **** /** \defgroup CMSIS_Core_InstructionInterface CMSIS Core Instruction Interface
 882:Drivers/CMSIS/Include/cmsis_gcc.h ****   Access to dedicated instructions
 883:Drivers/CMSIS/Include/cmsis_gcc.h ****   @{
 884:Drivers/CMSIS/Include/cmsis_gcc.h **** */
 885:Drivers/CMSIS/Include/cmsis_gcc.h **** 
 886:Drivers/CMSIS/Include/cmsis_gcc.h **** /* Define macros for porting to both thumb1 and thumb2.
 887:Drivers/CMSIS/Include/cmsis_gcc.h ****  * For thumb1, use low register (r0-r7), specified by constraint "l"
 888:Drivers/CMSIS/Include/cmsis_gcc.h ****  * Otherwise, use general registers, specified by constraint "r" */
 889:Drivers/CMSIS/Include/cmsis_gcc.h **** #if defined (__thumb__) && !defined (__thumb2__)
 890:Drivers/CMSIS/Include/cmsis_gcc.h **** #define __CMSIS_GCC_OUT_REG(r) "=l" (r)
 891:Drivers/CMSIS/Include/cmsis_gcc.h **** #define __CMSIS_GCC_RW_REG(r) "+l" (r)
 892:Drivers/CMSIS/Include/cmsis_gcc.h **** #define __CMSIS_GCC_USE_REG(r) "l" (r)
 893:Drivers/CMSIS/Include/cmsis_gcc.h **** #else
 894:Drivers/CMSIS/Include/cmsis_gcc.h **** #define __CMSIS_GCC_OUT_REG(r) "=r" (r)
 895:Drivers/CMSIS/Include/cmsis_gcc.h **** #define __CMSIS_GCC_RW_REG(r) "+r" (r)
 896:Drivers/CMSIS/Include/cmsis_gcc.h **** #define __CMSIS_GCC_USE_REG(r) "r" (r)
 897:Drivers/CMSIS/Include/cmsis_gcc.h **** #endif
 898:Drivers/CMSIS/Include/cmsis_gcc.h **** 
 899:Drivers/CMSIS/Include/cmsis_gcc.h **** /**
 900:Drivers/CMSIS/Include/cmsis_gcc.h ****   \brief   No Operation
 901:Drivers/CMSIS/Include/cmsis_gcc.h ****   \details No Operation does nothing. This instruction can be used for code alignment purposes.
 902:Drivers/CMSIS/Include/cmsis_gcc.h ****  */
 903:Drivers/CMSIS/Include/cmsis_gcc.h **** #define __NOP()                             __ASM volatile ("nop")
 904:Drivers/CMSIS/Include/cmsis_gcc.h **** 
 905:Drivers/CMSIS/Include/cmsis_gcc.h **** /**
ARM GAS  /tmp/ccMYOmG8.s 			page 31


 906:Drivers/CMSIS/Include/cmsis_gcc.h ****   \brief   Wait For Interrupt
 907:Drivers/CMSIS/Include/cmsis_gcc.h ****   \details Wait For Interrupt is a hint instruction that suspends execution until one of a number o
 908:Drivers/CMSIS/Include/cmsis_gcc.h ****  */
 909:Drivers/CMSIS/Include/cmsis_gcc.h **** #define __WFI()                             __ASM volatile ("wfi")
 910:Drivers/CMSIS/Include/cmsis_gcc.h **** 
 911:Drivers/CMSIS/Include/cmsis_gcc.h **** 
 912:Drivers/CMSIS/Include/cmsis_gcc.h **** /**
 913:Drivers/CMSIS/Include/cmsis_gcc.h ****   \brief   Wait For Event
 914:Drivers/CMSIS/Include/cmsis_gcc.h ****   \details Wait For Event is a hint instruction that permits the processor to enter
 915:Drivers/CMSIS/Include/cmsis_gcc.h ****            a low-power state until one of a number of events occurs.
 916:Drivers/CMSIS/Include/cmsis_gcc.h ****  */
 917:Drivers/CMSIS/Include/cmsis_gcc.h **** #define __WFE()                             __ASM volatile ("wfe")
 918:Drivers/CMSIS/Include/cmsis_gcc.h **** 
 919:Drivers/CMSIS/Include/cmsis_gcc.h **** 
 920:Drivers/CMSIS/Include/cmsis_gcc.h **** /**
 921:Drivers/CMSIS/Include/cmsis_gcc.h ****   \brief   Send Event
 922:Drivers/CMSIS/Include/cmsis_gcc.h ****   \details Send Event is a hint instruction. It causes an event to be signaled to the CPU.
 923:Drivers/CMSIS/Include/cmsis_gcc.h ****  */
 924:Drivers/CMSIS/Include/cmsis_gcc.h **** #define __SEV()                             __ASM volatile ("sev")
 925:Drivers/CMSIS/Include/cmsis_gcc.h **** 
 926:Drivers/CMSIS/Include/cmsis_gcc.h **** 
 927:Drivers/CMSIS/Include/cmsis_gcc.h **** /**
 928:Drivers/CMSIS/Include/cmsis_gcc.h ****   \brief   Instruction Synchronization Barrier
 929:Drivers/CMSIS/Include/cmsis_gcc.h ****   \details Instruction Synchronization Barrier flushes the pipeline in the processor,
 930:Drivers/CMSIS/Include/cmsis_gcc.h ****            so that all instructions following the ISB are fetched from cache or memory,
 931:Drivers/CMSIS/Include/cmsis_gcc.h ****            after the instruction has been completed.
 932:Drivers/CMSIS/Include/cmsis_gcc.h ****  */
 933:Drivers/CMSIS/Include/cmsis_gcc.h **** __STATIC_FORCEINLINE void __ISB(void)
  90              		.loc 2 933 27 view .LVU12
  91              	.LBB11:
 934:Drivers/CMSIS/Include/cmsis_gcc.h **** {
 935:Drivers/CMSIS/Include/cmsis_gcc.h ****   __ASM volatile ("isb 0xF":::"memory");
  92              		.loc 2 935 3 view .LVU13
  93              		.syntax unified
  94              	@ 935 "Drivers/CMSIS/Include/cmsis_gcc.h" 1
  95 0046 BFF36F8F 		isb 0xF
  96              	@ 0 "" 2
  97              		.thumb
  98              		.syntax unified
  99              	.LBE11:
 100              	.LBE10:
 714:Drivers/STM32G4xx_HAL_Driver/Src/stm32g4xx_hal_flash.c **** 
 715:Drivers/STM32G4xx_HAL_Driver/Src/stm32g4xx_hal_flash.c ****   /* Program second word */
 716:Drivers/STM32G4xx_HAL_Driver/Src/stm32g4xx_hal_flash.c ****   *(uint32_t *)(Address + 4U) = (uint32_t)(Data >> 32U);
 101              		.loc 1 716 3 view .LVU14
 102              		.loc 1 716 31 is_stmt 0 view .LVU15
 103 004a 6560     		str	r5, [r4, #4]
 717:Drivers/STM32G4xx_HAL_Driver/Src/stm32g4xx_hal_flash.c **** }
 104              		.loc 1 717 1 view .LVU16
 105 004c 70BD     		pop	{r4, r5, r6, pc}
 106              	.LVL3:
 107              	.L5:
 703:Drivers/STM32G4xx_HAL_Driver/Src/stm32g4xx_hal_flash.c **** 
 108              		.loc 1 703 3 view .LVU17
 109 004e 074B     		ldr	r3, .L8+12
 110 0050 EAE7     		b	.L3
 111              	.L7:
ARM GAS  /tmp/ccMYOmG8.s 			page 32


 703:Drivers/STM32G4xx_HAL_Driver/Src/stm32g4xx_hal_flash.c **** 
 112              		.loc 1 703 3 discriminator 8 view .LVU18
 113 0052 40F2BF21 		movw	r1, #703
 114 0056 0648     		ldr	r0, .L8+16
 115              	.LVL4:
 703:Drivers/STM32G4xx_HAL_Driver/Src/stm32g4xx_hal_flash.c **** 
 116              		.loc 1 703 3 discriminator 8 view .LVU19
 117 0058 FFF7FEFF 		bl	assert_failed
 118              	.LVL5:
 119 005c EDE7     		b	.L4
 120              	.L9:
 121 005e 00BF     		.align	2
 122              	.L8:
 123 0060 E075FF1F 		.word	536835552
 124 0064 00FCFF03 		.word	67107840
 125 0068 00200240 		.word	1073881088
 126 006c 00000808 		.word	134742016
 127 0070 00000000 		.word	.LC0
 128              		.cfi_endproc
 129              	.LFE144:
 131              		.section	.text.FLASH_Program_Fast,"ax",%progbits
 132              		.align	1
 133              		.syntax unified
 134              		.thumb
 135              		.thumb_func
 136              		.fpu fpv4-sp-d16
 138              	FLASH_Program_Fast:
 139              	.LVL6:
 140              	.LFB145:
 718:Drivers/STM32G4xx_HAL_Driver/Src/stm32g4xx_hal_flash.c **** 
 719:Drivers/STM32G4xx_HAL_Driver/Src/stm32g4xx_hal_flash.c **** /**
 720:Drivers/STM32G4xx_HAL_Driver/Src/stm32g4xx_hal_flash.c ****   * @brief  Fast program a row double-word (64-bit) at a specified address.
 721:Drivers/STM32G4xx_HAL_Driver/Src/stm32g4xx_hal_flash.c ****   * @param  Address specifies the address to be programmed.
 722:Drivers/STM32G4xx_HAL_Driver/Src/stm32g4xx_hal_flash.c ****   * @param  DataAddress specifies the address where the data are stored.
 723:Drivers/STM32G4xx_HAL_Driver/Src/stm32g4xx_hal_flash.c ****   * @retval None
 724:Drivers/STM32G4xx_HAL_Driver/Src/stm32g4xx_hal_flash.c ****   */
 725:Drivers/STM32G4xx_HAL_Driver/Src/stm32g4xx_hal_flash.c **** static void FLASH_Program_Fast(uint32_t Address, uint32_t DataAddress)
 726:Drivers/STM32G4xx_HAL_Driver/Src/stm32g4xx_hal_flash.c **** {
 141              		.loc 1 726 1 is_stmt 1 view -0
 142              		.cfi_startproc
 143              		@ args = 0, pretend = 0, frame = 0
 144              		@ frame_needed = 0, uses_anonymous_args = 0
 145              		.loc 1 726 1 is_stmt 0 view .LVU21
 146 0000 38B5     		push	{r3, r4, r5, lr}
 147              	.LCFI1:
 148              		.cfi_def_cfa_offset 16
 149              		.cfi_offset 3, -16
 150              		.cfi_offset 4, -12
 151              		.cfi_offset 5, -8
 152              		.cfi_offset 14, -4
 727:Drivers/STM32G4xx_HAL_Driver/Src/stm32g4xx_hal_flash.c ****   uint8_t row_index = (2 * FLASH_NB_DOUBLE_WORDS_IN_ROW);
 153              		.loc 1 727 3 is_stmt 1 view .LVU22
 154              	.LVL7:
 728:Drivers/STM32G4xx_HAL_Driver/Src/stm32g4xx_hal_flash.c ****   uint32_t *dest_addr = (uint32_t *)Address;
 155              		.loc 1 728 3 view .LVU23
 156              		.loc 1 728 13 is_stmt 0 view .LVU24
 157 0002 0546     		mov	r5, r0
ARM GAS  /tmp/ccMYOmG8.s 			page 33


 158              	.LVL8:
 729:Drivers/STM32G4xx_HAL_Driver/Src/stm32g4xx_hal_flash.c ****   uint32_t *src_addr = (uint32_t *)DataAddress;
 159              		.loc 1 729 3 is_stmt 1 view .LVU25
 160              		.loc 1 729 13 is_stmt 0 view .LVU26
 161 0004 0C46     		mov	r4, r1
 162              	.LVL9:
 730:Drivers/STM32G4xx_HAL_Driver/Src/stm32g4xx_hal_flash.c ****   uint32_t primask_bit;
 163              		.loc 1 730 3 is_stmt 1 view .LVU27
 731:Drivers/STM32G4xx_HAL_Driver/Src/stm32g4xx_hal_flash.c **** 
 732:Drivers/STM32G4xx_HAL_Driver/Src/stm32g4xx_hal_flash.c ****   /* Check the parameters */
 733:Drivers/STM32G4xx_HAL_Driver/Src/stm32g4xx_hal_flash.c ****   assert_param(IS_FLASH_MAIN_MEM_ADDRESS(Address));
 164              		.loc 1 733 3 view .LVU28
 165 0006 B0F1006F 		cmp	r0, #134217728
 166 000a 0ED3     		bcc	.L11
 167              		.loc 1 733 3 is_stmt 0 discriminator 2 view .LVU29
 168 000c 144B     		ldr	r3, .L17
 169 000e 1A88     		ldrh	r2, [r3]
 170 0010 4FF6FF73 		movw	r3, #65535
 171 0014 9A42     		cmp	r2, r3
 172 0016 21D0     		beq	.L15
 173              		.loc 1 733 3 discriminator 3 view .LVU30
 174 0018 114B     		ldr	r3, .L17
 175 001a 1A68     		ldr	r2, [r3]
 176 001c 114B     		ldr	r3, .L17+4
 177 001e 03EA8223 		and	r3, r3, r2, lsl #10
 178 0022 03F10063 		add	r3, r3, #134217728
 179              	.L12:
 180              		.loc 1 733 3 discriminator 6 view .LVU31
 181 0026 8342     		cmp	r3, r0
 182 0028 04D8     		bhi	.L13
 183              	.L11:
 184              		.loc 1 733 3 discriminator 7 view .LVU32
 185 002a 40F2DD21 		movw	r1, #733
 186              	.LVL10:
 187              		.loc 1 733 3 discriminator 7 view .LVU33
 188 002e 0E48     		ldr	r0, .L17+8
 189              	.LVL11:
 190              		.loc 1 733 3 discriminator 7 view .LVU34
 191 0030 FFF7FEFF 		bl	assert_failed
 192              	.LVL12:
 193              	.L13:
 734:Drivers/STM32G4xx_HAL_Driver/Src/stm32g4xx_hal_flash.c **** 
 735:Drivers/STM32G4xx_HAL_Driver/Src/stm32g4xx_hal_flash.c ****   /* Set FSTPG bit */
 736:Drivers/STM32G4xx_HAL_Driver/Src/stm32g4xx_hal_flash.c ****   SET_BIT(FLASH->CR, FLASH_CR_FSTPG);
 194              		.loc 1 736 3 is_stmt 1 view .LVU35
 195 0034 0D4A     		ldr	r2, .L17+12
 196 0036 5369     		ldr	r3, [r2, #20]
 197 0038 43F48023 		orr	r3, r3, #262144
 198 003c 5361     		str	r3, [r2, #20]
 737:Drivers/STM32G4xx_HAL_Driver/Src/stm32g4xx_hal_flash.c **** 
 738:Drivers/STM32G4xx_HAL_Driver/Src/stm32g4xx_hal_flash.c ****   /* Enter critical section: Disable interrupts to avoid any interruption during the loop */
 739:Drivers/STM32G4xx_HAL_Driver/Src/stm32g4xx_hal_flash.c ****   primask_bit = __get_PRIMASK();
 199              		.loc 1 739 3 view .LVU36
 200              	.LBB12:
 201              	.LBI12:
 449:Drivers/CMSIS/Include/cmsis_gcc.h **** {
 202              		.loc 2 449 31 view .LVU37
ARM GAS  /tmp/ccMYOmG8.s 			page 34


 203              	.LBB13:
 451:Drivers/CMSIS/Include/cmsis_gcc.h **** 
 204              		.loc 2 451 3 view .LVU38
 453:Drivers/CMSIS/Include/cmsis_gcc.h ****   return(result);
 205              		.loc 2 453 3 view .LVU39
 206              		.syntax unified
 207              	@ 453 "Drivers/CMSIS/Include/cmsis_gcc.h" 1
 208 003e EFF31081 		MRS r1, primask
 209              	@ 0 "" 2
 210              	.LVL13:
 454:Drivers/CMSIS/Include/cmsis_gcc.h **** }
 211              		.loc 2 454 3 view .LVU40
 454:Drivers/CMSIS/Include/cmsis_gcc.h **** }
 212              		.loc 2 454 3 is_stmt 0 view .LVU41
 213              		.thumb
 214              		.syntax unified
 215              	.LBE13:
 216              	.LBE12:
 740:Drivers/STM32G4xx_HAL_Driver/Src/stm32g4xx_hal_flash.c ****   __disable_irq();
 217              		.loc 1 740 3 is_stmt 1 view .LVU42
 218              	.LBB14:
 219              	.LBI14:
 207:Drivers/CMSIS/Include/cmsis_gcc.h **** {
 220              		.loc 2 207 27 view .LVU43
 221              	.LBB15:
 209:Drivers/CMSIS/Include/cmsis_gcc.h **** }
 222              		.loc 2 209 3 view .LVU44
 223              		.syntax unified
 224              	@ 209 "Drivers/CMSIS/Include/cmsis_gcc.h" 1
 225 0042 72B6     		cpsid i
 226              	@ 0 "" 2
 227              		.thumb
 228              		.syntax unified
 229              	.LBE15:
 230              	.LBE14:
 727:Drivers/STM32G4xx_HAL_Driver/Src/stm32g4xx_hal_flash.c ****   uint32_t *dest_addr = (uint32_t *)Address;
 231              		.loc 1 727 11 is_stmt 0 view .LVU45
 232 0044 4023     		movs	r3, #64
 233              	.LVL14:
 234              	.L14:
 741:Drivers/STM32G4xx_HAL_Driver/Src/stm32g4xx_hal_flash.c **** 
 742:Drivers/STM32G4xx_HAL_Driver/Src/stm32g4xx_hal_flash.c ****   /* Program the double words of the row */
 743:Drivers/STM32G4xx_HAL_Driver/Src/stm32g4xx_hal_flash.c ****   do
 235              		.loc 1 743 3 is_stmt 1 discriminator 1 view .LVU46
 744:Drivers/STM32G4xx_HAL_Driver/Src/stm32g4xx_hal_flash.c ****   {
 745:Drivers/STM32G4xx_HAL_Driver/Src/stm32g4xx_hal_flash.c ****     *dest_addr = *src_addr;
 236              		.loc 1 745 5 discriminator 1 view .LVU47
 237              		.loc 1 745 18 is_stmt 0 discriminator 1 view .LVU48
 238 0046 54F8042B 		ldr	r2, [r4], #4
 239              	.LVL15:
 240              		.loc 1 745 16 discriminator 1 view .LVU49
 241 004a 45F8042B 		str	r2, [r5], #4
 242              	.LVL16:
 746:Drivers/STM32G4xx_HAL_Driver/Src/stm32g4xx_hal_flash.c ****     dest_addr++;
 243              		.loc 1 746 5 is_stmt 1 discriminator 1 view .LVU50
 747:Drivers/STM32G4xx_HAL_Driver/Src/stm32g4xx_hal_flash.c ****     src_addr++;
 244              		.loc 1 747 5 discriminator 1 view .LVU51
ARM GAS  /tmp/ccMYOmG8.s 			page 35


 748:Drivers/STM32G4xx_HAL_Driver/Src/stm32g4xx_hal_flash.c ****     row_index--;
 245              		.loc 1 748 5 discriminator 1 view .LVU52
 246              		.loc 1 748 14 is_stmt 0 discriminator 1 view .LVU53
 247 004e 013B     		subs	r3, r3, #1
 248              	.LVL17:
 749:Drivers/STM32G4xx_HAL_Driver/Src/stm32g4xx_hal_flash.c ****   }
 750:Drivers/STM32G4xx_HAL_Driver/Src/stm32g4xx_hal_flash.c ****   while (row_index != 0U);
 249              		.loc 1 750 9 is_stmt 1 discriminator 1 view .LVU54
 250              		.loc 1 750 3 is_stmt 0 discriminator 1 view .LVU55
 251 0050 13F0FF03 		ands	r3, r3, #255
 252              	.LVL18:
 253              		.loc 1 750 3 discriminator 1 view .LVU56
 254 0054 F7D1     		bne	.L14
 751:Drivers/STM32G4xx_HAL_Driver/Src/stm32g4xx_hal_flash.c **** 
 752:Drivers/STM32G4xx_HAL_Driver/Src/stm32g4xx_hal_flash.c ****   /* Exit critical section: restore previous priority mask */
 753:Drivers/STM32G4xx_HAL_Driver/Src/stm32g4xx_hal_flash.c ****   __set_PRIMASK(primask_bit);
 255              		.loc 1 753 3 is_stmt 1 view .LVU57
 256              	.LVL19:
 257              	.LBB16:
 258              	.LBI16:
 479:Drivers/CMSIS/Include/cmsis_gcc.h **** {
 259              		.loc 2 479 27 view .LVU58
 260              	.LBB17:
 481:Drivers/CMSIS/Include/cmsis_gcc.h **** }
 261              		.loc 2 481 3 view .LVU59
 262              		.syntax unified
 263              	@ 481 "Drivers/CMSIS/Include/cmsis_gcc.h" 1
 264 0056 81F31088 		MSR primask, r1
 265              	@ 0 "" 2
 266              	.LVL20:
 481:Drivers/CMSIS/Include/cmsis_gcc.h **** }
 267              		.loc 2 481 3 is_stmt 0 view .LVU60
 268              		.thumb
 269              		.syntax unified
 270              	.LBE17:
 271              	.LBE16:
 754:Drivers/STM32G4xx_HAL_Driver/Src/stm32g4xx_hal_flash.c **** }
 272              		.loc 1 754 1 view .LVU61
 273 005a 38BD     		pop	{r3, r4, r5, pc}
 274              	.LVL21:
 275              	.L15:
 733:Drivers/STM32G4xx_HAL_Driver/Src/stm32g4xx_hal_flash.c **** 
 276              		.loc 1 733 3 view .LVU62
 277 005c 044B     		ldr	r3, .L17+16
 278 005e E2E7     		b	.L12
 279              	.L18:
 280              		.align	2
 281              	.L17:
 282 0060 E075FF1F 		.word	536835552
 283 0064 00FCFF03 		.word	67107840
 284 0068 00000000 		.word	.LC0
 285 006c 00200240 		.word	1073881088
 286 0070 00000808 		.word	134742016
 287              		.cfi_endproc
 288              	.LFE145:
 290              		.section	.text.HAL_FLASH_EndOfOperationCallback,"ax",%progbits
 291              		.align	1
ARM GAS  /tmp/ccMYOmG8.s 			page 36


 292              		.weak	HAL_FLASH_EndOfOperationCallback
 293              		.syntax unified
 294              		.thumb
 295              		.thumb_func
 296              		.fpu fpv4-sp-d16
 298              	HAL_FLASH_EndOfOperationCallback:
 299              	.LVL22:
 300              	.LFB135:
 443:Drivers/STM32G4xx_HAL_Driver/Src/stm32g4xx_hal_flash.c ****   /* Prevent unused argument(s) compilation warning */
 301              		.loc 1 443 1 is_stmt 1 view -0
 302              		.cfi_startproc
 303              		@ args = 0, pretend = 0, frame = 0
 304              		@ frame_needed = 0, uses_anonymous_args = 0
 305              		@ link register save eliminated.
 445:Drivers/STM32G4xx_HAL_Driver/Src/stm32g4xx_hal_flash.c **** 
 306              		.loc 1 445 3 view .LVU64
 450:Drivers/STM32G4xx_HAL_Driver/Src/stm32g4xx_hal_flash.c **** 
 307              		.loc 1 450 1 is_stmt 0 view .LVU65
 308 0000 7047     		bx	lr
 309              		.cfi_endproc
 310              	.LFE135:
 312              		.section	.text.HAL_FLASH_OperationErrorCallback,"ax",%progbits
 313              		.align	1
 314              		.weak	HAL_FLASH_OperationErrorCallback
 315              		.syntax unified
 316              		.thumb
 317              		.thumb_func
 318              		.fpu fpv4-sp-d16
 320              	HAL_FLASH_OperationErrorCallback:
 321              	.LVL23:
 322              	.LFB136:
 461:Drivers/STM32G4xx_HAL_Driver/Src/stm32g4xx_hal_flash.c ****   /* Prevent unused argument(s) compilation warning */
 323              		.loc 1 461 1 is_stmt 1 view -0
 324              		.cfi_startproc
 325              		@ args = 0, pretend = 0, frame = 0
 326              		@ frame_needed = 0, uses_anonymous_args = 0
 327              		@ link register save eliminated.
 463:Drivers/STM32G4xx_HAL_Driver/Src/stm32g4xx_hal_flash.c **** 
 328              		.loc 1 463 3 view .LVU67
 468:Drivers/STM32G4xx_HAL_Driver/Src/stm32g4xx_hal_flash.c **** 
 329              		.loc 1 468 1 is_stmt 0 view .LVU68
 330 0000 7047     		bx	lr
 331              		.cfi_endproc
 332              	.LFE136:
 334              		.section	.text.HAL_FLASH_IRQHandler,"ax",%progbits
 335              		.align	1
 336              		.global	HAL_FLASH_IRQHandler
 337              		.syntax unified
 338              		.thumb
 339              		.thumb_func
 340              		.fpu fpv4-sp-d16
 342              	HAL_FLASH_IRQHandler:
 343              	.LFB134:
 303:Drivers/STM32G4xx_HAL_Driver/Src/stm32g4xx_hal_flash.c ****   uint32_t tmp_page;
 344              		.loc 1 303 1 is_stmt 1 view -0
 345              		.cfi_startproc
 346              		@ args = 0, pretend = 0, frame = 0
ARM GAS  /tmp/ccMYOmG8.s 			page 37


 347              		@ frame_needed = 0, uses_anonymous_args = 0
 348 0000 10B5     		push	{r4, lr}
 349              	.LCFI2:
 350              		.cfi_def_cfa_offset 8
 351              		.cfi_offset 4, -8
 352              		.cfi_offset 14, -4
 304:Drivers/STM32G4xx_HAL_Driver/Src/stm32g4xx_hal_flash.c ****   uint32_t error;
 353              		.loc 1 304 3 view .LVU70
 305:Drivers/STM32G4xx_HAL_Driver/Src/stm32g4xx_hal_flash.c ****   FLASH_ProcedureTypeDef procedure;
 354              		.loc 1 305 3 view .LVU71
 306:Drivers/STM32G4xx_HAL_Driver/Src/stm32g4xx_hal_flash.c **** 
 355              		.loc 1 306 3 view .LVU72
 309:Drivers/STM32G4xx_HAL_Driver/Src/stm32g4xx_hal_flash.c **** #if defined (FLASH_OPTR_DBANK)
 356              		.loc 1 309 3 view .LVU73
 357 0002 474A     		ldr	r2, .L41
 358 0004 5369     		ldr	r3, [r2, #20]
 359 0006 23F47F73 		bic	r3, r3, #1020
 360 000a 23F00303 		bic	r3, r3, #3
 361 000e 5361     		str	r3, [r2, #20]
 311:Drivers/STM32G4xx_HAL_Driver/Src/stm32g4xx_hal_flash.c **** #endif
 362              		.loc 1 311 3 view .LVU74
 363 0010 5369     		ldr	r3, [r2, #20]
 364 0012 23F40043 		bic	r3, r3, #32768
 365 0016 5361     		str	r3, [r2, #20]
 315:Drivers/STM32G4xx_HAL_Driver/Src/stm32g4xx_hal_flash.c ****   {
 366              		.loc 1 315 3 view .LVU75
 315:Drivers/STM32G4xx_HAL_Driver/Src/stm32g4xx_hal_flash.c ****   {
 367              		.loc 1 315 13 is_stmt 0 view .LVU76
 368 0018 424B     		ldr	r3, .L41+4
 369 001a 1B7A     		ldrb	r3, [r3, #8]	@ zero_extendqisi2
 370 001c DBB2     		uxtb	r3, r3
 315:Drivers/STM32G4xx_HAL_Driver/Src/stm32g4xx_hal_flash.c ****   {
 371              		.loc 1 315 6 view .LVU77
 372 001e 042B     		cmp	r3, #4
 373 0020 25D0     		beq	.L34
 374              	.L22:
 321:Drivers/STM32G4xx_HAL_Driver/Src/stm32g4xx_hal_flash.c **** 
 375              		.loc 1 321 3 is_stmt 1 view .LVU78
 321:Drivers/STM32G4xx_HAL_Driver/Src/stm32g4xx_hal_flash.c **** 
 376              		.loc 1 321 17 is_stmt 0 view .LVU79
 377 0022 3F4B     		ldr	r3, .L41
 378 0024 1B69     		ldr	r3, [r3, #16]
 321:Drivers/STM32G4xx_HAL_Driver/Src/stm32g4xx_hal_flash.c **** 
 379              		.loc 1 321 9 view .LVU80
 380 0026 4CF2FA32 		movw	r2, #50170
 381              	.LVL24:
 323:Drivers/STM32G4xx_HAL_Driver/Src/stm32g4xx_hal_flash.c ****   {
 382              		.loc 1 323 3 is_stmt 1 view .LVU81
 323:Drivers/STM32G4xx_HAL_Driver/Src/stm32g4xx_hal_flash.c ****   {
 383              		.loc 1 323 6 is_stmt 0 view .LVU82
 384 002a 1340     		ands	r3, r3, r2
 385              	.LVL25:
 323:Drivers/STM32G4xx_HAL_Driver/Src/stm32g4xx_hal_flash.c ****   {
 386              		.loc 1 323 6 view .LVU83
 387 002c 24D1     		bne	.L35
 388              	.LVL26:
 389              	.L23:
ARM GAS  /tmp/ccMYOmG8.s 			page 38


 359:Drivers/STM32G4xx_HAL_Driver/Src/stm32g4xx_hal_flash.c ****   {
 390              		.loc 1 359 3 is_stmt 1 view .LVU84
 359:Drivers/STM32G4xx_HAL_Driver/Src/stm32g4xx_hal_flash.c ****   {
 391              		.loc 1 359 7 is_stmt 0 view .LVU85
 392 002e 3C4B     		ldr	r3, .L41
 393 0030 1B69     		ldr	r3, [r3, #16]
 359:Drivers/STM32G4xx_HAL_Driver/Src/stm32g4xx_hal_flash.c ****   {
 394              		.loc 1 359 6 view .LVU86
 395 0032 13F0010F 		tst	r3, #1
 396 0036 5DD0     		beq	.L27
 362:Drivers/STM32G4xx_HAL_Driver/Src/stm32g4xx_hal_flash.c **** 
 397              		.loc 1 362 5 is_stmt 1 discriminator 4 view .LVU87
 362:Drivers/STM32G4xx_HAL_Driver/Src/stm32g4xx_hal_flash.c **** 
 398              		.loc 1 362 5 discriminator 4 view .LVU88
 362:Drivers/STM32G4xx_HAL_Driver/Src/stm32g4xx_hal_flash.c **** 
 399              		.loc 1 362 5 discriminator 4 view .LVU89
 362:Drivers/STM32G4xx_HAL_Driver/Src/stm32g4xx_hal_flash.c **** 
 400              		.loc 1 362 5 discriminator 4 view .LVU90
 401 0038 394B     		ldr	r3, .L41
 402 003a 0122     		movs	r2, #1
 403 003c 1A61     		str	r2, [r3, #16]
 362:Drivers/STM32G4xx_HAL_Driver/Src/stm32g4xx_hal_flash.c **** 
 404              		.loc 1 362 5 discriminator 4 view .LVU91
 364:Drivers/STM32G4xx_HAL_Driver/Src/stm32g4xx_hal_flash.c ****     {
 405              		.loc 1 364 5 discriminator 4 view .LVU92
 364:Drivers/STM32G4xx_HAL_Driver/Src/stm32g4xx_hal_flash.c ****     {
 406              		.loc 1 364 15 is_stmt 0 discriminator 4 view .LVU93
 407 003e 394B     		ldr	r3, .L41+4
 408 0040 1B7A     		ldrb	r3, [r3, #8]	@ zero_extendqisi2
 409 0042 DBB2     		uxtb	r3, r3
 364:Drivers/STM32G4xx_HAL_Driver/Src/stm32g4xx_hal_flash.c ****     {
 410              		.loc 1 364 8 discriminator 4 view .LVU94
 411 0044 9342     		cmp	r3, r2
 412 0046 47D1     		bne	.L28
 367:Drivers/STM32G4xx_HAL_Driver/Src/stm32g4xx_hal_flash.c **** 
 413              		.loc 1 367 7 is_stmt 1 view .LVU95
 367:Drivers/STM32G4xx_HAL_Driver/Src/stm32g4xx_hal_flash.c **** 
 414              		.loc 1 367 13 is_stmt 0 view .LVU96
 415 0048 364B     		ldr	r3, .L41+4
 416 004a 9A69     		ldr	r2, [r3, #24]
 367:Drivers/STM32G4xx_HAL_Driver/Src/stm32g4xx_hal_flash.c **** 
 417              		.loc 1 367 28 view .LVU97
 418 004c 013A     		subs	r2, r2, #1
 419 004e 9A61     		str	r2, [r3, #24]
 370:Drivers/STM32G4xx_HAL_Driver/Src/stm32g4xx_hal_flash.c ****       {
 420              		.loc 1 370 7 is_stmt 1 view .LVU98
 370:Drivers/STM32G4xx_HAL_Driver/Src/stm32g4xx_hal_flash.c ****       {
 421              		.loc 1 370 17 is_stmt 0 view .LVU99
 422 0050 9B69     		ldr	r3, [r3, #24]
 370:Drivers/STM32G4xx_HAL_Driver/Src/stm32g4xx_hal_flash.c ****       {
 423              		.loc 1 370 10 view .LVU100
 424 0052 002B     		cmp	r3, #0
 425 0054 34D0     		beq	.L29
 373:Drivers/STM32G4xx_HAL_Driver/Src/stm32g4xx_hal_flash.c **** 
 426              		.loc 1 373 9 is_stmt 1 view .LVU101
 427 0056 334C     		ldr	r4, .L41+4
 428 0058 6069     		ldr	r0, [r4, #20]
ARM GAS  /tmp/ccMYOmG8.s 			page 39


 429 005a FFF7FEFF 		bl	HAL_FLASH_EndOfOperationCallback
 430              	.LVL27:
 376:Drivers/STM32G4xx_HAL_Driver/Src/stm32g4xx_hal_flash.c ****         tmp_page = pFlash.Page;
 431              		.loc 1 376 9 view .LVU102
 376:Drivers/STM32G4xx_HAL_Driver/Src/stm32g4xx_hal_flash.c ****         tmp_page = pFlash.Page;
 432              		.loc 1 376 15 is_stmt 0 view .LVU103
 433 005e 6369     		ldr	r3, [r4, #20]
 376:Drivers/STM32G4xx_HAL_Driver/Src/stm32g4xx_hal_flash.c ****         tmp_page = pFlash.Page;
 434              		.loc 1 376 20 view .LVU104
 435 0060 0133     		adds	r3, r3, #1
 436 0062 6361     		str	r3, [r4, #20]
 377:Drivers/STM32G4xx_HAL_Driver/Src/stm32g4xx_hal_flash.c ****         FLASH_PageErase(tmp_page, pFlash.Bank);
 437              		.loc 1 377 9 is_stmt 1 view .LVU105
 377:Drivers/STM32G4xx_HAL_Driver/Src/stm32g4xx_hal_flash.c ****         FLASH_PageErase(tmp_page, pFlash.Bank);
 438              		.loc 1 377 18 is_stmt 0 view .LVU106
 439 0064 6069     		ldr	r0, [r4, #20]
 440              	.LVL28:
 378:Drivers/STM32G4xx_HAL_Driver/Src/stm32g4xx_hal_flash.c ****       }
 441              		.loc 1 378 9 is_stmt 1 view .LVU107
 442 0066 2169     		ldr	r1, [r4, #16]
 443 0068 FFF7FEFF 		bl	FLASH_PageErase
 444              	.LVL29:
 378:Drivers/STM32G4xx_HAL_Driver/Src/stm32g4xx_hal_flash.c ****       }
 445              		.loc 1 378 9 is_stmt 0 view .LVU108
 446 006c 42E0     		b	.L27
 447              	.L34:
 317:Drivers/STM32G4xx_HAL_Driver/Src/stm32g4xx_hal_flash.c ****   }
 448              		.loc 1 317 5 is_stmt 1 view .LVU109
 449 006e 5369     		ldr	r3, [r2, #20]
 450 0070 23F48023 		bic	r3, r3, #262144
 451 0074 5361     		str	r3, [r2, #20]
 452 0076 D4E7     		b	.L22
 453              	.LVL30:
 454              	.L35:
 326:Drivers/STM32G4xx_HAL_Driver/Src/stm32g4xx_hal_flash.c **** 
 455              		.loc 1 326 5 view .LVU110
 326:Drivers/STM32G4xx_HAL_Driver/Src/stm32g4xx_hal_flash.c **** 
 456              		.loc 1 326 22 is_stmt 0 view .LVU111
 457 0078 2A4C     		ldr	r4, .L41+4
 458 007a 6268     		ldr	r2, [r4, #4]
 459 007c 1A43     		orrs	r2, r2, r3
 460 007e 6260     		str	r2, [r4, #4]
 329:Drivers/STM32G4xx_HAL_Driver/Src/stm32g4xx_hal_flash.c **** 
 461              		.loc 1 329 5 is_stmt 1 view .LVU112
 329:Drivers/STM32G4xx_HAL_Driver/Src/stm32g4xx_hal_flash.c **** 
 462              		.loc 1 329 5 view .LVU113
 329:Drivers/STM32G4xx_HAL_Driver/Src/stm32g4xx_hal_flash.c **** 
 463              		.loc 1 329 5 view .LVU114
 329:Drivers/STM32G4xx_HAL_Driver/Src/stm32g4xx_hal_flash.c **** 
 464              		.loc 1 329 5 view .LVU115
 465 0080 274A     		ldr	r2, .L41
 466 0082 1361     		str	r3, [r2, #16]
 329:Drivers/STM32G4xx_HAL_Driver/Src/stm32g4xx_hal_flash.c **** 
 467              		.loc 1 329 5 view .LVU116
 332:Drivers/STM32G4xx_HAL_Driver/Src/stm32g4xx_hal_flash.c **** 
 468              		.loc 1 332 5 view .LVU117
 469 0084 FFF7FEFF 		bl	FLASH_FlushCaches
ARM GAS  /tmp/ccMYOmG8.s 			page 40


 470              	.LVL31:
 335:Drivers/STM32G4xx_HAL_Driver/Src/stm32g4xx_hal_flash.c ****     if (procedure == FLASH_PROC_PAGE_ERASE)
 471              		.loc 1 335 5 view .LVU118
 335:Drivers/STM32G4xx_HAL_Driver/Src/stm32g4xx_hal_flash.c ****     if (procedure == FLASH_PROC_PAGE_ERASE)
 472              		.loc 1 335 15 is_stmt 0 view .LVU119
 473 0088 237A     		ldrb	r3, [r4, #8]	@ zero_extendqisi2
 474 008a DBB2     		uxtb	r3, r3
 475              	.LVL32:
 336:Drivers/STM32G4xx_HAL_Driver/Src/stm32g4xx_hal_flash.c ****     {
 476              		.loc 1 336 5 is_stmt 1 view .LVU120
 336:Drivers/STM32G4xx_HAL_Driver/Src/stm32g4xx_hal_flash.c ****     {
 477              		.loc 1 336 8 is_stmt 0 view .LVU121
 478 008c 012B     		cmp	r3, #1
 479 008e 09D0     		beq	.L36
 340:Drivers/STM32G4xx_HAL_Driver/Src/stm32g4xx_hal_flash.c ****     {
 480              		.loc 1 340 10 is_stmt 1 view .LVU122
 340:Drivers/STM32G4xx_HAL_Driver/Src/stm32g4xx_hal_flash.c ****     {
 481              		.loc 1 340 13 is_stmt 0 view .LVU123
 482 0090 022B     		cmp	r3, #2
 483 0092 0BD0     		beq	.L37
 344:Drivers/STM32G4xx_HAL_Driver/Src/stm32g4xx_hal_flash.c ****              (procedure == FLASH_PROC_PROGRAM_LAST))
 484              		.loc 1 344 10 is_stmt 1 view .LVU124
 344:Drivers/STM32G4xx_HAL_Driver/Src/stm32g4xx_hal_flash.c ****              (procedure == FLASH_PROC_PROGRAM_LAST))
 485              		.loc 1 344 48 is_stmt 0 view .LVU125
 486 0094 033B     		subs	r3, r3, #3
 487              	.LVL33:
 344:Drivers/STM32G4xx_HAL_Driver/Src/stm32g4xx_hal_flash.c ****              (procedure == FLASH_PROC_PROGRAM_LAST))
 488              		.loc 1 344 48 view .LVU126
 489 0096 DBB2     		uxtb	r3, r3
 490              	.LVL34:
 344:Drivers/STM32G4xx_HAL_Driver/Src/stm32g4xx_hal_flash.c ****              (procedure == FLASH_PROC_PROGRAM_LAST))
 491              		.loc 1 344 13 view .LVU127
 492 0098 012B     		cmp	r3, #1
 493 009a 0CD9     		bls	.L38
 494              	.LVL35:
 495              	.L25:
 352:Drivers/STM32G4xx_HAL_Driver/Src/stm32g4xx_hal_flash.c **** 
 496              		.loc 1 352 5 is_stmt 1 view .LVU128
 355:Drivers/STM32G4xx_HAL_Driver/Src/stm32g4xx_hal_flash.c ****   }
 497              		.loc 1 355 5 view .LVU129
 355:Drivers/STM32G4xx_HAL_Driver/Src/stm32g4xx_hal_flash.c ****   }
 498              		.loc 1 355 29 is_stmt 0 view .LVU130
 499 009c 214B     		ldr	r3, .L41+4
 500 009e 0022     		movs	r2, #0
 501 00a0 1A72     		strb	r2, [r3, #8]
 502 00a2 C4E7     		b	.L23
 503              	.LVL36:
 504              	.L36:
 338:Drivers/STM32G4xx_HAL_Driver/Src/stm32g4xx_hal_flash.c ****     }
 505              		.loc 1 338 7 is_stmt 1 view .LVU131
 506 00a4 6069     		ldr	r0, [r4, #20]
 507 00a6 FFF7FEFF 		bl	HAL_FLASH_OperationErrorCallback
 508              	.LVL37:
 338:Drivers/STM32G4xx_HAL_Driver/Src/stm32g4xx_hal_flash.c ****     }
 509              		.loc 1 338 7 is_stmt 0 view .LVU132
 510 00aa F7E7     		b	.L25
 511              	.LVL38:
ARM GAS  /tmp/ccMYOmG8.s 			page 41


 512              	.L37:
 342:Drivers/STM32G4xx_HAL_Driver/Src/stm32g4xx_hal_flash.c ****     }
 513              		.loc 1 342 7 is_stmt 1 view .LVU133
 514 00ac 1D4B     		ldr	r3, .L41+4
 515              	.LVL39:
 342:Drivers/STM32G4xx_HAL_Driver/Src/stm32g4xx_hal_flash.c ****     }
 516              		.loc 1 342 7 is_stmt 0 view .LVU134
 517 00ae 1869     		ldr	r0, [r3, #16]
 518 00b0 FFF7FEFF 		bl	HAL_FLASH_OperationErrorCallback
 519              	.LVL40:
 342:Drivers/STM32G4xx_HAL_Driver/Src/stm32g4xx_hal_flash.c ****     }
 520              		.loc 1 342 7 view .LVU135
 521 00b4 F2E7     		b	.L25
 522              	.LVL41:
 523              	.L38:
 347:Drivers/STM32G4xx_HAL_Driver/Src/stm32g4xx_hal_flash.c ****     }
 524              		.loc 1 347 7 is_stmt 1 view .LVU136
 525 00b6 1B4B     		ldr	r3, .L41+4
 526 00b8 D868     		ldr	r0, [r3, #12]
 527 00ba FFF7FEFF 		bl	HAL_FLASH_OperationErrorCallback
 528              	.LVL42:
 347:Drivers/STM32G4xx_HAL_Driver/Src/stm32g4xx_hal_flash.c ****     }
 529              		.loc 1 347 7 is_stmt 0 view .LVU137
 530 00be EDE7     		b	.L25
 531              	.L29:
 384:Drivers/STM32G4xx_HAL_Driver/Src/stm32g4xx_hal_flash.c ****         pFlash.ProcedureOnGoing = FLASH_PROC_NONE;
 532              		.loc 1 384 9 is_stmt 1 view .LVU138
 384:Drivers/STM32G4xx_HAL_Driver/Src/stm32g4xx_hal_flash.c ****         pFlash.ProcedureOnGoing = FLASH_PROC_NONE;
 533              		.loc 1 384 21 is_stmt 0 view .LVU139
 534 00c0 184C     		ldr	r4, .L41+4
 535 00c2 4FF0FF33 		mov	r3, #-1
 536 00c6 6361     		str	r3, [r4, #20]
 385:Drivers/STM32G4xx_HAL_Driver/Src/stm32g4xx_hal_flash.c **** 
 537              		.loc 1 385 9 is_stmt 1 view .LVU140
 385:Drivers/STM32G4xx_HAL_Driver/Src/stm32g4xx_hal_flash.c **** 
 538              		.loc 1 385 33 is_stmt 0 view .LVU141
 539 00c8 0023     		movs	r3, #0
 540 00ca 2372     		strb	r3, [r4, #8]
 388:Drivers/STM32G4xx_HAL_Driver/Src/stm32g4xx_hal_flash.c **** 
 541              		.loc 1 388 9 is_stmt 1 view .LVU142
 542 00cc FFF7FEFF 		bl	FLASH_FlushCaches
 543              	.LVL43:
 391:Drivers/STM32G4xx_HAL_Driver/Src/stm32g4xx_hal_flash.c ****       }
 544              		.loc 1 391 9 view .LVU143
 545 00d0 6069     		ldr	r0, [r4, #20]
 546 00d2 FFF7FEFF 		bl	HAL_FLASH_EndOfOperationCallback
 547              	.LVL44:
 548 00d6 0DE0     		b	.L27
 549              	.L28:
 397:Drivers/STM32G4xx_HAL_Driver/Src/stm32g4xx_hal_flash.c **** 
 550              		.loc 1 397 7 view .LVU144
 551 00d8 FFF7FEFF 		bl	FLASH_FlushCaches
 552              	.LVL45:
 399:Drivers/STM32G4xx_HAL_Driver/Src/stm32g4xx_hal_flash.c ****       if (procedure == FLASH_PROC_MASS_ERASE)
 553              		.loc 1 399 7 view .LVU145
 399:Drivers/STM32G4xx_HAL_Driver/Src/stm32g4xx_hal_flash.c ****       if (procedure == FLASH_PROC_MASS_ERASE)
 554              		.loc 1 399 17 is_stmt 0 view .LVU146
ARM GAS  /tmp/ccMYOmG8.s 			page 42


 555 00dc 114B     		ldr	r3, .L41+4
 556 00de 1B7A     		ldrb	r3, [r3, #8]	@ zero_extendqisi2
 557 00e0 DBB2     		uxtb	r3, r3
 558              	.LVL46:
 400:Drivers/STM32G4xx_HAL_Driver/Src/stm32g4xx_hal_flash.c ****       {
 559              		.loc 1 400 7 is_stmt 1 view .LVU147
 400:Drivers/STM32G4xx_HAL_Driver/Src/stm32g4xx_hal_flash.c ****       {
 560              		.loc 1 400 10 is_stmt 0 view .LVU148
 561 00e2 022B     		cmp	r3, #2
 562 00e4 12D0     		beq	.L39
 406:Drivers/STM32G4xx_HAL_Driver/Src/stm32g4xx_hal_flash.c ****                (procedure == FLASH_PROC_PROGRAM_LAST))
 563              		.loc 1 406 12 is_stmt 1 view .LVU149
 406:Drivers/STM32G4xx_HAL_Driver/Src/stm32g4xx_hal_flash.c ****                (procedure == FLASH_PROC_PROGRAM_LAST))
 564              		.loc 1 406 50 is_stmt 0 view .LVU150
 565 00e6 033B     		subs	r3, r3, #3
 566              	.LVL47:
 406:Drivers/STM32G4xx_HAL_Driver/Src/stm32g4xx_hal_flash.c ****                (procedure == FLASH_PROC_PROGRAM_LAST))
 567              		.loc 1 406 50 view .LVU151
 568 00e8 DBB2     		uxtb	r3, r3
 569              	.LVL48:
 406:Drivers/STM32G4xx_HAL_Driver/Src/stm32g4xx_hal_flash.c ****                (procedure == FLASH_PROC_PROGRAM_LAST))
 570              		.loc 1 406 15 view .LVU152
 571 00ea 012B     		cmp	r3, #1
 572 00ec 13D9     		bls	.L40
 573              	.LVL49:
 574              	.L31:
 416:Drivers/STM32G4xx_HAL_Driver/Src/stm32g4xx_hal_flash.c **** 
 575              		.loc 1 416 7 is_stmt 1 view .LVU153
 419:Drivers/STM32G4xx_HAL_Driver/Src/stm32g4xx_hal_flash.c ****     }
 576              		.loc 1 419 7 view .LVU154
 419:Drivers/STM32G4xx_HAL_Driver/Src/stm32g4xx_hal_flash.c ****     }
 577              		.loc 1 419 31 is_stmt 0 view .LVU155
 578 00ee 0D4B     		ldr	r3, .L41+4
 579 00f0 0022     		movs	r2, #0
 580 00f2 1A72     		strb	r2, [r3, #8]
 581              	.L27:
 423:Drivers/STM32G4xx_HAL_Driver/Src/stm32g4xx_hal_flash.c ****   {
 582              		.loc 1 423 3 is_stmt 1 view .LVU156
 423:Drivers/STM32G4xx_HAL_Driver/Src/stm32g4xx_hal_flash.c ****   {
 583              		.loc 1 423 13 is_stmt 0 view .LVU157
 584 00f4 0B4B     		ldr	r3, .L41+4
 585 00f6 1B7A     		ldrb	r3, [r3, #8]	@ zero_extendqisi2
 423:Drivers/STM32G4xx_HAL_Driver/Src/stm32g4xx_hal_flash.c ****   {
 586              		.loc 1 423 6 view .LVU158
 587 00f8 3BB9     		cbnz	r3, .L21
 426:Drivers/STM32G4xx_HAL_Driver/Src/stm32g4xx_hal_flash.c **** 
 588              		.loc 1 426 5 is_stmt 1 discriminator 4 view .LVU159
 426:Drivers/STM32G4xx_HAL_Driver/Src/stm32g4xx_hal_flash.c **** 
 589              		.loc 1 426 5 discriminator 4 view .LVU160
 426:Drivers/STM32G4xx_HAL_Driver/Src/stm32g4xx_hal_flash.c **** 
 590              		.loc 1 426 5 discriminator 4 view .LVU161
 426:Drivers/STM32G4xx_HAL_Driver/Src/stm32g4xx_hal_flash.c **** 
 591              		.loc 1 426 5 discriminator 4 view .LVU162
 592 00fa 094A     		ldr	r2, .L41
 593 00fc 5369     		ldr	r3, [r2, #20]
 594 00fe 23F04073 		bic	r3, r3, #50331648
 595 0102 5361     		str	r3, [r2, #20]
ARM GAS  /tmp/ccMYOmG8.s 			page 43


 426:Drivers/STM32G4xx_HAL_Driver/Src/stm32g4xx_hal_flash.c **** 
 596              		.loc 1 426 5 discriminator 4 view .LVU163
 429:Drivers/STM32G4xx_HAL_Driver/Src/stm32g4xx_hal_flash.c ****   }
 597              		.loc 1 429 5 discriminator 4 view .LVU164
 429:Drivers/STM32G4xx_HAL_Driver/Src/stm32g4xx_hal_flash.c ****   }
 598              		.loc 1 429 5 discriminator 4 view .LVU165
 599 0104 074B     		ldr	r3, .L41+4
 600 0106 0022     		movs	r2, #0
 601 0108 1A70     		strb	r2, [r3]
 429:Drivers/STM32G4xx_HAL_Driver/Src/stm32g4xx_hal_flash.c ****   }
 602              		.loc 1 429 5 discriminator 4 view .LVU166
 603              	.L21:
 431:Drivers/STM32G4xx_HAL_Driver/Src/stm32g4xx_hal_flash.c **** 
 604              		.loc 1 431 1 is_stmt 0 view .LVU167
 605 010a 10BD     		pop	{r4, pc}
 606              	.LVL50:
 607              	.L39:
 404:Drivers/STM32G4xx_HAL_Driver/Src/stm32g4xx_hal_flash.c ****       }
 608              		.loc 1 404 9 is_stmt 1 view .LVU168
 609 010c 054B     		ldr	r3, .L41+4
 610              	.LVL51:
 404:Drivers/STM32G4xx_HAL_Driver/Src/stm32g4xx_hal_flash.c ****       }
 611              		.loc 1 404 9 is_stmt 0 view .LVU169
 612 010e 1869     		ldr	r0, [r3, #16]
 613 0110 FFF7FEFF 		bl	HAL_FLASH_EndOfOperationCallback
 614              	.LVL52:
 404:Drivers/STM32G4xx_HAL_Driver/Src/stm32g4xx_hal_flash.c ****       }
 615              		.loc 1 404 9 view .LVU170
 616 0114 EBE7     		b	.L31
 617              	.LVL53:
 618              	.L40:
 411:Drivers/STM32G4xx_HAL_Driver/Src/stm32g4xx_hal_flash.c ****       }
 619              		.loc 1 411 9 is_stmt 1 view .LVU171
 620 0116 034B     		ldr	r3, .L41+4
 621 0118 D868     		ldr	r0, [r3, #12]
 622 011a FFF7FEFF 		bl	HAL_FLASH_EndOfOperationCallback
 623              	.LVL54:
 411:Drivers/STM32G4xx_HAL_Driver/Src/stm32g4xx_hal_flash.c ****       }
 624              		.loc 1 411 9 is_stmt 0 view .LVU172
 625 011e E6E7     		b	.L31
 626              	.L42:
 627              		.align	2
 628              	.L41:
 629 0120 00200240 		.word	1073881088
 630 0124 00000000 		.word	.LANCHOR0
 631              		.cfi_endproc
 632              	.LFE134:
 634              		.section	.text.HAL_FLASH_Unlock,"ax",%progbits
 635              		.align	1
 636              		.global	HAL_FLASH_Unlock
 637              		.syntax unified
 638              		.thumb
 639              		.thumb_func
 640              		.fpu fpv4-sp-d16
 642              	HAL_FLASH_Unlock:
 643              	.LFB137:
 494:Drivers/STM32G4xx_HAL_Driver/Src/stm32g4xx_hal_flash.c ****   HAL_StatusTypeDef status = HAL_OK;
ARM GAS  /tmp/ccMYOmG8.s 			page 44


 644              		.loc 1 494 1 is_stmt 1 view -0
 645              		.cfi_startproc
 646              		@ args = 0, pretend = 0, frame = 0
 647              		@ frame_needed = 0, uses_anonymous_args = 0
 648              		@ link register save eliminated.
 495:Drivers/STM32G4xx_HAL_Driver/Src/stm32g4xx_hal_flash.c **** 
 649              		.loc 1 495 3 view .LVU174
 650              	.LVL55:
 497:Drivers/STM32G4xx_HAL_Driver/Src/stm32g4xx_hal_flash.c ****   {
 651              		.loc 1 497 3 view .LVU175
 497:Drivers/STM32G4xx_HAL_Driver/Src/stm32g4xx_hal_flash.c ****   {
 652              		.loc 1 497 7 is_stmt 0 view .LVU176
 653 0000 094B     		ldr	r3, .L48
 654 0002 5B69     		ldr	r3, [r3, #20]
 497:Drivers/STM32G4xx_HAL_Driver/Src/stm32g4xx_hal_flash.c ****   {
 655              		.loc 1 497 6 view .LVU177
 656 0004 002B     		cmp	r3, #0
 657 0006 01DB     		blt	.L47
 495:Drivers/STM32G4xx_HAL_Driver/Src/stm32g4xx_hal_flash.c **** 
 658              		.loc 1 495 21 view .LVU178
 659 0008 0020     		movs	r0, #0
 660 000a 7047     		bx	lr
 661              	.L47:
 500:Drivers/STM32G4xx_HAL_Driver/Src/stm32g4xx_hal_flash.c ****     WRITE_REG(FLASH->KEYR, FLASH_KEY2);
 662              		.loc 1 500 5 is_stmt 1 view .LVU179
 663 000c 064B     		ldr	r3, .L48
 664 000e 074A     		ldr	r2, .L48+4
 665 0010 9A60     		str	r2, [r3, #8]
 501:Drivers/STM32G4xx_HAL_Driver/Src/stm32g4xx_hal_flash.c **** 
 666              		.loc 1 501 5 view .LVU180
 667 0012 02F18832 		add	r2, r2, #-2004318072
 668 0016 9A60     		str	r2, [r3, #8]
 504:Drivers/STM32G4xx_HAL_Driver/Src/stm32g4xx_hal_flash.c ****     {
 669              		.loc 1 504 5 view .LVU181
 504:Drivers/STM32G4xx_HAL_Driver/Src/stm32g4xx_hal_flash.c ****     {
 670              		.loc 1 504 9 is_stmt 0 view .LVU182
 671 0018 5B69     		ldr	r3, [r3, #20]
 504:Drivers/STM32G4xx_HAL_Driver/Src/stm32g4xx_hal_flash.c ****     {
 672              		.loc 1 504 8 view .LVU183
 673 001a 002B     		cmp	r3, #0
 674 001c 01DB     		blt	.L46
 495:Drivers/STM32G4xx_HAL_Driver/Src/stm32g4xx_hal_flash.c **** 
 675              		.loc 1 495 21 view .LVU184
 676 001e 0020     		movs	r0, #0
 677 0020 7047     		bx	lr
 678              	.L46:
 506:Drivers/STM32G4xx_HAL_Driver/Src/stm32g4xx_hal_flash.c ****     }
 679              		.loc 1 506 14 view .LVU185
 680 0022 0120     		movs	r0, #1
 681              	.LVL56:
 510:Drivers/STM32G4xx_HAL_Driver/Src/stm32g4xx_hal_flash.c **** }
 682              		.loc 1 510 3 is_stmt 1 view .LVU186
 511:Drivers/STM32G4xx_HAL_Driver/Src/stm32g4xx_hal_flash.c **** 
 683              		.loc 1 511 1 is_stmt 0 view .LVU187
 684 0024 7047     		bx	lr
 685              	.L49:
 686 0026 00BF     		.align	2
ARM GAS  /tmp/ccMYOmG8.s 			page 45


 687              	.L48:
 688 0028 00200240 		.word	1073881088
 689 002c 23016745 		.word	1164378403
 690              		.cfi_endproc
 691              	.LFE137:
 693              		.section	.text.HAL_FLASH_Lock,"ax",%progbits
 694              		.align	1
 695              		.global	HAL_FLASH_Lock
 696              		.syntax unified
 697              		.thumb
 698              		.thumb_func
 699              		.fpu fpv4-sp-d16
 701              	HAL_FLASH_Lock:
 702              	.LFB138:
 518:Drivers/STM32G4xx_HAL_Driver/Src/stm32g4xx_hal_flash.c ****   HAL_StatusTypeDef status = HAL_ERROR;
 703              		.loc 1 518 1 is_stmt 1 view -0
 704              		.cfi_startproc
 705              		@ args = 0, pretend = 0, frame = 0
 706              		@ frame_needed = 0, uses_anonymous_args = 0
 707              		@ link register save eliminated.
 519:Drivers/STM32G4xx_HAL_Driver/Src/stm32g4xx_hal_flash.c **** 
 708              		.loc 1 519 3 view .LVU189
 709              	.LVL57:
 522:Drivers/STM32G4xx_HAL_Driver/Src/stm32g4xx_hal_flash.c **** 
 710              		.loc 1 522 3 view .LVU190
 711 0000 054B     		ldr	r3, .L53
 712 0002 5A69     		ldr	r2, [r3, #20]
 713 0004 42F00042 		orr	r2, r2, #-2147483648
 714 0008 5A61     		str	r2, [r3, #20]
 525:Drivers/STM32G4xx_HAL_Driver/Src/stm32g4xx_hal_flash.c ****   {
 715              		.loc 1 525 3 view .LVU191
 525:Drivers/STM32G4xx_HAL_Driver/Src/stm32g4xx_hal_flash.c ****   {
 716              		.loc 1 525 7 is_stmt 0 view .LVU192
 717 000a 5B69     		ldr	r3, [r3, #20]
 525:Drivers/STM32G4xx_HAL_Driver/Src/stm32g4xx_hal_flash.c ****   {
 718              		.loc 1 525 6 view .LVU193
 719 000c 002B     		cmp	r3, #0
 720 000e 01DB     		blt	.L52
 519:Drivers/STM32G4xx_HAL_Driver/Src/stm32g4xx_hal_flash.c **** 
 721              		.loc 1 519 21 view .LVU194
 722 0010 0120     		movs	r0, #1
 723 0012 7047     		bx	lr
 724              	.L52:
 527:Drivers/STM32G4xx_HAL_Driver/Src/stm32g4xx_hal_flash.c ****   }
 725              		.loc 1 527 12 view .LVU195
 726 0014 0020     		movs	r0, #0
 727              	.LVL58:
 530:Drivers/STM32G4xx_HAL_Driver/Src/stm32g4xx_hal_flash.c **** }
 728              		.loc 1 530 3 is_stmt 1 view .LVU196
 531:Drivers/STM32G4xx_HAL_Driver/Src/stm32g4xx_hal_flash.c **** 
 729              		.loc 1 531 1 is_stmt 0 view .LVU197
 730 0016 7047     		bx	lr
 731              	.L54:
 732              		.align	2
 733              	.L53:
 734 0018 00200240 		.word	1073881088
 735              		.cfi_endproc
ARM GAS  /tmp/ccMYOmG8.s 			page 46


 736              	.LFE138:
 738              		.section	.text.HAL_FLASH_OB_Unlock,"ax",%progbits
 739              		.align	1
 740              		.global	HAL_FLASH_OB_Unlock
 741              		.syntax unified
 742              		.thumb
 743              		.thumb_func
 744              		.fpu fpv4-sp-d16
 746              	HAL_FLASH_OB_Unlock:
 747              	.LFB139:
 538:Drivers/STM32G4xx_HAL_Driver/Src/stm32g4xx_hal_flash.c ****   HAL_StatusTypeDef status = HAL_OK;
 748              		.loc 1 538 1 is_stmt 1 view -0
 749              		.cfi_startproc
 750              		@ args = 0, pretend = 0, frame = 0
 751              		@ frame_needed = 0, uses_anonymous_args = 0
 752              		@ link register save eliminated.
 539:Drivers/STM32G4xx_HAL_Driver/Src/stm32g4xx_hal_flash.c **** 
 753              		.loc 1 539 3 view .LVU199
 754              	.LVL59:
 541:Drivers/STM32G4xx_HAL_Driver/Src/stm32g4xx_hal_flash.c ****   {
 755              		.loc 1 541 3 view .LVU200
 541:Drivers/STM32G4xx_HAL_Driver/Src/stm32g4xx_hal_flash.c ****   {
 756              		.loc 1 541 7 is_stmt 0 view .LVU201
 757 0000 0A4B     		ldr	r3, .L59
 758 0002 5B69     		ldr	r3, [r3, #20]
 541:Drivers/STM32G4xx_HAL_Driver/Src/stm32g4xx_hal_flash.c ****   {
 759              		.loc 1 541 6 view .LVU202
 760 0004 13F0804F 		tst	r3, #1073741824
 761 0008 0BD0     		beq	.L57
 544:Drivers/STM32G4xx_HAL_Driver/Src/stm32g4xx_hal_flash.c ****     WRITE_REG(FLASH->OPTKEYR, FLASH_OPTKEY2);
 762              		.loc 1 544 5 is_stmt 1 view .LVU203
 763 000a 084B     		ldr	r3, .L59
 764 000c 084A     		ldr	r2, .L59+4
 765 000e DA60     		str	r2, [r3, #12]
 545:Drivers/STM32G4xx_HAL_Driver/Src/stm32g4xx_hal_flash.c **** 
 766              		.loc 1 545 5 view .LVU204
 767 0010 02F14432 		add	r2, r2, #1145324612
 768 0014 DA60     		str	r2, [r3, #12]
 548:Drivers/STM32G4xx_HAL_Driver/Src/stm32g4xx_hal_flash.c ****     {
 769              		.loc 1 548 5 view .LVU205
 548:Drivers/STM32G4xx_HAL_Driver/Src/stm32g4xx_hal_flash.c ****     {
 770              		.loc 1 548 9 is_stmt 0 view .LVU206
 771 0016 5B69     		ldr	r3, [r3, #20]
 548:Drivers/STM32G4xx_HAL_Driver/Src/stm32g4xx_hal_flash.c ****     {
 772              		.loc 1 548 8 view .LVU207
 773 0018 13F0804F 		tst	r3, #1073741824
 774 001c 03D1     		bne	.L58
 539:Drivers/STM32G4xx_HAL_Driver/Src/stm32g4xx_hal_flash.c **** 
 775              		.loc 1 539 21 view .LVU208
 776 001e 0020     		movs	r0, #0
 777 0020 7047     		bx	lr
 778              	.L57:
 779 0022 0020     		movs	r0, #0
 780 0024 7047     		bx	lr
 781              	.L58:
 550:Drivers/STM32G4xx_HAL_Driver/Src/stm32g4xx_hal_flash.c ****     }
 782              		.loc 1 550 14 view .LVU209
ARM GAS  /tmp/ccMYOmG8.s 			page 47


 783 0026 0120     		movs	r0, #1
 784              	.LVL60:
 554:Drivers/STM32G4xx_HAL_Driver/Src/stm32g4xx_hal_flash.c **** }
 785              		.loc 1 554 3 is_stmt 1 view .LVU210
 555:Drivers/STM32G4xx_HAL_Driver/Src/stm32g4xx_hal_flash.c **** 
 786              		.loc 1 555 1 is_stmt 0 view .LVU211
 787 0028 7047     		bx	lr
 788              	.L60:
 789 002a 00BF     		.align	2
 790              	.L59:
 791 002c 00200240 		.word	1073881088
 792 0030 3B2A1908 		.word	135866939
 793              		.cfi_endproc
 794              	.LFE139:
 796              		.section	.text.HAL_FLASH_OB_Lock,"ax",%progbits
 797              		.align	1
 798              		.global	HAL_FLASH_OB_Lock
 799              		.syntax unified
 800              		.thumb
 801              		.thumb_func
 802              		.fpu fpv4-sp-d16
 804              	HAL_FLASH_OB_Lock:
 805              	.LFB140:
 562:Drivers/STM32G4xx_HAL_Driver/Src/stm32g4xx_hal_flash.c ****   HAL_StatusTypeDef status = HAL_ERROR;
 806              		.loc 1 562 1 is_stmt 1 view -0
 807              		.cfi_startproc
 808              		@ args = 0, pretend = 0, frame = 0
 809              		@ frame_needed = 0, uses_anonymous_args = 0
 810              		@ link register save eliminated.
 563:Drivers/STM32G4xx_HAL_Driver/Src/stm32g4xx_hal_flash.c **** 
 811              		.loc 1 563 3 view .LVU213
 812              	.LVL61:
 566:Drivers/STM32G4xx_HAL_Driver/Src/stm32g4xx_hal_flash.c **** 
 813              		.loc 1 566 3 view .LVU214
 814 0000 064B     		ldr	r3, .L64
 815 0002 5A69     		ldr	r2, [r3, #20]
 816 0004 42F08042 		orr	r2, r2, #1073741824
 817 0008 5A61     		str	r2, [r3, #20]
 569:Drivers/STM32G4xx_HAL_Driver/Src/stm32g4xx_hal_flash.c ****   {
 818              		.loc 1 569 3 view .LVU215
 569:Drivers/STM32G4xx_HAL_Driver/Src/stm32g4xx_hal_flash.c ****   {
 819              		.loc 1 569 7 is_stmt 0 view .LVU216
 820 000a 5B69     		ldr	r3, [r3, #20]
 569:Drivers/STM32G4xx_HAL_Driver/Src/stm32g4xx_hal_flash.c ****   {
 821              		.loc 1 569 6 view .LVU217
 822 000c 13F0804F 		tst	r3, #1073741824
 823 0010 01D1     		bne	.L63
 563:Drivers/STM32G4xx_HAL_Driver/Src/stm32g4xx_hal_flash.c **** 
 824              		.loc 1 563 21 view .LVU218
 825 0012 0120     		movs	r0, #1
 826 0014 7047     		bx	lr
 827              	.L63:
 571:Drivers/STM32G4xx_HAL_Driver/Src/stm32g4xx_hal_flash.c ****   }
 828              		.loc 1 571 12 view .LVU219
 829 0016 0020     		movs	r0, #0
 830              	.LVL62:
 574:Drivers/STM32G4xx_HAL_Driver/Src/stm32g4xx_hal_flash.c **** }
ARM GAS  /tmp/ccMYOmG8.s 			page 48


 831              		.loc 1 574 3 is_stmt 1 view .LVU220
 575:Drivers/STM32G4xx_HAL_Driver/Src/stm32g4xx_hal_flash.c **** 
 832              		.loc 1 575 1 is_stmt 0 view .LVU221
 833 0018 7047     		bx	lr
 834              	.L65:
 835 001a 00BF     		.align	2
 836              	.L64:
 837 001c 00200240 		.word	1073881088
 838              		.cfi_endproc
 839              	.LFE140:
 841              		.section	.text.HAL_FLASH_GetError,"ax",%progbits
 842              		.align	1
 843              		.global	HAL_FLASH_GetError
 844              		.syntax unified
 845              		.thumb
 846              		.thumb_func
 847              		.fpu fpv4-sp-d16
 849              	HAL_FLASH_GetError:
 850              	.LFB142:
 630:Drivers/STM32G4xx_HAL_Driver/Src/stm32g4xx_hal_flash.c ****   return pFlash.ErrorCode;
 851              		.loc 1 630 1 is_stmt 1 view -0
 852              		.cfi_startproc
 853              		@ args = 0, pretend = 0, frame = 0
 854              		@ frame_needed = 0, uses_anonymous_args = 0
 855              		@ link register save eliminated.
 631:Drivers/STM32G4xx_HAL_Driver/Src/stm32g4xx_hal_flash.c **** }
 856              		.loc 1 631 3 view .LVU223
 631:Drivers/STM32G4xx_HAL_Driver/Src/stm32g4xx_hal_flash.c **** }
 857              		.loc 1 631 16 is_stmt 0 view .LVU224
 858 0000 014B     		ldr	r3, .L67
 859 0002 5868     		ldr	r0, [r3, #4]
 632:Drivers/STM32G4xx_HAL_Driver/Src/stm32g4xx_hal_flash.c **** 
 860              		.loc 1 632 1 view .LVU225
 861 0004 7047     		bx	lr
 862              	.L68:
 863 0006 00BF     		.align	2
 864              	.L67:
 865 0008 00000000 		.word	.LANCHOR0
 866              		.cfi_endproc
 867              	.LFE142:
 869              		.section	.text.FLASH_WaitForLastOperation,"ax",%progbits
 870              		.align	1
 871              		.global	FLASH_WaitForLastOperation
 872              		.syntax unified
 873              		.thumb
 874              		.thumb_func
 875              		.fpu fpv4-sp-d16
 877              	FLASH_WaitForLastOperation:
 878              	.LVL63:
 879              	.LFB143:
 654:Drivers/STM32G4xx_HAL_Driver/Src/stm32g4xx_hal_flash.c ****   /* Wait for the FLASH operation to complete by polling on BUSY flag to be reset.
 880              		.loc 1 654 1 is_stmt 1 view -0
 881              		.cfi_startproc
 882              		@ args = 0, pretend = 0, frame = 0
 883              		@ frame_needed = 0, uses_anonymous_args = 0
 654:Drivers/STM32G4xx_HAL_Driver/Src/stm32g4xx_hal_flash.c ****   /* Wait for the FLASH operation to complete by polling on BUSY flag to be reset.
 884              		.loc 1 654 1 is_stmt 0 view .LVU227
ARM GAS  /tmp/ccMYOmG8.s 			page 49


 885 0000 38B5     		push	{r3, r4, r5, lr}
 886              	.LCFI3:
 887              		.cfi_def_cfa_offset 16
 888              		.cfi_offset 3, -16
 889              		.cfi_offset 4, -12
 890              		.cfi_offset 5, -8
 891              		.cfi_offset 14, -4
 892 0002 0546     		mov	r5, r0
 659:Drivers/STM32G4xx_HAL_Driver/Src/stm32g4xx_hal_flash.c ****   uint32_t error;
 893              		.loc 1 659 3 is_stmt 1 view .LVU228
 659:Drivers/STM32G4xx_HAL_Driver/Src/stm32g4xx_hal_flash.c ****   uint32_t error;
 894              		.loc 1 659 24 is_stmt 0 view .LVU229
 895 0004 FFF7FEFF 		bl	HAL_GetTick
 896              	.LVL64:
 659:Drivers/STM32G4xx_HAL_Driver/Src/stm32g4xx_hal_flash.c ****   uint32_t error;
 897              		.loc 1 659 24 view .LVU230
 898 0008 0446     		mov	r4, r0
 899              	.LVL65:
 660:Drivers/STM32G4xx_HAL_Driver/Src/stm32g4xx_hal_flash.c **** 
 900              		.loc 1 660 3 is_stmt 1 view .LVU231
 662:Drivers/STM32G4xx_HAL_Driver/Src/stm32g4xx_hal_flash.c ****   {
 901              		.loc 1 662 3 view .LVU232
 902              	.L70:
 662:Drivers/STM32G4xx_HAL_Driver/Src/stm32g4xx_hal_flash.c ****   {
 903              		.loc 1 662 9 view .LVU233
 662:Drivers/STM32G4xx_HAL_Driver/Src/stm32g4xx_hal_flash.c ****   {
 904              		.loc 1 662 10 is_stmt 0 view .LVU234
 905 000a 134B     		ldr	r3, .L79
 906 000c 1B69     		ldr	r3, [r3, #16]
 662:Drivers/STM32G4xx_HAL_Driver/Src/stm32g4xx_hal_flash.c ****   {
 907              		.loc 1 662 9 view .LVU235
 908 000e 13F4803F 		tst	r3, #65536
 909 0012 06D0     		beq	.L77
 664:Drivers/STM32G4xx_HAL_Driver/Src/stm32g4xx_hal_flash.c ****     {
 910              		.loc 1 664 5 is_stmt 1 view .LVU236
 664:Drivers/STM32G4xx_HAL_Driver/Src/stm32g4xx_hal_flash.c ****     {
 911              		.loc 1 664 10 is_stmt 0 view .LVU237
 912 0014 FFF7FEFF 		bl	HAL_GetTick
 913              	.LVL66:
 664:Drivers/STM32G4xx_HAL_Driver/Src/stm32g4xx_hal_flash.c ****     {
 914              		.loc 1 664 24 view .LVU238
 915 0018 001B     		subs	r0, r0, r4
 664:Drivers/STM32G4xx_HAL_Driver/Src/stm32g4xx_hal_flash.c ****     {
 916              		.loc 1 664 8 view .LVU239
 917 001a A842     		cmp	r0, r5
 918 001c F5D9     		bls	.L70
 666:Drivers/STM32G4xx_HAL_Driver/Src/stm32g4xx_hal_flash.c ****     }
 919              		.loc 1 666 14 view .LVU240
 920 001e 0320     		movs	r0, #3
 921              	.L71:
 692:Drivers/STM32G4xx_HAL_Driver/Src/stm32g4xx_hal_flash.c **** 
 922              		.loc 1 692 1 view .LVU241
 923 0020 38BD     		pop	{r3, r4, r5, pc}
 924              	.LVL67:
 925              	.L77:
 671:Drivers/STM32G4xx_HAL_Driver/Src/stm32g4xx_hal_flash.c ****   if (error != 0u)
 926              		.loc 1 671 3 is_stmt 1 view .LVU242
ARM GAS  /tmp/ccMYOmG8.s 			page 50


 671:Drivers/STM32G4xx_HAL_Driver/Src/stm32g4xx_hal_flash.c ****   if (error != 0u)
 927              		.loc 1 671 17 is_stmt 0 view .LVU243
 928 0022 0D4B     		ldr	r3, .L79
 929 0024 1B69     		ldr	r3, [r3, #16]
 671:Drivers/STM32G4xx_HAL_Driver/Src/stm32g4xx_hal_flash.c ****   if (error != 0u)
 930              		.loc 1 671 9 view .LVU244
 931 0026 4CF2FA32 		movw	r2, #50170
 932              	.LVL68:
 672:Drivers/STM32G4xx_HAL_Driver/Src/stm32g4xx_hal_flash.c ****   {
 933              		.loc 1 672 3 is_stmt 1 view .LVU245
 672:Drivers/STM32G4xx_HAL_Driver/Src/stm32g4xx_hal_flash.c ****   {
 934              		.loc 1 672 6 is_stmt 0 view .LVU246
 935 002a 1340     		ands	r3, r3, r2
 936              	.LVL69:
 672:Drivers/STM32G4xx_HAL_Driver/Src/stm32g4xx_hal_flash.c ****   {
 937              		.loc 1 672 6 view .LVU247
 938 002c 09D1     		bne	.L78
 684:Drivers/STM32G4xx_HAL_Driver/Src/stm32g4xx_hal_flash.c ****   {
 939              		.loc 1 684 3 is_stmt 1 view .LVU248
 684:Drivers/STM32G4xx_HAL_Driver/Src/stm32g4xx_hal_flash.c ****   {
 940              		.loc 1 684 7 is_stmt 0 view .LVU249
 941 002e 0A4B     		ldr	r3, .L79
 942              	.LVL70:
 684:Drivers/STM32G4xx_HAL_Driver/Src/stm32g4xx_hal_flash.c ****   {
 943              		.loc 1 684 7 view .LVU250
 944 0030 1B69     		ldr	r3, [r3, #16]
 684:Drivers/STM32G4xx_HAL_Driver/Src/stm32g4xx_hal_flash.c ****   {
 945              		.loc 1 684 6 view .LVU251
 946 0032 13F0010F 		tst	r3, #1
 947 0036 0CD0     		beq	.L75
 687:Drivers/STM32G4xx_HAL_Driver/Src/stm32g4xx_hal_flash.c ****   }
 948              		.loc 1 687 5 is_stmt 1 discriminator 4 view .LVU252
 687:Drivers/STM32G4xx_HAL_Driver/Src/stm32g4xx_hal_flash.c ****   }
 949              		.loc 1 687 5 discriminator 4 view .LVU253
 687:Drivers/STM32G4xx_HAL_Driver/Src/stm32g4xx_hal_flash.c ****   }
 950              		.loc 1 687 5 discriminator 4 view .LVU254
 687:Drivers/STM32G4xx_HAL_Driver/Src/stm32g4xx_hal_flash.c ****   }
 951              		.loc 1 687 5 discriminator 4 view .LVU255
 952 0038 074B     		ldr	r3, .L79
 953 003a 0122     		movs	r2, #1
 954 003c 1A61     		str	r2, [r3, #16]
 691:Drivers/STM32G4xx_HAL_Driver/Src/stm32g4xx_hal_flash.c **** }
 955              		.loc 1 691 10 is_stmt 0 discriminator 4 view .LVU256
 956 003e 0020     		movs	r0, #0
 957 0040 EEE7     		b	.L71
 958              	.LVL71:
 959              	.L78:
 675:Drivers/STM32G4xx_HAL_Driver/Src/stm32g4xx_hal_flash.c **** 
 960              		.loc 1 675 5 is_stmt 1 view .LVU257
 675:Drivers/STM32G4xx_HAL_Driver/Src/stm32g4xx_hal_flash.c **** 
 961              		.loc 1 675 22 is_stmt 0 view .LVU258
 962 0042 0649     		ldr	r1, .L79+4
 963 0044 4A68     		ldr	r2, [r1, #4]
 964 0046 1A43     		orrs	r2, r2, r3
 965 0048 4A60     		str	r2, [r1, #4]
 678:Drivers/STM32G4xx_HAL_Driver/Src/stm32g4xx_hal_flash.c **** 
 966              		.loc 1 678 5 is_stmt 1 view .LVU259
ARM GAS  /tmp/ccMYOmG8.s 			page 51


 678:Drivers/STM32G4xx_HAL_Driver/Src/stm32g4xx_hal_flash.c **** 
 967              		.loc 1 678 5 view .LVU260
 678:Drivers/STM32G4xx_HAL_Driver/Src/stm32g4xx_hal_flash.c **** 
 968              		.loc 1 678 5 view .LVU261
 678:Drivers/STM32G4xx_HAL_Driver/Src/stm32g4xx_hal_flash.c **** 
 969              		.loc 1 678 5 view .LVU262
 970 004a 034A     		ldr	r2, .L79
 971 004c 1361     		str	r3, [r2, #16]
 678:Drivers/STM32G4xx_HAL_Driver/Src/stm32g4xx_hal_flash.c **** 
 972              		.loc 1 678 5 view .LVU263
 680:Drivers/STM32G4xx_HAL_Driver/Src/stm32g4xx_hal_flash.c ****   }
 973              		.loc 1 680 5 view .LVU264
 680:Drivers/STM32G4xx_HAL_Driver/Src/stm32g4xx_hal_flash.c ****   }
 974              		.loc 1 680 12 is_stmt 0 view .LVU265
 975 004e 0120     		movs	r0, #1
 976 0050 E6E7     		b	.L71
 977              	.LVL72:
 978              	.L75:
 691:Drivers/STM32G4xx_HAL_Driver/Src/stm32g4xx_hal_flash.c **** }
 979              		.loc 1 691 10 view .LVU266
 980 0052 0020     		movs	r0, #0
 981 0054 E4E7     		b	.L71
 982              	.L80:
 983 0056 00BF     		.align	2
 984              	.L79:
 985 0058 00200240 		.word	1073881088
 986 005c 00000000 		.word	.LANCHOR0
 987              		.cfi_endproc
 988              	.LFE143:
 990              		.section	.text.HAL_FLASH_Program,"ax",%progbits
 991              		.align	1
 992              		.global	HAL_FLASH_Program
 993              		.syntax unified
 994              		.thumb
 995              		.thumb_func
 996              		.fpu fpv4-sp-d16
 998              	HAL_FLASH_Program:
 999              	.LVL73:
 1000              	.LFB132:
 175:Drivers/STM32G4xx_HAL_Driver/Src/stm32g4xx_hal_flash.c ****   HAL_StatusTypeDef status;
 1001              		.loc 1 175 1 is_stmt 1 view -0
 1002              		.cfi_startproc
 1003              		@ args = 0, pretend = 0, frame = 0
 1004              		@ frame_needed = 0, uses_anonymous_args = 0
 175:Drivers/STM32G4xx_HAL_Driver/Src/stm32g4xx_hal_flash.c ****   HAL_StatusTypeDef status;
 1005              		.loc 1 175 1 is_stmt 0 view .LVU268
 1006 0000 F8B5     		push	{r3, r4, r5, r6, r7, lr}
 1007              	.LCFI4:
 1008              		.cfi_def_cfa_offset 24
 1009              		.cfi_offset 3, -24
 1010              		.cfi_offset 4, -20
 1011              		.cfi_offset 5, -16
 1012              		.cfi_offset 6, -12
 1013              		.cfi_offset 7, -8
 1014              		.cfi_offset 14, -4
 1015 0002 0446     		mov	r4, r0
 1016 0004 0D46     		mov	r5, r1
ARM GAS  /tmp/ccMYOmG8.s 			page 52


 1017 0006 1646     		mov	r6, r2
 1018 0008 1F46     		mov	r7, r3
 176:Drivers/STM32G4xx_HAL_Driver/Src/stm32g4xx_hal_flash.c ****   uint32_t prog_bit = 0;
 1019              		.loc 1 176 3 is_stmt 1 view .LVU269
 177:Drivers/STM32G4xx_HAL_Driver/Src/stm32g4xx_hal_flash.c **** 
 1020              		.loc 1 177 3 view .LVU270
 1021              	.LVL74:
 180:Drivers/STM32G4xx_HAL_Driver/Src/stm32g4xx_hal_flash.c **** 
 1022              		.loc 1 180 3 view .LVU271
 1023 000a 0228     		cmp	r0, #2
 1024 000c 20D8     		bhi	.L91
 1025              	.LVL75:
 1026              	.L82:
 183:Drivers/STM32G4xx_HAL_Driver/Src/stm32g4xx_hal_flash.c **** 
 1027              		.loc 1 183 3 view .LVU272
 183:Drivers/STM32G4xx_HAL_Driver/Src/stm32g4xx_hal_flash.c **** 
 1028              		.loc 1 183 3 view .LVU273
 1029 000e 1D4A     		ldr	r2, .L94
 1030 0010 1278     		ldrb	r2, [r2]	@ zero_extendqisi2
 1031 0012 012A     		cmp	r2, #1
 1032 0014 33D0     		beq	.L87
 183:Drivers/STM32G4xx_HAL_Driver/Src/stm32g4xx_hal_flash.c **** 
 1033              		.loc 1 183 3 discriminator 2 view .LVU274
 1034 0016 1B4B     		ldr	r3, .L94
 1035 0018 0122     		movs	r2, #1
 1036 001a 1A70     		strb	r2, [r3]
 183:Drivers/STM32G4xx_HAL_Driver/Src/stm32g4xx_hal_flash.c **** 
 1037              		.loc 1 183 3 discriminator 2 view .LVU275
 186:Drivers/STM32G4xx_HAL_Driver/Src/stm32g4xx_hal_flash.c **** 
 1038              		.loc 1 186 3 discriminator 2 view .LVU276
 186:Drivers/STM32G4xx_HAL_Driver/Src/stm32g4xx_hal_flash.c **** 
 1039              		.loc 1 186 12 is_stmt 0 discriminator 2 view .LVU277
 1040 001c 4FF47A70 		mov	r0, #1000
 1041 0020 FFF7FEFF 		bl	FLASH_WaitForLastOperation
 1042              	.LVL76:
 188:Drivers/STM32G4xx_HAL_Driver/Src/stm32g4xx_hal_flash.c ****   {
 1043              		.loc 1 188 3 is_stmt 1 discriminator 2 view .LVU278
 188:Drivers/STM32G4xx_HAL_Driver/Src/stm32g4xx_hal_flash.c ****   {
 1044              		.loc 1 188 6 is_stmt 0 discriminator 2 view .LVU279
 1045 0024 80B9     		cbnz	r0, .L84
 190:Drivers/STM32G4xx_HAL_Driver/Src/stm32g4xx_hal_flash.c **** 
 1046              		.loc 1 190 5 is_stmt 1 view .LVU280
 190:Drivers/STM32G4xx_HAL_Driver/Src/stm32g4xx_hal_flash.c **** 
 1047              		.loc 1 190 22 is_stmt 0 view .LVU281
 1048 0026 174B     		ldr	r3, .L94
 1049 0028 5860     		str	r0, [r3, #4]
 192:Drivers/STM32G4xx_HAL_Driver/Src/stm32g4xx_hal_flash.c ****     {
 1050              		.loc 1 192 5 is_stmt 1 view .LVU282
 192:Drivers/STM32G4xx_HAL_Driver/Src/stm32g4xx_hal_flash.c ****     {
 1051              		.loc 1 192 8 is_stmt 0 view .LVU283
 1052 002a B4B1     		cbz	r4, .L92
 198:Drivers/STM32G4xx_HAL_Driver/Src/stm32g4xx_hal_flash.c ****     {
 1053              		.loc 1 198 10 is_stmt 1 view .LVU284
 198:Drivers/STM32G4xx_HAL_Driver/Src/stm32g4xx_hal_flash.c ****     {
 1054              		.loc 1 198 54 is_stmt 0 view .LVU285
 1055 002c 631E     		subs	r3, r4, #1
 198:Drivers/STM32G4xx_HAL_Driver/Src/stm32g4xx_hal_flash.c ****     {
ARM GAS  /tmp/ccMYOmG8.s 			page 53


 1056              		.loc 1 198 13 view .LVU286
 1057 002e 012B     		cmp	r3, #1
 1058 0030 1AD9     		bls	.L93
 177:Drivers/STM32G4xx_HAL_Driver/Src/stm32g4xx_hal_flash.c **** 
 1059              		.loc 1 177 12 view .LVU287
 1060 0032 0024     		movs	r4, #0
 1061              	.LVL77:
 1062              	.L86:
 212:Drivers/STM32G4xx_HAL_Driver/Src/stm32g4xx_hal_flash.c **** 
 1063              		.loc 1 212 5 is_stmt 1 view .LVU288
 215:Drivers/STM32G4xx_HAL_Driver/Src/stm32g4xx_hal_flash.c **** 
 1064              		.loc 1 215 5 view .LVU289
 215:Drivers/STM32G4xx_HAL_Driver/Src/stm32g4xx_hal_flash.c **** 
 1065              		.loc 1 215 14 is_stmt 0 view .LVU290
 1066 0034 4FF47A70 		mov	r0, #1000
 1067 0038 FFF7FEFF 		bl	FLASH_WaitForLastOperation
 1068              	.LVL78:
 218:Drivers/STM32G4xx_HAL_Driver/Src/stm32g4xx_hal_flash.c ****     {
 1069              		.loc 1 218 5 is_stmt 1 view .LVU291
 218:Drivers/STM32G4xx_HAL_Driver/Src/stm32g4xx_hal_flash.c ****     {
 1070              		.loc 1 218 8 is_stmt 0 view .LVU292
 1071 003c 24B1     		cbz	r4, .L84
 220:Drivers/STM32G4xx_HAL_Driver/Src/stm32g4xx_hal_flash.c ****     }
 1072              		.loc 1 220 7 is_stmt 1 view .LVU293
 1073 003e 124A     		ldr	r2, .L94+4
 1074 0040 5369     		ldr	r3, [r2, #20]
 1075 0042 23EA0404 		bic	r4, r3, r4
 1076              	.LVL79:
 220:Drivers/STM32G4xx_HAL_Driver/Src/stm32g4xx_hal_flash.c ****     }
 1077              		.loc 1 220 7 is_stmt 0 view .LVU294
 1078 0046 5461     		str	r4, [r2, #20]
 1079              	.L84:
 225:Drivers/STM32G4xx_HAL_Driver/Src/stm32g4xx_hal_flash.c **** 
 1080              		.loc 1 225 3 is_stmt 1 view .LVU295
 225:Drivers/STM32G4xx_HAL_Driver/Src/stm32g4xx_hal_flash.c **** 
 1081              		.loc 1 225 3 view .LVU296
 1082 0048 0E4B     		ldr	r3, .L94
 1083 004a 0022     		movs	r2, #0
 1084 004c 1A70     		strb	r2, [r3]
 225:Drivers/STM32G4xx_HAL_Driver/Src/stm32g4xx_hal_flash.c **** 
 1085              		.loc 1 225 3 view .LVU297
 228:Drivers/STM32G4xx_HAL_Driver/Src/stm32g4xx_hal_flash.c **** }
 1086              		.loc 1 228 3 view .LVU298
 1087              	.LVL80:
 1088              	.L83:
 229:Drivers/STM32G4xx_HAL_Driver/Src/stm32g4xx_hal_flash.c **** 
 1089              		.loc 1 229 1 is_stmt 0 view .LVU299
 1090 004e F8BD     		pop	{r3, r4, r5, r6, r7, pc}
 1091              	.LVL81:
 1092              	.L91:
 180:Drivers/STM32G4xx_HAL_Driver/Src/stm32g4xx_hal_flash.c **** 
 1093              		.loc 1 180 3 discriminator 1 view .LVU300
 1094 0050 B421     		movs	r1, #180
 1095              	.LVL82:
 180:Drivers/STM32G4xx_HAL_Driver/Src/stm32g4xx_hal_flash.c **** 
 1096              		.loc 1 180 3 discriminator 1 view .LVU301
 1097 0052 0E48     		ldr	r0, .L94+8
ARM GAS  /tmp/ccMYOmG8.s 			page 54


 1098              	.LVL83:
 180:Drivers/STM32G4xx_HAL_Driver/Src/stm32g4xx_hal_flash.c **** 
 1099              		.loc 1 180 3 discriminator 1 view .LVU302
 1100 0054 FFF7FEFF 		bl	assert_failed
 1101              	.LVL84:
 180:Drivers/STM32G4xx_HAL_Driver/Src/stm32g4xx_hal_flash.c **** 
 1102              		.loc 1 180 3 discriminator 1 view .LVU303
 1103 0058 D9E7     		b	.L82
 1104              	.LVL85:
 1105              	.L92:
 195:Drivers/STM32G4xx_HAL_Driver/Src/stm32g4xx_hal_flash.c ****       prog_bit = FLASH_CR_PG;
 1106              		.loc 1 195 7 is_stmt 1 view .LVU304
 1107 005a 3246     		mov	r2, r6
 1108 005c 3B46     		mov	r3, r7
 1109 005e 2846     		mov	r0, r5
 1110              	.LVL86:
 195:Drivers/STM32G4xx_HAL_Driver/Src/stm32g4xx_hal_flash.c ****       prog_bit = FLASH_CR_PG;
 1111              		.loc 1 195 7 is_stmt 0 view .LVU305
 1112 0060 FFF7FEFF 		bl	FLASH_Program_DoubleWord
 1113              	.LVL87:
 196:Drivers/STM32G4xx_HAL_Driver/Src/stm32g4xx_hal_flash.c ****     }
 1114              		.loc 1 196 7 is_stmt 1 view .LVU306
 196:Drivers/STM32G4xx_HAL_Driver/Src/stm32g4xx_hal_flash.c ****     }
 1115              		.loc 1 196 16 is_stmt 0 view .LVU307
 1116 0064 0124     		movs	r4, #1
 1117              	.LVL88:
 196:Drivers/STM32G4xx_HAL_Driver/Src/stm32g4xx_hal_flash.c ****     }
 1118              		.loc 1 196 16 view .LVU308
 1119 0066 E5E7     		b	.L86
 1120              	.LVL89:
 1121              	.L93:
 201:Drivers/STM32G4xx_HAL_Driver/Src/stm32g4xx_hal_flash.c **** 
 1122              		.loc 1 201 7 is_stmt 1 view .LVU309
 1123 0068 3146     		mov	r1, r6
 1124 006a 2846     		mov	r0, r5
 1125              	.LVL90:
 201:Drivers/STM32G4xx_HAL_Driver/Src/stm32g4xx_hal_flash.c **** 
 1126              		.loc 1 201 7 is_stmt 0 view .LVU310
 1127 006c FFF7FEFF 		bl	FLASH_Program_Fast
 1128              	.LVL91:
 204:Drivers/STM32G4xx_HAL_Driver/Src/stm32g4xx_hal_flash.c ****       {
 1129              		.loc 1 204 7 is_stmt 1 view .LVU311
 204:Drivers/STM32G4xx_HAL_Driver/Src/stm32g4xx_hal_flash.c ****       {
 1130              		.loc 1 204 10 is_stmt 0 view .LVU312
 1131 0070 022C     		cmp	r4, #2
 1132 0072 01D0     		beq	.L89
 177:Drivers/STM32G4xx_HAL_Driver/Src/stm32g4xx_hal_flash.c **** 
 1133              		.loc 1 177 12 view .LVU313
 1134 0074 0024     		movs	r4, #0
 1135              	.LVL92:
 177:Drivers/STM32G4xx_HAL_Driver/Src/stm32g4xx_hal_flash.c **** 
 1136              		.loc 1 177 12 view .LVU314
 1137 0076 DDE7     		b	.L86
 1138              	.LVL93:
 1139              	.L89:
 206:Drivers/STM32G4xx_HAL_Driver/Src/stm32g4xx_hal_flash.c ****       }
 1140              		.loc 1 206 18 view .LVU315
ARM GAS  /tmp/ccMYOmG8.s 			page 55


 1141 0078 4FF48024 		mov	r4, #262144
 1142              	.LVL94:
 206:Drivers/STM32G4xx_HAL_Driver/Src/stm32g4xx_hal_flash.c ****       }
 1143              		.loc 1 206 18 view .LVU316
 1144 007c DAE7     		b	.L86
 1145              	.LVL95:
 1146              	.L87:
 183:Drivers/STM32G4xx_HAL_Driver/Src/stm32g4xx_hal_flash.c **** 
 1147              		.loc 1 183 3 view .LVU317
 1148 007e 0220     		movs	r0, #2
 1149 0080 E5E7     		b	.L83
 1150              	.L95:
 1151 0082 00BF     		.align	2
 1152              	.L94:
 1153 0084 00000000 		.word	.LANCHOR0
 1154 0088 00200240 		.word	1073881088
 1155 008c 00000000 		.word	.LC0
 1156              		.cfi_endproc
 1157              	.LFE132:
 1159              		.section	.text.HAL_FLASH_Program_IT,"ax",%progbits
 1160              		.align	1
 1161              		.global	HAL_FLASH_Program_IT
 1162              		.syntax unified
 1163              		.thumb
 1164              		.thumb_func
 1165              		.fpu fpv4-sp-d16
 1167              	HAL_FLASH_Program_IT:
 1168              	.LVL96:
 1169              	.LFB133:
 243:Drivers/STM32G4xx_HAL_Driver/Src/stm32g4xx_hal_flash.c ****   HAL_StatusTypeDef status;
 1170              		.loc 1 243 1 is_stmt 1 view -0
 1171              		.cfi_startproc
 1172              		@ args = 0, pretend = 0, frame = 0
 1173              		@ frame_needed = 0, uses_anonymous_args = 0
 243:Drivers/STM32G4xx_HAL_Driver/Src/stm32g4xx_hal_flash.c ****   HAL_StatusTypeDef status;
 1174              		.loc 1 243 1 is_stmt 0 view .LVU319
 1175 0000 2DE9F041 		push	{r4, r5, r6, r7, r8, lr}
 1176              	.LCFI5:
 1177              		.cfi_def_cfa_offset 24
 1178              		.cfi_offset 4, -24
 1179              		.cfi_offset 5, -20
 1180              		.cfi_offset 6, -16
 1181              		.cfi_offset 7, -12
 1182              		.cfi_offset 8, -8
 1183              		.cfi_offset 14, -4
 1184 0004 0446     		mov	r4, r0
 1185 0006 0D46     		mov	r5, r1
 1186 0008 1646     		mov	r6, r2
 1187 000a 1F46     		mov	r7, r3
 244:Drivers/STM32G4xx_HAL_Driver/Src/stm32g4xx_hal_flash.c **** 
 1188              		.loc 1 244 3 is_stmt 1 view .LVU320
 247:Drivers/STM32G4xx_HAL_Driver/Src/stm32g4xx_hal_flash.c **** 
 1189              		.loc 1 247 3 view .LVU321
 1190 000c 0228     		cmp	r0, #2
 1191 000e 14D8     		bhi	.L105
 1192              	.LVL97:
 1193              	.L97:
ARM GAS  /tmp/ccMYOmG8.s 			page 56


 250:Drivers/STM32G4xx_HAL_Driver/Src/stm32g4xx_hal_flash.c **** 
 1194              		.loc 1 250 3 view .LVU322
 250:Drivers/STM32G4xx_HAL_Driver/Src/stm32g4xx_hal_flash.c **** 
 1195              		.loc 1 250 3 view .LVU323
 1196 0010 1D4A     		ldr	r2, .L108
 1197 0012 1278     		ldrb	r2, [r2]	@ zero_extendqisi2
 1198 0014 012A     		cmp	r2, #1
 1199 0016 34D0     		beq	.L103
 250:Drivers/STM32G4xx_HAL_Driver/Src/stm32g4xx_hal_flash.c **** 
 1200              		.loc 1 250 3 discriminator 2 view .LVU324
 1201 0018 1B4A     		ldr	r2, .L108
 1202 001a 0123     		movs	r3, #1
 1203 001c 1370     		strb	r3, [r2]
 250:Drivers/STM32G4xx_HAL_Driver/Src/stm32g4xx_hal_flash.c **** 
 1204              		.loc 1 250 3 discriminator 2 view .LVU325
 253:Drivers/STM32G4xx_HAL_Driver/Src/stm32g4xx_hal_flash.c **** 
 1205              		.loc 1 253 3 discriminator 2 view .LVU326
 253:Drivers/STM32G4xx_HAL_Driver/Src/stm32g4xx_hal_flash.c **** 
 1206              		.loc 1 253 20 is_stmt 0 discriminator 2 view .LVU327
 1207 001e 0023     		movs	r3, #0
 1208 0020 5360     		str	r3, [r2, #4]
 256:Drivers/STM32G4xx_HAL_Driver/Src/stm32g4xx_hal_flash.c **** 
 1209              		.loc 1 256 3 is_stmt 1 discriminator 2 view .LVU328
 256:Drivers/STM32G4xx_HAL_Driver/Src/stm32g4xx_hal_flash.c **** 
 1210              		.loc 1 256 12 is_stmt 0 discriminator 2 view .LVU329
 1211 0022 4FF47A70 		mov	r0, #1000
 1212 0026 FFF7FEFF 		bl	FLASH_WaitForLastOperation
 1213              	.LVL98:
 258:Drivers/STM32G4xx_HAL_Driver/Src/stm32g4xx_hal_flash.c ****   {
 1214              		.loc 1 258 3 is_stmt 1 discriminator 2 view .LVU330
 258:Drivers/STM32G4xx_HAL_Driver/Src/stm32g4xx_hal_flash.c ****   {
 1215              		.loc 1 258 6 is_stmt 0 discriminator 2 view .LVU331
 1216 002a 8046     		mov	r8, r0
 1217 002c 50B1     		cbz	r0, .L99
 261:Drivers/STM32G4xx_HAL_Driver/Src/stm32g4xx_hal_flash.c ****   }
 1218              		.loc 1 261 5 is_stmt 1 view .LVU332
 261:Drivers/STM32G4xx_HAL_Driver/Src/stm32g4xx_hal_flash.c ****   }
 1219              		.loc 1 261 5 view .LVU333
 1220 002e 164B     		ldr	r3, .L108
 1221 0030 0022     		movs	r2, #0
 1222 0032 1A70     		strb	r2, [r3]
 261:Drivers/STM32G4xx_HAL_Driver/Src/stm32g4xx_hal_flash.c ****   }
 1223              		.loc 1 261 5 view .LVU334
 1224              	.LVL99:
 1225              	.L98:
 296:Drivers/STM32G4xx_HAL_Driver/Src/stm32g4xx_hal_flash.c **** 
 1226              		.loc 1 296 1 is_stmt 0 view .LVU335
 1227 0034 4046     		mov	r0, r8
 1228 0036 BDE8F081 		pop	{r4, r5, r6, r7, r8, pc}
 1229              	.LVL100:
 1230              	.L105:
 247:Drivers/STM32G4xx_HAL_Driver/Src/stm32g4xx_hal_flash.c **** 
 1231              		.loc 1 247 3 discriminator 1 view .LVU336
 1232 003a F721     		movs	r1, #247
 1233              	.LVL101:
 247:Drivers/STM32G4xx_HAL_Driver/Src/stm32g4xx_hal_flash.c **** 
 1234              		.loc 1 247 3 discriminator 1 view .LVU337
ARM GAS  /tmp/ccMYOmG8.s 			page 57


 1235 003c 1348     		ldr	r0, .L108+4
 1236              	.LVL102:
 247:Drivers/STM32G4xx_HAL_Driver/Src/stm32g4xx_hal_flash.c **** 
 1237              		.loc 1 247 3 discriminator 1 view .LVU338
 1238 003e FFF7FEFF 		bl	assert_failed
 1239              	.LVL103:
 247:Drivers/STM32G4xx_HAL_Driver/Src/stm32g4xx_hal_flash.c **** 
 1240              		.loc 1 247 3 discriminator 1 view .LVU339
 1241 0042 E5E7     		b	.L97
 1242              	.LVL104:
 1243              	.L99:
 266:Drivers/STM32G4xx_HAL_Driver/Src/stm32g4xx_hal_flash.c ****     {
 1244              		.loc 1 266 5 is_stmt 1 view .LVU340
 266:Drivers/STM32G4xx_HAL_Driver/Src/stm32g4xx_hal_flash.c ****     {
 1245              		.loc 1 266 8 is_stmt 0 view .LVU341
 1246 0044 022C     		cmp	r4, #2
 1247 0046 12D0     		beq	.L106
 272:Drivers/STM32G4xx_HAL_Driver/Src/stm32g4xx_hal_flash.c ****     }
 1248              		.loc 1 272 7 is_stmt 1 view .LVU342
 272:Drivers/STM32G4xx_HAL_Driver/Src/stm32g4xx_hal_flash.c ****     }
 1249              		.loc 1 272 31 is_stmt 0 view .LVU343
 1250 0048 0F4B     		ldr	r3, .L108
 1251 004a 0322     		movs	r2, #3
 1252 004c 1A72     		strb	r2, [r3, #8]
 1253              	.L101:
 274:Drivers/STM32G4xx_HAL_Driver/Src/stm32g4xx_hal_flash.c **** 
 1254              		.loc 1 274 5 is_stmt 1 view .LVU344
 274:Drivers/STM32G4xx_HAL_Driver/Src/stm32g4xx_hal_flash.c **** 
 1255              		.loc 1 274 20 is_stmt 0 view .LVU345
 1256 004e 0E4B     		ldr	r3, .L108
 1257 0050 DD60     		str	r5, [r3, #12]
 277:Drivers/STM32G4xx_HAL_Driver/Src/stm32g4xx_hal_flash.c **** 
 1258              		.loc 1 277 5 is_stmt 1 view .LVU346
 277:Drivers/STM32G4xx_HAL_Driver/Src/stm32g4xx_hal_flash.c **** 
 1259              		.loc 1 277 5 view .LVU347
 277:Drivers/STM32G4xx_HAL_Driver/Src/stm32g4xx_hal_flash.c **** 
 1260              		.loc 1 277 5 view .LVU348
 277:Drivers/STM32G4xx_HAL_Driver/Src/stm32g4xx_hal_flash.c **** 
 1261              		.loc 1 277 5 view .LVU349
 1262 0052 0F4A     		ldr	r2, .L108+8
 1263 0054 5369     		ldr	r3, [r2, #20]
 1264 0056 43F04073 		orr	r3, r3, #50331648
 1265 005a 5361     		str	r3, [r2, #20]
 277:Drivers/STM32G4xx_HAL_Driver/Src/stm32g4xx_hal_flash.c **** 
 1266              		.loc 1 277 5 view .LVU350
 279:Drivers/STM32G4xx_HAL_Driver/Src/stm32g4xx_hal_flash.c ****     {
 1267              		.loc 1 279 5 view .LVU351
 279:Drivers/STM32G4xx_HAL_Driver/Src/stm32g4xx_hal_flash.c ****     {
 1268              		.loc 1 279 8 is_stmt 0 view .LVU352
 1269 005c 5CB1     		cbz	r4, .L107
 284:Drivers/STM32G4xx_HAL_Driver/Src/stm32g4xx_hal_flash.c ****     {
 1270              		.loc 1 284 10 is_stmt 1 view .LVU353
 284:Drivers/STM32G4xx_HAL_Driver/Src/stm32g4xx_hal_flash.c ****     {
 1271              		.loc 1 284 54 is_stmt 0 view .LVU354
 1272 005e 013C     		subs	r4, r4, #1
 1273              	.LVL105:
 284:Drivers/STM32G4xx_HAL_Driver/Src/stm32g4xx_hal_flash.c ****     {
ARM GAS  /tmp/ccMYOmG8.s 			page 58


 1274              		.loc 1 284 13 view .LVU355
 1275 0060 012C     		cmp	r4, #1
 1276 0062 E7D8     		bhi	.L98
 287:Drivers/STM32G4xx_HAL_Driver/Src/stm32g4xx_hal_flash.c ****     }
 1277              		.loc 1 287 7 is_stmt 1 view .LVU356
 1278 0064 3146     		mov	r1, r6
 1279 0066 2846     		mov	r0, r5
 1280              	.LVL106:
 287:Drivers/STM32G4xx_HAL_Driver/Src/stm32g4xx_hal_flash.c ****     }
 1281              		.loc 1 287 7 is_stmt 0 view .LVU357
 1282 0068 FFF7FEFF 		bl	FLASH_Program_Fast
 1283              	.LVL107:
 1284 006c E2E7     		b	.L98
 1285              	.LVL108:
 1286              	.L106:
 268:Drivers/STM32G4xx_HAL_Driver/Src/stm32g4xx_hal_flash.c ****     }
 1287              		.loc 1 268 7 is_stmt 1 view .LVU358
 268:Drivers/STM32G4xx_HAL_Driver/Src/stm32g4xx_hal_flash.c ****     }
 1288              		.loc 1 268 31 is_stmt 0 view .LVU359
 1289 006e 064B     		ldr	r3, .L108
 1290 0070 0422     		movs	r2, #4
 1291 0072 1A72     		strb	r2, [r3, #8]
 1292 0074 EBE7     		b	.L101
 1293              	.L107:
 282:Drivers/STM32G4xx_HAL_Driver/Src/stm32g4xx_hal_flash.c ****     }
 1294              		.loc 1 282 7 is_stmt 1 view .LVU360
 1295 0076 3246     		mov	r2, r6
 1296 0078 3B46     		mov	r3, r7
 1297 007a 2846     		mov	r0, r5
 1298              	.LVL109:
 282:Drivers/STM32G4xx_HAL_Driver/Src/stm32g4xx_hal_flash.c ****     }
 1299              		.loc 1 282 7 is_stmt 0 view .LVU361
 1300 007c FFF7FEFF 		bl	FLASH_Program_DoubleWord
 1301              	.LVL110:
 1302 0080 D8E7     		b	.L98
 1303              	.L103:
 250:Drivers/STM32G4xx_HAL_Driver/Src/stm32g4xx_hal_flash.c **** 
 1304              		.loc 1 250 3 view .LVU362
 1305 0082 4FF00208 		mov	r8, #2
 1306 0086 D5E7     		b	.L98
 1307              	.L109:
 1308              		.align	2
 1309              	.L108:
 1310 0088 00000000 		.word	.LANCHOR0
 1311 008c 00000000 		.word	.LC0
 1312 0090 00200240 		.word	1073881088
 1313              		.cfi_endproc
 1314              	.LFE133:
 1316              		.section	.text.HAL_FLASH_OB_Launch,"ax",%progbits
 1317              		.align	1
 1318              		.global	HAL_FLASH_OB_Launch
 1319              		.syntax unified
 1320              		.thumb
 1321              		.thumb_func
 1322              		.fpu fpv4-sp-d16
 1324              	HAL_FLASH_OB_Launch:
 1325              	.LFB141:
ARM GAS  /tmp/ccMYOmG8.s 			page 59


 582:Drivers/STM32G4xx_HAL_Driver/Src/stm32g4xx_hal_flash.c ****   /* Set the bit to force the option byte reloading */
 1326              		.loc 1 582 1 is_stmt 1 view -0
 1327              		.cfi_startproc
 1328              		@ args = 0, pretend = 0, frame = 0
 1329              		@ frame_needed = 0, uses_anonymous_args = 0
 1330 0000 08B5     		push	{r3, lr}
 1331              	.LCFI6:
 1332              		.cfi_def_cfa_offset 8
 1333              		.cfi_offset 3, -8
 1334              		.cfi_offset 14, -4
 584:Drivers/STM32G4xx_HAL_Driver/Src/stm32g4xx_hal_flash.c **** 
 1335              		.loc 1 584 3 view .LVU364
 1336 0002 054A     		ldr	r2, .L112
 1337 0004 5369     		ldr	r3, [r2, #20]
 1338 0006 43F00063 		orr	r3, r3, #134217728
 1339 000a 5361     		str	r3, [r2, #20]
 587:Drivers/STM32G4xx_HAL_Driver/Src/stm32g4xx_hal_flash.c **** }
 1340              		.loc 1 587 3 view .LVU365
 587:Drivers/STM32G4xx_HAL_Driver/Src/stm32g4xx_hal_flash.c **** }
 1341              		.loc 1 587 11 is_stmt 0 view .LVU366
 1342 000c 4FF47A70 		mov	r0, #1000
 1343 0010 FFF7FEFF 		bl	FLASH_WaitForLastOperation
 1344              	.LVL111:
 588:Drivers/STM32G4xx_HAL_Driver/Src/stm32g4xx_hal_flash.c **** 
 1345              		.loc 1 588 1 view .LVU367
 1346 0014 08BD     		pop	{r3, pc}
 1347              	.L113:
 1348 0016 00BF     		.align	2
 1349              	.L112:
 1350 0018 00200240 		.word	1073881088
 1351              		.cfi_endproc
 1352              	.LFE141:
 1354              		.global	pFlash
 1355              		.section	.data.pFlash,"aw"
 1356              		.align	2
 1357              		.set	.LANCHOR0,. + 0
 1360              	pFlash:
 1361 0000 00       		.byte	0
 1362 0001 000000   		.space	3
 1363 0004 00000000 		.word	0
 1364 0008 00       		.byte	0
 1365 0009 000000   		.space	3
 1366 000c 00000000 		.word	0
 1367 0010 01000000 		.word	1
 1368 0014 00000000 		.word	0
 1369 0018 00000000 		.word	0
 1370 001c 00       		.byte	0
 1371 001d 000000   		.space	3
 1372              		.text
 1373              	.Letext0:
 1374              		.file 3 "/home/key/github/STM-Linux/gcc-arm-none-eabi-9-2020-q2-update/arm-none-eabi/include/machi
 1375              		.file 4 "/home/key/github/STM-Linux/gcc-arm-none-eabi-9-2020-q2-update/arm-none-eabi/include/sys/_
 1376              		.file 5 "Drivers/CMSIS/Include/core_cm4.h"
 1377              		.file 6 "Drivers/CMSIS/Device/ST/STM32G4xx/Include/system_stm32g4xx.h"
 1378              		.file 7 "Drivers/CMSIS/Device/ST/STM32G4xx/Include/stm32g474xx.h"
 1379              		.file 8 "Drivers/STM32G4xx_HAL_Driver/Inc/stm32g4xx_hal_def.h"
 1380              		.file 9 "Drivers/STM32G4xx_HAL_Driver/Inc/stm32g4xx_hal_flash.h"
ARM GAS  /tmp/ccMYOmG8.s 			page 60


 1381              		.file 10 "Drivers/STM32G4xx_HAL_Driver/Inc/stm32g4xx_hal_uart.h"
 1382              		.file 11 "Drivers/STM32G4xx_HAL_Driver/Inc/stm32g4xx_hal.h"
 1383              		.file 12 "Core/Inc/stm32g4xx_hal_conf.h"
 1384              		.file 13 "Drivers/STM32G4xx_HAL_Driver/Inc/stm32g4xx_hal_flash_ex.h"
ARM GAS  /tmp/ccMYOmG8.s 			page 61

