ARM GAS  /tmp/ccGhNtsO.s 			page 1


   1              		.cpu cortex-m4
   2              		.eabi_attribute 27, 1
   3              		.eabi_attribute 28, 1
   4              		.eabi_attribute 20, 1
   5              		.eabi_attribute 21, 1
   6              		.eabi_attribute 23, 3
   7              		.eabi_attribute 24, 1
   8              		.eabi_attribute 25, 1
   9              		.eabi_attribute 26, 1
  10              		.eabi_attribute 30, 1
  11              		.eabi_attribute 34, 1
  12              		.eabi_attribute 18, 4
  13              		.file	"stm32g4xx_hal_gpio.c"
  14              		.text
  15              	.Ltext0:
  16              		.cfi_sections	.debug_frame
  17              		.section	.rodata.HAL_GPIO_Init.str1.4,"aMS",%progbits,1
  18              		.align	2
  19              	.LC0:
  20 0000 44726976 		.ascii	"Drivers/STM32G4xx_HAL_Driver/Src/stm32g4xx_hal_gpio"
  20      6572732F 
  20      53544D33 
  20      32473478 
  20      785F4841 
  21 0033 2E6300   		.ascii	".c\000"
  22              		.section	.text.HAL_GPIO_Init,"ax",%progbits
  23              		.align	1
  24              		.global	HAL_GPIO_Init
  25              		.arch armv7e-m
  26              		.syntax unified
  27              		.thumb
  28              		.thumb_func
  29              		.fpu fpv4-sp-d16
  31              	HAL_GPIO_Init:
  32              	.LVL0:
  33              	.LFB132:
  34              		.file 1 "Drivers/STM32G4xx_HAL_Driver/Src/stm32g4xx_hal_gpio.c"
   1:Drivers/STM32G4xx_HAL_Driver/Src/stm32g4xx_hal_gpio.c **** /**
   2:Drivers/STM32G4xx_HAL_Driver/Src/stm32g4xx_hal_gpio.c ****   ******************************************************************************
   3:Drivers/STM32G4xx_HAL_Driver/Src/stm32g4xx_hal_gpio.c ****   * @file    stm32g4xx_hal_gpio.c
   4:Drivers/STM32G4xx_HAL_Driver/Src/stm32g4xx_hal_gpio.c ****   * @author  MCD Application Team
   5:Drivers/STM32G4xx_HAL_Driver/Src/stm32g4xx_hal_gpio.c ****   * @brief   GPIO HAL module driver.
   6:Drivers/STM32G4xx_HAL_Driver/Src/stm32g4xx_hal_gpio.c ****   *          This file provides firmware functions to manage the following
   7:Drivers/STM32G4xx_HAL_Driver/Src/stm32g4xx_hal_gpio.c ****   *          functionalities of the General Purpose Input/Output (GPIO) peripheral:
   8:Drivers/STM32G4xx_HAL_Driver/Src/stm32g4xx_hal_gpio.c ****   *           + Initialization and de-initialization functions
   9:Drivers/STM32G4xx_HAL_Driver/Src/stm32g4xx_hal_gpio.c ****   *           + IO operation functions
  10:Drivers/STM32G4xx_HAL_Driver/Src/stm32g4xx_hal_gpio.c ****   *
  11:Drivers/STM32G4xx_HAL_Driver/Src/stm32g4xx_hal_gpio.c ****   @verbatim
  12:Drivers/STM32G4xx_HAL_Driver/Src/stm32g4xx_hal_gpio.c ****   ==============================================================================
  13:Drivers/STM32G4xx_HAL_Driver/Src/stm32g4xx_hal_gpio.c ****                     ##### GPIO Peripheral features #####
  14:Drivers/STM32G4xx_HAL_Driver/Src/stm32g4xx_hal_gpio.c ****   ==============================================================================
  15:Drivers/STM32G4xx_HAL_Driver/Src/stm32g4xx_hal_gpio.c ****   [..]
  16:Drivers/STM32G4xx_HAL_Driver/Src/stm32g4xx_hal_gpio.c ****     (+) Each port bit of the general-purpose I/O (GPIO) ports can be individually
  17:Drivers/STM32G4xx_HAL_Driver/Src/stm32g4xx_hal_gpio.c ****         configured by software in several modes:
  18:Drivers/STM32G4xx_HAL_Driver/Src/stm32g4xx_hal_gpio.c ****         (++) Input mode
  19:Drivers/STM32G4xx_HAL_Driver/Src/stm32g4xx_hal_gpio.c ****         (++) Analog mode
  20:Drivers/STM32G4xx_HAL_Driver/Src/stm32g4xx_hal_gpio.c ****         (++) Output mode
ARM GAS  /tmp/ccGhNtsO.s 			page 2


  21:Drivers/STM32G4xx_HAL_Driver/Src/stm32g4xx_hal_gpio.c ****         (++) Alternate function mode
  22:Drivers/STM32G4xx_HAL_Driver/Src/stm32g4xx_hal_gpio.c ****         (++) External interrupt/event lines
  23:Drivers/STM32G4xx_HAL_Driver/Src/stm32g4xx_hal_gpio.c **** 
  24:Drivers/STM32G4xx_HAL_Driver/Src/stm32g4xx_hal_gpio.c ****     (+) During and just after reset, the alternate functions and external interrupt
  25:Drivers/STM32G4xx_HAL_Driver/Src/stm32g4xx_hal_gpio.c ****         lines are not active and the I/O ports are configured in input floating mode.
  26:Drivers/STM32G4xx_HAL_Driver/Src/stm32g4xx_hal_gpio.c **** 
  27:Drivers/STM32G4xx_HAL_Driver/Src/stm32g4xx_hal_gpio.c ****     (+) All GPIO pins have weak internal pull-up and pull-down resistors, which can be
  28:Drivers/STM32G4xx_HAL_Driver/Src/stm32g4xx_hal_gpio.c ****         activated or not.
  29:Drivers/STM32G4xx_HAL_Driver/Src/stm32g4xx_hal_gpio.c **** 
  30:Drivers/STM32G4xx_HAL_Driver/Src/stm32g4xx_hal_gpio.c ****     (+) In Output or Alternate mode, each IO can be configured on open-drain or push-pull
  31:Drivers/STM32G4xx_HAL_Driver/Src/stm32g4xx_hal_gpio.c ****         type and the IO speed can be selected depending on the VDD value.
  32:Drivers/STM32G4xx_HAL_Driver/Src/stm32g4xx_hal_gpio.c **** 
  33:Drivers/STM32G4xx_HAL_Driver/Src/stm32g4xx_hal_gpio.c ****     (+) The microcontroller IO pins are connected to onboard peripherals/modules through a
  34:Drivers/STM32G4xx_HAL_Driver/Src/stm32g4xx_hal_gpio.c ****         multiplexer that allows only one peripheral alternate function (AF) connected
  35:Drivers/STM32G4xx_HAL_Driver/Src/stm32g4xx_hal_gpio.c ****        to an IO pin at a time. In this way, there can be no conflict between peripherals
  36:Drivers/STM32G4xx_HAL_Driver/Src/stm32g4xx_hal_gpio.c ****        sharing the same IO pin.
  37:Drivers/STM32G4xx_HAL_Driver/Src/stm32g4xx_hal_gpio.c **** 
  38:Drivers/STM32G4xx_HAL_Driver/Src/stm32g4xx_hal_gpio.c ****     (+) All ports have external interrupt/event capability. To use external interrupt
  39:Drivers/STM32G4xx_HAL_Driver/Src/stm32g4xx_hal_gpio.c ****         lines, the port must be configured in input mode. All available GPIO pins are
  40:Drivers/STM32G4xx_HAL_Driver/Src/stm32g4xx_hal_gpio.c ****         connected to the 16 external interrupt/event lines from EXTI0 to EXTI15.
  41:Drivers/STM32G4xx_HAL_Driver/Src/stm32g4xx_hal_gpio.c **** 
  42:Drivers/STM32G4xx_HAL_Driver/Src/stm32g4xx_hal_gpio.c ****     (+) The external interrupt/event controller consists of up to 44 edge detectors
  43:Drivers/STM32G4xx_HAL_Driver/Src/stm32g4xx_hal_gpio.c ****         (16 lines are connected to GPIO) for generating event/interrupt requests (each
  44:Drivers/STM32G4xx_HAL_Driver/Src/stm32g4xx_hal_gpio.c ****         input line can be independently configured to select the type (interrupt or event)
  45:Drivers/STM32G4xx_HAL_Driver/Src/stm32g4xx_hal_gpio.c ****         and the corresponding trigger event (rising or falling or both). Each line can
  46:Drivers/STM32G4xx_HAL_Driver/Src/stm32g4xx_hal_gpio.c ****         also be masked independently.
  47:Drivers/STM32G4xx_HAL_Driver/Src/stm32g4xx_hal_gpio.c **** 
  48:Drivers/STM32G4xx_HAL_Driver/Src/stm32g4xx_hal_gpio.c ****                      ##### How to use this driver #####
  49:Drivers/STM32G4xx_HAL_Driver/Src/stm32g4xx_hal_gpio.c ****   ==============================================================================
  50:Drivers/STM32G4xx_HAL_Driver/Src/stm32g4xx_hal_gpio.c ****   [..]
  51:Drivers/STM32G4xx_HAL_Driver/Src/stm32g4xx_hal_gpio.c ****     (#) Enable the GPIO AHB clock using the following function: __HAL_RCC_GPIOx_CLK_ENABLE().
  52:Drivers/STM32G4xx_HAL_Driver/Src/stm32g4xx_hal_gpio.c **** 
  53:Drivers/STM32G4xx_HAL_Driver/Src/stm32g4xx_hal_gpio.c ****     (#) Configure the GPIO pin(s) using HAL_GPIO_Init().
  54:Drivers/STM32G4xx_HAL_Driver/Src/stm32g4xx_hal_gpio.c ****         (++) Configure the IO mode using "Mode" member from GPIO_InitTypeDef structure
  55:Drivers/STM32G4xx_HAL_Driver/Src/stm32g4xx_hal_gpio.c ****         (++) Activate Pull-up, Pull-down resistor using "Pull" member from GPIO_InitTypeDef
  56:Drivers/STM32G4xx_HAL_Driver/Src/stm32g4xx_hal_gpio.c ****              structure.
  57:Drivers/STM32G4xx_HAL_Driver/Src/stm32g4xx_hal_gpio.c ****         (++) In case of Output or alternate function mode selection: the speed is
  58:Drivers/STM32G4xx_HAL_Driver/Src/stm32g4xx_hal_gpio.c ****              configured through "Speed" member from GPIO_InitTypeDef structure.
  59:Drivers/STM32G4xx_HAL_Driver/Src/stm32g4xx_hal_gpio.c ****         (++) In alternate mode is selection, the alternate function connected to the IO
  60:Drivers/STM32G4xx_HAL_Driver/Src/stm32g4xx_hal_gpio.c ****              is configured through "Alternate" member from GPIO_InitTypeDef structure.
  61:Drivers/STM32G4xx_HAL_Driver/Src/stm32g4xx_hal_gpio.c ****         (++) Analog mode is required when a pin is to be used as ADC channel
  62:Drivers/STM32G4xx_HAL_Driver/Src/stm32g4xx_hal_gpio.c ****              or DAC output.
  63:Drivers/STM32G4xx_HAL_Driver/Src/stm32g4xx_hal_gpio.c ****         (++) In case of external interrupt/event selection the "Mode" member from
  64:Drivers/STM32G4xx_HAL_Driver/Src/stm32g4xx_hal_gpio.c ****              GPIO_InitTypeDef structure select the type (interrupt or event) and
  65:Drivers/STM32G4xx_HAL_Driver/Src/stm32g4xx_hal_gpio.c ****              the corresponding trigger event (rising or falling or both).
  66:Drivers/STM32G4xx_HAL_Driver/Src/stm32g4xx_hal_gpio.c **** 
  67:Drivers/STM32G4xx_HAL_Driver/Src/stm32g4xx_hal_gpio.c ****     (#) In case of external interrupt/event mode selection, configure NVIC IRQ priority
  68:Drivers/STM32G4xx_HAL_Driver/Src/stm32g4xx_hal_gpio.c ****         mapped to the EXTI line using HAL_NVIC_SetPriority() and enable it using
  69:Drivers/STM32G4xx_HAL_Driver/Src/stm32g4xx_hal_gpio.c ****         HAL_NVIC_EnableIRQ().
  70:Drivers/STM32G4xx_HAL_Driver/Src/stm32g4xx_hal_gpio.c **** 
  71:Drivers/STM32G4xx_HAL_Driver/Src/stm32g4xx_hal_gpio.c ****     (#) To get the level of a pin configured in input mode use HAL_GPIO_ReadPin().
  72:Drivers/STM32G4xx_HAL_Driver/Src/stm32g4xx_hal_gpio.c **** 
  73:Drivers/STM32G4xx_HAL_Driver/Src/stm32g4xx_hal_gpio.c ****     (#) To set/reset the level of a pin configured in output mode use
  74:Drivers/STM32G4xx_HAL_Driver/Src/stm32g4xx_hal_gpio.c ****         HAL_GPIO_WritePin()/HAL_GPIO_TogglePin().
  75:Drivers/STM32G4xx_HAL_Driver/Src/stm32g4xx_hal_gpio.c **** 
  76:Drivers/STM32G4xx_HAL_Driver/Src/stm32g4xx_hal_gpio.c ****    (#) To lock pin configuration until next reset use HAL_GPIO_LockPin().
  77:Drivers/STM32G4xx_HAL_Driver/Src/stm32g4xx_hal_gpio.c **** 
ARM GAS  /tmp/ccGhNtsO.s 			page 3


  78:Drivers/STM32G4xx_HAL_Driver/Src/stm32g4xx_hal_gpio.c ****     (#) During and just after reset, the alternate functions are not
  79:Drivers/STM32G4xx_HAL_Driver/Src/stm32g4xx_hal_gpio.c ****         active and the GPIO pins are configured in input floating mode (except JTAG
  80:Drivers/STM32G4xx_HAL_Driver/Src/stm32g4xx_hal_gpio.c ****         pins).
  81:Drivers/STM32G4xx_HAL_Driver/Src/stm32g4xx_hal_gpio.c **** 
  82:Drivers/STM32G4xx_HAL_Driver/Src/stm32g4xx_hal_gpio.c ****     (#) The LSE oscillator pins OSC32_IN and OSC32_OUT can be used as general purpose
  83:Drivers/STM32G4xx_HAL_Driver/Src/stm32g4xx_hal_gpio.c ****         (PC14 and PC15, respectively) when the LSE oscillator is off. The LSE has
  84:Drivers/STM32G4xx_HAL_Driver/Src/stm32g4xx_hal_gpio.c ****         priority over the GPIO function.
  85:Drivers/STM32G4xx_HAL_Driver/Src/stm32g4xx_hal_gpio.c **** 
  86:Drivers/STM32G4xx_HAL_Driver/Src/stm32g4xx_hal_gpio.c ****     (#) The HSE oscillator pins OSC_IN/OSC_OUT can be used as
  87:Drivers/STM32G4xx_HAL_Driver/Src/stm32g4xx_hal_gpio.c ****         general purpose PF0 and PF1, respectively, when the HSE oscillator is off.
  88:Drivers/STM32G4xx_HAL_Driver/Src/stm32g4xx_hal_gpio.c ****         The HSE has priority over the GPIO function.
  89:Drivers/STM32G4xx_HAL_Driver/Src/stm32g4xx_hal_gpio.c **** 
  90:Drivers/STM32G4xx_HAL_Driver/Src/stm32g4xx_hal_gpio.c ****   @endverbatim
  91:Drivers/STM32G4xx_HAL_Driver/Src/stm32g4xx_hal_gpio.c ****   ******************************************************************************
  92:Drivers/STM32G4xx_HAL_Driver/Src/stm32g4xx_hal_gpio.c ****   * @attention
  93:Drivers/STM32G4xx_HAL_Driver/Src/stm32g4xx_hal_gpio.c ****   *
  94:Drivers/STM32G4xx_HAL_Driver/Src/stm32g4xx_hal_gpio.c ****   * <h2><center>&copy; Copyright (c) 2019 STMicroelectronics.
  95:Drivers/STM32G4xx_HAL_Driver/Src/stm32g4xx_hal_gpio.c ****   * All rights reserved.</center></h2>
  96:Drivers/STM32G4xx_HAL_Driver/Src/stm32g4xx_hal_gpio.c ****   *
  97:Drivers/STM32G4xx_HAL_Driver/Src/stm32g4xx_hal_gpio.c ****   * This software component is licensed by ST under BSD 3-Clause license,
  98:Drivers/STM32G4xx_HAL_Driver/Src/stm32g4xx_hal_gpio.c ****   * the "License"; You may not use this file except in compliance with the
  99:Drivers/STM32G4xx_HAL_Driver/Src/stm32g4xx_hal_gpio.c ****   * License. You may obtain a copy of the License at:
 100:Drivers/STM32G4xx_HAL_Driver/Src/stm32g4xx_hal_gpio.c ****   *                        opensource.org/licenses/BSD-3-Clause
 101:Drivers/STM32G4xx_HAL_Driver/Src/stm32g4xx_hal_gpio.c ****   *
 102:Drivers/STM32G4xx_HAL_Driver/Src/stm32g4xx_hal_gpio.c ****   ******************************************************************************
 103:Drivers/STM32G4xx_HAL_Driver/Src/stm32g4xx_hal_gpio.c ****   */
 104:Drivers/STM32G4xx_HAL_Driver/Src/stm32g4xx_hal_gpio.c **** 
 105:Drivers/STM32G4xx_HAL_Driver/Src/stm32g4xx_hal_gpio.c **** /* Includes ------------------------------------------------------------------*/
 106:Drivers/STM32G4xx_HAL_Driver/Src/stm32g4xx_hal_gpio.c **** #include "stm32g4xx_hal.h"
 107:Drivers/STM32G4xx_HAL_Driver/Src/stm32g4xx_hal_gpio.c **** 
 108:Drivers/STM32G4xx_HAL_Driver/Src/stm32g4xx_hal_gpio.c **** /** @addtogroup STM32G4xx_HAL_Driver
 109:Drivers/STM32G4xx_HAL_Driver/Src/stm32g4xx_hal_gpio.c ****   * @{
 110:Drivers/STM32G4xx_HAL_Driver/Src/stm32g4xx_hal_gpio.c ****   */
 111:Drivers/STM32G4xx_HAL_Driver/Src/stm32g4xx_hal_gpio.c **** 
 112:Drivers/STM32G4xx_HAL_Driver/Src/stm32g4xx_hal_gpio.c **** /** @addtogroup GPIO
 113:Drivers/STM32G4xx_HAL_Driver/Src/stm32g4xx_hal_gpio.c ****   * @{
 114:Drivers/STM32G4xx_HAL_Driver/Src/stm32g4xx_hal_gpio.c ****   */
 115:Drivers/STM32G4xx_HAL_Driver/Src/stm32g4xx_hal_gpio.c **** /** MISRA C:2012 deviation rule has been granted for following rules:
 116:Drivers/STM32G4xx_HAL_Driver/Src/stm32g4xx_hal_gpio.c ****   * Rule-12.2 - Medium: RHS argument is in interval [0,INF] which is out of
 117:Drivers/STM32G4xx_HAL_Driver/Src/stm32g4xx_hal_gpio.c ****   * range of the shift operator in following API :
 118:Drivers/STM32G4xx_HAL_Driver/Src/stm32g4xx_hal_gpio.c ****   * HAL_GPIO_Init
 119:Drivers/STM32G4xx_HAL_Driver/Src/stm32g4xx_hal_gpio.c ****   * HAL_GPIO_DeInit
 120:Drivers/STM32G4xx_HAL_Driver/Src/stm32g4xx_hal_gpio.c ****   */
 121:Drivers/STM32G4xx_HAL_Driver/Src/stm32g4xx_hal_gpio.c **** 
 122:Drivers/STM32G4xx_HAL_Driver/Src/stm32g4xx_hal_gpio.c **** #ifdef HAL_GPIO_MODULE_ENABLED
 123:Drivers/STM32G4xx_HAL_Driver/Src/stm32g4xx_hal_gpio.c **** 
 124:Drivers/STM32G4xx_HAL_Driver/Src/stm32g4xx_hal_gpio.c **** /* Private typedef -----------------------------------------------------------*/
 125:Drivers/STM32G4xx_HAL_Driver/Src/stm32g4xx_hal_gpio.c **** /* Private defines ------------------------------------------------------------*/
 126:Drivers/STM32G4xx_HAL_Driver/Src/stm32g4xx_hal_gpio.c **** /** @defgroup GPIO_Private_Constants GPIO Private Constants
 127:Drivers/STM32G4xx_HAL_Driver/Src/stm32g4xx_hal_gpio.c ****   * @{
 128:Drivers/STM32G4xx_HAL_Driver/Src/stm32g4xx_hal_gpio.c ****   */
 129:Drivers/STM32G4xx_HAL_Driver/Src/stm32g4xx_hal_gpio.c **** #define GPIO_MODE             (0x00000003U)
 130:Drivers/STM32G4xx_HAL_Driver/Src/stm32g4xx_hal_gpio.c **** #define EXTI_MODE             (0x10000000U)
 131:Drivers/STM32G4xx_HAL_Driver/Src/stm32g4xx_hal_gpio.c **** #define GPIO_MODE_IT          (0x00010000U)
 132:Drivers/STM32G4xx_HAL_Driver/Src/stm32g4xx_hal_gpio.c **** #define GPIO_MODE_EVT         (0x00020000U)
 133:Drivers/STM32G4xx_HAL_Driver/Src/stm32g4xx_hal_gpio.c **** #define RISING_EDGE           (0x00100000U)
 134:Drivers/STM32G4xx_HAL_Driver/Src/stm32g4xx_hal_gpio.c **** #define FALLING_EDGE          (0x00200000U)
ARM GAS  /tmp/ccGhNtsO.s 			page 4


 135:Drivers/STM32G4xx_HAL_Driver/Src/stm32g4xx_hal_gpio.c **** #define GPIO_OUTPUT_TYPE      (0x00000010U)
 136:Drivers/STM32G4xx_HAL_Driver/Src/stm32g4xx_hal_gpio.c **** 
 137:Drivers/STM32G4xx_HAL_Driver/Src/stm32g4xx_hal_gpio.c **** #define GPIO_NUMBER           (16U)
 138:Drivers/STM32G4xx_HAL_Driver/Src/stm32g4xx_hal_gpio.c **** /**
 139:Drivers/STM32G4xx_HAL_Driver/Src/stm32g4xx_hal_gpio.c ****   * @}
 140:Drivers/STM32G4xx_HAL_Driver/Src/stm32g4xx_hal_gpio.c ****   */
 141:Drivers/STM32G4xx_HAL_Driver/Src/stm32g4xx_hal_gpio.c **** 
 142:Drivers/STM32G4xx_HAL_Driver/Src/stm32g4xx_hal_gpio.c **** /* Private macros ------------------------------------------------------------*/
 143:Drivers/STM32G4xx_HAL_Driver/Src/stm32g4xx_hal_gpio.c **** /* Private variables ---------------------------------------------------------*/
 144:Drivers/STM32G4xx_HAL_Driver/Src/stm32g4xx_hal_gpio.c **** /* Private function prototypes -----------------------------------------------*/
 145:Drivers/STM32G4xx_HAL_Driver/Src/stm32g4xx_hal_gpio.c **** /* Exported functions --------------------------------------------------------*/
 146:Drivers/STM32G4xx_HAL_Driver/Src/stm32g4xx_hal_gpio.c **** 
 147:Drivers/STM32G4xx_HAL_Driver/Src/stm32g4xx_hal_gpio.c **** /** @addtogroup GPIO_Exported_Functions
 148:Drivers/STM32G4xx_HAL_Driver/Src/stm32g4xx_hal_gpio.c ****   * @{
 149:Drivers/STM32G4xx_HAL_Driver/Src/stm32g4xx_hal_gpio.c ****   */
 150:Drivers/STM32G4xx_HAL_Driver/Src/stm32g4xx_hal_gpio.c **** 
 151:Drivers/STM32G4xx_HAL_Driver/Src/stm32g4xx_hal_gpio.c **** /** @defgroup GPIO_Exported_Functions_Group1 Initialization/de-initialization functions
 152:Drivers/STM32G4xx_HAL_Driver/Src/stm32g4xx_hal_gpio.c ****   *  @brief    Initialization and Configuration functions
 153:Drivers/STM32G4xx_HAL_Driver/Src/stm32g4xx_hal_gpio.c ****   *
 154:Drivers/STM32G4xx_HAL_Driver/Src/stm32g4xx_hal_gpio.c **** @verbatim
 155:Drivers/STM32G4xx_HAL_Driver/Src/stm32g4xx_hal_gpio.c ****  ===============================================================================
 156:Drivers/STM32G4xx_HAL_Driver/Src/stm32g4xx_hal_gpio.c ****               ##### Initialization and de-initialization functions #####
 157:Drivers/STM32G4xx_HAL_Driver/Src/stm32g4xx_hal_gpio.c ****  ===============================================================================
 158:Drivers/STM32G4xx_HAL_Driver/Src/stm32g4xx_hal_gpio.c **** 
 159:Drivers/STM32G4xx_HAL_Driver/Src/stm32g4xx_hal_gpio.c **** @endverbatim
 160:Drivers/STM32G4xx_HAL_Driver/Src/stm32g4xx_hal_gpio.c ****   * @{
 161:Drivers/STM32G4xx_HAL_Driver/Src/stm32g4xx_hal_gpio.c ****   */
 162:Drivers/STM32G4xx_HAL_Driver/Src/stm32g4xx_hal_gpio.c **** 
 163:Drivers/STM32G4xx_HAL_Driver/Src/stm32g4xx_hal_gpio.c **** /**
 164:Drivers/STM32G4xx_HAL_Driver/Src/stm32g4xx_hal_gpio.c ****   * @brief  Initialize the GPIOx peripheral according to the specified parameters in the GPIO_Init.
 165:Drivers/STM32G4xx_HAL_Driver/Src/stm32g4xx_hal_gpio.c ****   * @param  GPIOx where x can be (A..G) to select the GPIO peripheral for STM32G4xx family
 166:Drivers/STM32G4xx_HAL_Driver/Src/stm32g4xx_hal_gpio.c ****   * @param  GPIO_Init pointer to a GPIO_InitTypeDef structure that contains
 167:Drivers/STM32G4xx_HAL_Driver/Src/stm32g4xx_hal_gpio.c ****   *         the configuration information for the specified GPIO peripheral.
 168:Drivers/STM32G4xx_HAL_Driver/Src/stm32g4xx_hal_gpio.c ****   * @retval None
 169:Drivers/STM32G4xx_HAL_Driver/Src/stm32g4xx_hal_gpio.c ****   */
 170:Drivers/STM32G4xx_HAL_Driver/Src/stm32g4xx_hal_gpio.c **** void HAL_GPIO_Init(GPIO_TypeDef  *GPIOx, GPIO_InitTypeDef *GPIO_Init)
 171:Drivers/STM32G4xx_HAL_Driver/Src/stm32g4xx_hal_gpio.c **** {
  35              		.loc 1 171 1 view -0
  36              		.cfi_startproc
  37              		@ args = 0, pretend = 0, frame = 8
  38              		@ frame_needed = 0, uses_anonymous_args = 0
  39              		.loc 1 171 1 is_stmt 0 view .LVU1
  40 0000 2DE9F043 		push	{r4, r5, r6, r7, r8, r9, lr}
  41              	.LCFI0:
  42              		.cfi_def_cfa_offset 28
  43              		.cfi_offset 4, -28
  44              		.cfi_offset 5, -24
  45              		.cfi_offset 6, -20
  46              		.cfi_offset 7, -16
  47              		.cfi_offset 8, -12
  48              		.cfi_offset 9, -8
  49              		.cfi_offset 14, -4
  50 0004 83B0     		sub	sp, sp, #12
  51              	.LCFI1:
  52              		.cfi_def_cfa_offset 40
  53 0006 0646     		mov	r6, r0
  54 0008 0C46     		mov	r4, r1
ARM GAS  /tmp/ccGhNtsO.s 			page 5


 172:Drivers/STM32G4xx_HAL_Driver/Src/stm32g4xx_hal_gpio.c ****   uint32_t position = 0x00U;
  55              		.loc 1 172 3 is_stmt 1 view .LVU2
  56              	.LVL1:
 173:Drivers/STM32G4xx_HAL_Driver/Src/stm32g4xx_hal_gpio.c ****   uint32_t iocurrent;
  57              		.loc 1 173 3 view .LVU3
 174:Drivers/STM32G4xx_HAL_Driver/Src/stm32g4xx_hal_gpio.c ****   uint32_t temp;
  58              		.loc 1 174 3 view .LVU4
 175:Drivers/STM32G4xx_HAL_Driver/Src/stm32g4xx_hal_gpio.c **** 
 176:Drivers/STM32G4xx_HAL_Driver/Src/stm32g4xx_hal_gpio.c ****   /* Check the parameters */
 177:Drivers/STM32G4xx_HAL_Driver/Src/stm32g4xx_hal_gpio.c ****   assert_param(IS_GPIO_ALL_INSTANCE(GPIOx));
  59              		.loc 1 177 3 view .LVU5
  60 000a B0F1904F 		cmp	r0, #1207959552
  61 000e 1AD0     		beq	.L2
  62              		.loc 1 177 3 is_stmt 0 discriminator 1 view .LVU6
  63 0010 A94B     		ldr	r3, .L35
  64 0012 9842     		cmp	r0, r3
  65 0014 17D0     		beq	.L2
  66              		.loc 1 177 3 discriminator 2 view .LVU7
  67 0016 03F58063 		add	r3, r3, #1024
  68 001a 9842     		cmp	r0, r3
  69 001c 13D0     		beq	.L2
  70              		.loc 1 177 3 discriminator 3 view .LVU8
  71 001e 03F58063 		add	r3, r3, #1024
  72 0022 9842     		cmp	r0, r3
  73 0024 0FD0     		beq	.L2
  74              		.loc 1 177 3 discriminator 4 view .LVU9
  75 0026 03F58063 		add	r3, r3, #1024
  76 002a 9842     		cmp	r0, r3
  77 002c 0BD0     		beq	.L2
  78              		.loc 1 177 3 discriminator 5 view .LVU10
  79 002e 03F58063 		add	r3, r3, #1024
  80 0032 9842     		cmp	r0, r3
  81 0034 07D0     		beq	.L2
  82              		.loc 1 177 3 discriminator 6 view .LVU11
  83 0036 03F58063 		add	r3, r3, #1024
  84 003a 9842     		cmp	r0, r3
  85 003c 03D0     		beq	.L2
  86              		.loc 1 177 3 discriminator 7 view .LVU12
  87 003e B121     		movs	r1, #177
  88              	.LVL2:
  89              		.loc 1 177 3 discriminator 7 view .LVU13
  90 0040 9E48     		ldr	r0, .L35+4
  91              	.LVL3:
  92              		.loc 1 177 3 discriminator 7 view .LVU14
  93 0042 FFF7FEFF 		bl	assert_failed
  94              	.LVL4:
  95              	.L2:
 178:Drivers/STM32G4xx_HAL_Driver/Src/stm32g4xx_hal_gpio.c ****   assert_param(IS_GPIO_PIN(GPIO_Init->Pin));
  96              		.loc 1 178 3 is_stmt 1 view .LVU15
  97 0046 2368     		ldr	r3, [r4]
  98 0048 9AB2     		uxth	r2, r3
  99 004a 12B1     		cbz	r2, .L3
 100              		.loc 1 178 3 is_stmt 0 discriminator 2 view .LVU16
 101 004c 1B0C     		lsrs	r3, r3, #16
 102 004e 1B04     		lsls	r3, r3, #16
 103 0050 1BB1     		cbz	r3, .L4
 104              	.L3:
ARM GAS  /tmp/ccGhNtsO.s 			page 6


 105              		.loc 1 178 3 discriminator 3 view .LVU17
 106 0052 B221     		movs	r1, #178
 107 0054 9948     		ldr	r0, .L35+4
 108 0056 FFF7FEFF 		bl	assert_failed
 109              	.LVL5:
 110              	.L4:
 179:Drivers/STM32G4xx_HAL_Driver/Src/stm32g4xx_hal_gpio.c ****   assert_param(IS_GPIO_MODE(GPIO_Init->Mode));
 111              		.loc 1 179 3 is_stmt 1 view .LVU18
 112 005a 6368     		ldr	r3, [r4, #4]
 113 005c 012B     		cmp	r3, #1
 114 005e 1ED9     		bls	.L5
 115              		.loc 1 179 3 is_stmt 0 discriminator 1 view .LVU19
 116 0060 112B     		cmp	r3, #17
 117 0062 1CD0     		beq	.L5
 118              		.loc 1 179 3 discriminator 2 view .LVU20
 119 0064 022B     		cmp	r3, #2
 120 0066 1AD0     		beq	.L5
 121              		.loc 1 179 3 discriminator 3 view .LVU21
 122 0068 122B     		cmp	r3, #18
 123 006a 18D0     		beq	.L5
 124              		.loc 1 179 3 discriminator 4 view .LVU22
 125 006c 944A     		ldr	r2, .L35+8
 126 006e 9342     		cmp	r3, r2
 127 0070 15D0     		beq	.L5
 128              		.loc 1 179 3 discriminator 5 view .LVU23
 129 0072 02F58012 		add	r2, r2, #1048576
 130 0076 9342     		cmp	r3, r2
 131 0078 11D0     		beq	.L5
 132              		.loc 1 179 3 discriminator 6 view .LVU24
 133 007a 02F58012 		add	r2, r2, #1048576
 134 007e 9342     		cmp	r3, r2
 135 0080 0DD0     		beq	.L5
 136              		.loc 1 179 3 discriminator 7 view .LVU25
 137 0082 A2F5F812 		sub	r2, r2, #2031616
 138 0086 9342     		cmp	r3, r2
 139 0088 09D0     		beq	.L5
 140              		.loc 1 179 3 discriminator 8 view .LVU26
 141 008a 02F58012 		add	r2, r2, #1048576
 142 008e 9342     		cmp	r3, r2
 143 0090 05D0     		beq	.L5
 144              		.loc 1 179 3 discriminator 9 view .LVU27
 145 0092 02F58012 		add	r2, r2, #1048576
 146 0096 9342     		cmp	r3, r2
 147 0098 01D0     		beq	.L5
 148              		.loc 1 179 3 discriminator 10 view .LVU28
 149 009a 032B     		cmp	r3, #3
 150 009c 04D1     		bne	.L29
 151              	.L5:
 180:Drivers/STM32G4xx_HAL_Driver/Src/stm32g4xx_hal_gpio.c ****   assert_param(IS_GPIO_PULL(GPIO_Init->Pull));
 152              		.loc 1 180 3 is_stmt 1 view .LVU29
 153 009e A368     		ldr	r3, [r4, #8]
 154 00a0 022B     		cmp	r3, #2
 155 00a2 06D8     		bhi	.L30
 156              	.L6:
 181:Drivers/STM32G4xx_HAL_Driver/Src/stm32g4xx_hal_gpio.c **** 
 182:Drivers/STM32G4xx_HAL_Driver/Src/stm32g4xx_hal_gpio.c ****   /* Configure the port pins */
 183:Drivers/STM32G4xx_HAL_Driver/Src/stm32g4xx_hal_gpio.c ****   while (((GPIO_Init->Pin) >> position) != 0U)
ARM GAS  /tmp/ccGhNtsO.s 			page 7


 184:Drivers/STM32G4xx_HAL_Driver/Src/stm32g4xx_hal_gpio.c ****   {
 185:Drivers/STM32G4xx_HAL_Driver/Src/stm32g4xx_hal_gpio.c ****     /* Get current io position */
 186:Drivers/STM32G4xx_HAL_Driver/Src/stm32g4xx_hal_gpio.c ****     iocurrent = (GPIO_Init->Pin) & (1UL << position);
 187:Drivers/STM32G4xx_HAL_Driver/Src/stm32g4xx_hal_gpio.c **** 
 188:Drivers/STM32G4xx_HAL_Driver/Src/stm32g4xx_hal_gpio.c ****     if (iocurrent != 0x00u)
 189:Drivers/STM32G4xx_HAL_Driver/Src/stm32g4xx_hal_gpio.c ****     {
 190:Drivers/STM32G4xx_HAL_Driver/Src/stm32g4xx_hal_gpio.c ****       /*--------------------- GPIO Mode Configuration ------------------------*/
 191:Drivers/STM32G4xx_HAL_Driver/Src/stm32g4xx_hal_gpio.c ****       /* In case of Output or Alternate function mode selection */
 192:Drivers/STM32G4xx_HAL_Driver/Src/stm32g4xx_hal_gpio.c ****       if ((GPIO_Init->Mode == GPIO_MODE_OUTPUT_PP) || (GPIO_Init->Mode == GPIO_MODE_AF_PP) ||
 193:Drivers/STM32G4xx_HAL_Driver/Src/stm32g4xx_hal_gpio.c ****           (GPIO_Init->Mode == GPIO_MODE_OUTPUT_OD) || (GPIO_Init->Mode == GPIO_MODE_AF_OD))
 194:Drivers/STM32G4xx_HAL_Driver/Src/stm32g4xx_hal_gpio.c ****       {
 195:Drivers/STM32G4xx_HAL_Driver/Src/stm32g4xx_hal_gpio.c ****         /* Check the Speed parameter */
 196:Drivers/STM32G4xx_HAL_Driver/Src/stm32g4xx_hal_gpio.c ****         assert_param(IS_GPIO_SPEED(GPIO_Init->Speed));
 197:Drivers/STM32G4xx_HAL_Driver/Src/stm32g4xx_hal_gpio.c ****         /* Configure the IO Speed */
 198:Drivers/STM32G4xx_HAL_Driver/Src/stm32g4xx_hal_gpio.c ****         temp = GPIOx->OSPEEDR;
 199:Drivers/STM32G4xx_HAL_Driver/Src/stm32g4xx_hal_gpio.c ****         temp &= ~(GPIO_OSPEEDR_OSPEED0 << (position * 2U));
 200:Drivers/STM32G4xx_HAL_Driver/Src/stm32g4xx_hal_gpio.c ****         temp |= (GPIO_Init->Speed << (position * 2U));
 201:Drivers/STM32G4xx_HAL_Driver/Src/stm32g4xx_hal_gpio.c ****         GPIOx->OSPEEDR = temp;
 202:Drivers/STM32G4xx_HAL_Driver/Src/stm32g4xx_hal_gpio.c **** 
 203:Drivers/STM32G4xx_HAL_Driver/Src/stm32g4xx_hal_gpio.c ****         /* Configure the IO Output Type */
 204:Drivers/STM32G4xx_HAL_Driver/Src/stm32g4xx_hal_gpio.c ****         temp = GPIOx->OTYPER;
 205:Drivers/STM32G4xx_HAL_Driver/Src/stm32g4xx_hal_gpio.c ****         temp &= ~(GPIO_OTYPER_OT0 << position) ;
 206:Drivers/STM32G4xx_HAL_Driver/Src/stm32g4xx_hal_gpio.c ****         temp |= (((GPIO_Init->Mode & GPIO_OUTPUT_TYPE) >> 4U) << position);
 207:Drivers/STM32G4xx_HAL_Driver/Src/stm32g4xx_hal_gpio.c ****         GPIOx->OTYPER = temp;
 208:Drivers/STM32G4xx_HAL_Driver/Src/stm32g4xx_hal_gpio.c ****       }
 209:Drivers/STM32G4xx_HAL_Driver/Src/stm32g4xx_hal_gpio.c **** 
 210:Drivers/STM32G4xx_HAL_Driver/Src/stm32g4xx_hal_gpio.c ****       /* Activate the Pull-up or Pull down resistor for the current IO */
 211:Drivers/STM32G4xx_HAL_Driver/Src/stm32g4xx_hal_gpio.c ****       temp = GPIOx->PUPDR;
 212:Drivers/STM32G4xx_HAL_Driver/Src/stm32g4xx_hal_gpio.c ****       temp &= ~(GPIO_PUPDR_PUPD0 << (position * 2U));
 213:Drivers/STM32G4xx_HAL_Driver/Src/stm32g4xx_hal_gpio.c ****       temp |= ((GPIO_Init->Pull) << (position * 2U));
 214:Drivers/STM32G4xx_HAL_Driver/Src/stm32g4xx_hal_gpio.c ****       GPIOx->PUPDR = temp;
 215:Drivers/STM32G4xx_HAL_Driver/Src/stm32g4xx_hal_gpio.c **** 
 216:Drivers/STM32G4xx_HAL_Driver/Src/stm32g4xx_hal_gpio.c ****       /* In case of Alternate function mode selection */
 217:Drivers/STM32G4xx_HAL_Driver/Src/stm32g4xx_hal_gpio.c ****       if ((GPIO_Init->Mode == GPIO_MODE_AF_PP) || (GPIO_Init->Mode == GPIO_MODE_AF_OD))
 218:Drivers/STM32G4xx_HAL_Driver/Src/stm32g4xx_hal_gpio.c ****       {
 219:Drivers/STM32G4xx_HAL_Driver/Src/stm32g4xx_hal_gpio.c ****         /* Check the Alternate function parameters */
 220:Drivers/STM32G4xx_HAL_Driver/Src/stm32g4xx_hal_gpio.c ****         assert_param(IS_GPIO_AF_INSTANCE(GPIOx));
 221:Drivers/STM32G4xx_HAL_Driver/Src/stm32g4xx_hal_gpio.c ****         assert_param(IS_GPIO_AF(GPIO_Init->Alternate));
 222:Drivers/STM32G4xx_HAL_Driver/Src/stm32g4xx_hal_gpio.c **** 
 223:Drivers/STM32G4xx_HAL_Driver/Src/stm32g4xx_hal_gpio.c ****         /* Configure Alternate function mapped with the current IO */
 224:Drivers/STM32G4xx_HAL_Driver/Src/stm32g4xx_hal_gpio.c ****         temp = GPIOx->AFR[position >> 3U];
 225:Drivers/STM32G4xx_HAL_Driver/Src/stm32g4xx_hal_gpio.c ****         temp &= ~(0xFU << ((position & 0x07U) * 4U));
 226:Drivers/STM32G4xx_HAL_Driver/Src/stm32g4xx_hal_gpio.c ****         temp |= ((GPIO_Init->Alternate) << ((position & 0x07U) * 4U));
 227:Drivers/STM32G4xx_HAL_Driver/Src/stm32g4xx_hal_gpio.c ****         GPIOx->AFR[position >> 3U] = temp;
 228:Drivers/STM32G4xx_HAL_Driver/Src/stm32g4xx_hal_gpio.c ****       }
 229:Drivers/STM32G4xx_HAL_Driver/Src/stm32g4xx_hal_gpio.c **** 
 230:Drivers/STM32G4xx_HAL_Driver/Src/stm32g4xx_hal_gpio.c ****       /* Configure IO Direction mode (Input, Output, Alternate or Analog) */
 231:Drivers/STM32G4xx_HAL_Driver/Src/stm32g4xx_hal_gpio.c ****       temp = GPIOx->MODER;
 232:Drivers/STM32G4xx_HAL_Driver/Src/stm32g4xx_hal_gpio.c ****       temp &= ~(GPIO_MODER_MODE0 << (position * 2U));
 233:Drivers/STM32G4xx_HAL_Driver/Src/stm32g4xx_hal_gpio.c ****       temp |= ((GPIO_Init->Mode & GPIO_MODE) << (position * 2U));
 234:Drivers/STM32G4xx_HAL_Driver/Src/stm32g4xx_hal_gpio.c ****       GPIOx->MODER = temp;
 235:Drivers/STM32G4xx_HAL_Driver/Src/stm32g4xx_hal_gpio.c **** 
 236:Drivers/STM32G4xx_HAL_Driver/Src/stm32g4xx_hal_gpio.c ****       /*--------------------- EXTI Mode Configuration ------------------------*/
 237:Drivers/STM32G4xx_HAL_Driver/Src/stm32g4xx_hal_gpio.c ****       /* Configure the External Interrupt or event for the current IO */
 238:Drivers/STM32G4xx_HAL_Driver/Src/stm32g4xx_hal_gpio.c ****       if ((GPIO_Init->Mode & EXTI_MODE) == EXTI_MODE)
 239:Drivers/STM32G4xx_HAL_Driver/Src/stm32g4xx_hal_gpio.c ****       {
 240:Drivers/STM32G4xx_HAL_Driver/Src/stm32g4xx_hal_gpio.c ****         /* Enable SYSCFG Clock */
ARM GAS  /tmp/ccGhNtsO.s 			page 8


 241:Drivers/STM32G4xx_HAL_Driver/Src/stm32g4xx_hal_gpio.c ****         __HAL_RCC_SYSCFG_CLK_ENABLE();
 242:Drivers/STM32G4xx_HAL_Driver/Src/stm32g4xx_hal_gpio.c **** 
 243:Drivers/STM32G4xx_HAL_Driver/Src/stm32g4xx_hal_gpio.c ****         temp = SYSCFG->EXTICR[position >> 2U];
 244:Drivers/STM32G4xx_HAL_Driver/Src/stm32g4xx_hal_gpio.c ****         temp &= ~(0x0FUL << (4U * (position & 0x03U)));
 245:Drivers/STM32G4xx_HAL_Driver/Src/stm32g4xx_hal_gpio.c ****         temp |= (GPIO_GET_INDEX(GPIOx) << (4U * (position & 0x03U)));
 157              		.loc 1 245 18 is_stmt 0 view .LVU30
 158 00a4 0025     		movs	r5, #0
 159 00a6 4AE0     		b	.L7
 160              	.L29:
 179:Drivers/STM32G4xx_HAL_Driver/Src/stm32g4xx_hal_gpio.c ****   assert_param(IS_GPIO_PULL(GPIO_Init->Pull));
 161              		.loc 1 179 3 discriminator 11 view .LVU31
 162 00a8 B321     		movs	r1, #179
 163 00aa 8448     		ldr	r0, .L35+4
 164 00ac FFF7FEFF 		bl	assert_failed
 165              	.LVL6:
 166 00b0 F5E7     		b	.L5
 167              	.L30:
 180:Drivers/STM32G4xx_HAL_Driver/Src/stm32g4xx_hal_gpio.c ****   assert_param(IS_GPIO_PULL(GPIO_Init->Pull));
 168              		.loc 1 180 3 discriminator 1 view .LVU32
 169 00b2 B421     		movs	r1, #180
 170 00b4 8148     		ldr	r0, .L35+4
 171 00b6 FFF7FEFF 		bl	assert_failed
 172              	.LVL7:
 173 00ba F3E7     		b	.L6
 174              	.LVL8:
 175              	.L32:
 196:Drivers/STM32G4xx_HAL_Driver/Src/stm32g4xx_hal_gpio.c ****         /* Configure the IO Speed */
 176              		.loc 1 196 9 discriminator 1 view .LVU33
 177 00bc C421     		movs	r1, #196
 178 00be 7F48     		ldr	r0, .L35+4
 179 00c0 FFF7FEFF 		bl	assert_failed
 180              	.LVL9:
 181 00c4 52E0     		b	.L11
 182              	.LVL10:
 183              	.L33:
 221:Drivers/STM32G4xx_HAL_Driver/Src/stm32g4xx_hal_gpio.c **** 
 184              		.loc 1 221 9 discriminator 1 view .LVU34
 185 00c6 DD21     		movs	r1, #221
 186 00c8 7C48     		ldr	r0, .L35+4
 187 00ca FFF7FEFF 		bl	assert_failed
 188              	.LVL11:
 189 00ce 97E0     		b	.L15
 190              	.LVL12:
 191              	.L34:
 192              		.loc 1 245 18 view .LVU35
 193 00d0 0523     		movs	r3, #5
 194 00d2 00E0     		b	.L16
 195              	.L22:
 196 00d4 0023     		movs	r3, #0
 197              	.L16:
 198              		.loc 1 245 40 discriminator 24 view .LVU36
 199 00d6 8B40     		lsls	r3, r3, r1
 200              		.loc 1 245 14 discriminator 24 view .LVU37
 201 00d8 0343     		orrs	r3, r3, r0
 202              	.LVL13:
 246:Drivers/STM32G4xx_HAL_Driver/Src/stm32g4xx_hal_gpio.c ****         SYSCFG->EXTICR[position >> 2U] = temp;
 203              		.loc 1 246 9 is_stmt 1 discriminator 24 view .LVU38
ARM GAS  /tmp/ccGhNtsO.s 			page 9


 204              		.loc 1 246 40 is_stmt 0 discriminator 24 view .LVU39
 205 00da 0232     		adds	r2, r2, #2
 206 00dc 7949     		ldr	r1, .L35+12
 207 00de 41F82230 		str	r3, [r1, r2, lsl #2]
 247:Drivers/STM32G4xx_HAL_Driver/Src/stm32g4xx_hal_gpio.c **** 
 248:Drivers/STM32G4xx_HAL_Driver/Src/stm32g4xx_hal_gpio.c ****         /* Clear EXTI line configuration */
 249:Drivers/STM32G4xx_HAL_Driver/Src/stm32g4xx_hal_gpio.c ****         temp = EXTI->IMR1;
 208              		.loc 1 249 9 is_stmt 1 discriminator 24 view .LVU40
 209              		.loc 1 249 14 is_stmt 0 discriminator 24 view .LVU41
 210 00e2 794B     		ldr	r3, .L35+16
 211              	.LVL14:
 212              		.loc 1 249 14 discriminator 24 view .LVU42
 213 00e4 1A68     		ldr	r2, [r3]
 214              	.LVL15:
 250:Drivers/STM32G4xx_HAL_Driver/Src/stm32g4xx_hal_gpio.c ****         temp &= ~(iocurrent);
 215              		.loc 1 250 9 is_stmt 1 discriminator 24 view .LVU43
 216              		.loc 1 250 17 is_stmt 0 discriminator 24 view .LVU44
 217 00e6 FB43     		mvns	r3, r7
 218              		.loc 1 250 14 discriminator 24 view .LVU45
 219 00e8 22EA0701 		bic	r1, r2, r7
 220              	.LVL16:
 251:Drivers/STM32G4xx_HAL_Driver/Src/stm32g4xx_hal_gpio.c ****         if ((GPIO_Init->Mode & GPIO_MODE_IT) == GPIO_MODE_IT)
 221              		.loc 1 251 9 is_stmt 1 discriminator 24 view .LVU46
 222              		.loc 1 251 23 is_stmt 0 discriminator 24 view .LVU47
 223 00ec 6068     		ldr	r0, [r4, #4]
 224              		.loc 1 251 12 discriminator 24 view .LVU48
 225 00ee 10F4803F 		tst	r0, #65536
 226 00f2 01D0     		beq	.L17
 252:Drivers/STM32G4xx_HAL_Driver/Src/stm32g4xx_hal_gpio.c ****         {
 253:Drivers/STM32G4xx_HAL_Driver/Src/stm32g4xx_hal_gpio.c ****           temp |= iocurrent;
 227              		.loc 1 253 11 is_stmt 1 view .LVU49
 228              		.loc 1 253 16 is_stmt 0 view .LVU50
 229 00f4 47EA0201 		orr	r1, r7, r2
 230              	.LVL17:
 231              	.L17:
 254:Drivers/STM32G4xx_HAL_Driver/Src/stm32g4xx_hal_gpio.c ****         }
 255:Drivers/STM32G4xx_HAL_Driver/Src/stm32g4xx_hal_gpio.c ****         EXTI->IMR1 = temp;
 232              		.loc 1 255 9 is_stmt 1 view .LVU51
 233              		.loc 1 255 20 is_stmt 0 view .LVU52
 234 00f8 734A     		ldr	r2, .L35+16
 235 00fa 1160     		str	r1, [r2]
 256:Drivers/STM32G4xx_HAL_Driver/Src/stm32g4xx_hal_gpio.c **** 
 257:Drivers/STM32G4xx_HAL_Driver/Src/stm32g4xx_hal_gpio.c ****         temp = EXTI->EMR1;
 236              		.loc 1 257 9 is_stmt 1 view .LVU53
 237              		.loc 1 257 14 is_stmt 0 view .LVU54
 238 00fc 5268     		ldr	r2, [r2, #4]
 239              	.LVL18:
 258:Drivers/STM32G4xx_HAL_Driver/Src/stm32g4xx_hal_gpio.c ****         temp &= ~(iocurrent);
 240              		.loc 1 258 9 is_stmt 1 view .LVU55
 241              		.loc 1 258 14 is_stmt 0 view .LVU56
 242 00fe 03EA0201 		and	r1, r3, r2
 243              	.LVL19:
 259:Drivers/STM32G4xx_HAL_Driver/Src/stm32g4xx_hal_gpio.c ****         if ((GPIO_Init->Mode & GPIO_MODE_EVT) == GPIO_MODE_EVT)
 244              		.loc 1 259 9 is_stmt 1 view .LVU57
 245              		.loc 1 259 23 is_stmt 0 view .LVU58
 246 0102 6068     		ldr	r0, [r4, #4]
 247              		.loc 1 259 12 view .LVU59
ARM GAS  /tmp/ccGhNtsO.s 			page 10


 248 0104 10F4003F 		tst	r0, #131072
 249 0108 01D0     		beq	.L18
 260:Drivers/STM32G4xx_HAL_Driver/Src/stm32g4xx_hal_gpio.c ****         {
 261:Drivers/STM32G4xx_HAL_Driver/Src/stm32g4xx_hal_gpio.c ****           temp |= iocurrent;
 250              		.loc 1 261 11 is_stmt 1 view .LVU60
 251              		.loc 1 261 16 is_stmt 0 view .LVU61
 252 010a 47EA0201 		orr	r1, r7, r2
 253              	.LVL20:
 254              	.L18:
 262:Drivers/STM32G4xx_HAL_Driver/Src/stm32g4xx_hal_gpio.c ****         }
 263:Drivers/STM32G4xx_HAL_Driver/Src/stm32g4xx_hal_gpio.c ****         EXTI->EMR1 = temp;
 255              		.loc 1 263 9 is_stmt 1 view .LVU62
 256              		.loc 1 263 20 is_stmt 0 view .LVU63
 257 010e 6E4A     		ldr	r2, .L35+16
 258 0110 5160     		str	r1, [r2, #4]
 264:Drivers/STM32G4xx_HAL_Driver/Src/stm32g4xx_hal_gpio.c **** 
 265:Drivers/STM32G4xx_HAL_Driver/Src/stm32g4xx_hal_gpio.c ****         /* Clear Rising Falling edge configuration */
 266:Drivers/STM32G4xx_HAL_Driver/Src/stm32g4xx_hal_gpio.c ****         temp = EXTI->RTSR1;
 259              		.loc 1 266 9 is_stmt 1 view .LVU64
 260              		.loc 1 266 14 is_stmt 0 view .LVU65
 261 0112 9268     		ldr	r2, [r2, #8]
 262              	.LVL21:
 267:Drivers/STM32G4xx_HAL_Driver/Src/stm32g4xx_hal_gpio.c ****         temp &= ~(iocurrent);
 263              		.loc 1 267 9 is_stmt 1 view .LVU66
 264              		.loc 1 267 14 is_stmt 0 view .LVU67
 265 0114 03EA0201 		and	r1, r3, r2
 266              	.LVL22:
 268:Drivers/STM32G4xx_HAL_Driver/Src/stm32g4xx_hal_gpio.c ****         if ((GPIO_Init->Mode & RISING_EDGE) == RISING_EDGE)
 267              		.loc 1 268 9 is_stmt 1 view .LVU68
 268              		.loc 1 268 23 is_stmt 0 view .LVU69
 269 0118 6068     		ldr	r0, [r4, #4]
 270              		.loc 1 268 12 view .LVU70
 271 011a 10F4801F 		tst	r0, #1048576
 272 011e 01D0     		beq	.L19
 269:Drivers/STM32G4xx_HAL_Driver/Src/stm32g4xx_hal_gpio.c ****         {
 270:Drivers/STM32G4xx_HAL_Driver/Src/stm32g4xx_hal_gpio.c ****           temp |= iocurrent;
 273              		.loc 1 270 11 is_stmt 1 view .LVU71
 274              		.loc 1 270 16 is_stmt 0 view .LVU72
 275 0120 47EA0201 		orr	r1, r7, r2
 276              	.LVL23:
 277              	.L19:
 271:Drivers/STM32G4xx_HAL_Driver/Src/stm32g4xx_hal_gpio.c ****         }
 272:Drivers/STM32G4xx_HAL_Driver/Src/stm32g4xx_hal_gpio.c ****         EXTI->RTSR1 = temp;
 278              		.loc 1 272 9 is_stmt 1 view .LVU73
 279              		.loc 1 272 21 is_stmt 0 view .LVU74
 280 0124 684A     		ldr	r2, .L35+16
 281 0126 9160     		str	r1, [r2, #8]
 273:Drivers/STM32G4xx_HAL_Driver/Src/stm32g4xx_hal_gpio.c **** 
 274:Drivers/STM32G4xx_HAL_Driver/Src/stm32g4xx_hal_gpio.c ****         temp = EXTI->FTSR1;
 282              		.loc 1 274 9 is_stmt 1 view .LVU75
 283              		.loc 1 274 14 is_stmt 0 view .LVU76
 284 0128 D268     		ldr	r2, [r2, #12]
 285              	.LVL24:
 275:Drivers/STM32G4xx_HAL_Driver/Src/stm32g4xx_hal_gpio.c ****         temp &= ~(iocurrent);
 286              		.loc 1 275 9 is_stmt 1 view .LVU77
 287              		.loc 1 275 14 is_stmt 0 view .LVU78
 288 012a 1340     		ands	r3, r3, r2
ARM GAS  /tmp/ccGhNtsO.s 			page 11


 289              	.LVL25:
 276:Drivers/STM32G4xx_HAL_Driver/Src/stm32g4xx_hal_gpio.c ****         if ((GPIO_Init->Mode & FALLING_EDGE) == FALLING_EDGE)
 290              		.loc 1 276 9 is_stmt 1 view .LVU79
 291              		.loc 1 276 23 is_stmt 0 view .LVU80
 292 012c 6168     		ldr	r1, [r4, #4]
 293              		.loc 1 276 12 view .LVU81
 294 012e 11F4001F 		tst	r1, #2097152
 295 0132 01D0     		beq	.L20
 277:Drivers/STM32G4xx_HAL_Driver/Src/stm32g4xx_hal_gpio.c ****         {
 278:Drivers/STM32G4xx_HAL_Driver/Src/stm32g4xx_hal_gpio.c ****           temp |= iocurrent;
 296              		.loc 1 278 11 is_stmt 1 view .LVU82
 297              		.loc 1 278 16 is_stmt 0 view .LVU83
 298 0134 47EA0203 		orr	r3, r7, r2
 299              	.LVL26:
 300              	.L20:
 279:Drivers/STM32G4xx_HAL_Driver/Src/stm32g4xx_hal_gpio.c ****         }
 280:Drivers/STM32G4xx_HAL_Driver/Src/stm32g4xx_hal_gpio.c ****         EXTI->FTSR1 = temp;
 301              		.loc 1 280 9 is_stmt 1 view .LVU84
 302              		.loc 1 280 21 is_stmt 0 view .LVU85
 303 0138 634A     		ldr	r2, .L35+16
 304 013a D360     		str	r3, [r2, #12]
 305              	.LVL27:
 306              	.L8:
 281:Drivers/STM32G4xx_HAL_Driver/Src/stm32g4xx_hal_gpio.c ****       }
 282:Drivers/STM32G4xx_HAL_Driver/Src/stm32g4xx_hal_gpio.c ****     }
 283:Drivers/STM32G4xx_HAL_Driver/Src/stm32g4xx_hal_gpio.c **** 
 284:Drivers/STM32G4xx_HAL_Driver/Src/stm32g4xx_hal_gpio.c ****     position++;
 307              		.loc 1 284 5 is_stmt 1 view .LVU86
 308              		.loc 1 284 13 is_stmt 0 view .LVU87
 309 013c 0135     		adds	r5, r5, #1
 310              	.LVL28:
 311              	.L7:
 183:Drivers/STM32G4xx_HAL_Driver/Src/stm32g4xx_hal_gpio.c ****   {
 312              		.loc 1 183 9 is_stmt 1 view .LVU88
 183:Drivers/STM32G4xx_HAL_Driver/Src/stm32g4xx_hal_gpio.c ****   {
 313              		.loc 1 183 21 is_stmt 0 view .LVU89
 314 013e 2768     		ldr	r7, [r4]
 183:Drivers/STM32G4xx_HAL_Driver/Src/stm32g4xx_hal_gpio.c ****   {
 315              		.loc 1 183 9 view .LVU90
 316 0140 37FA05F3 		lsrs	r3, r7, r5
 317 0144 00F0B480 		beq	.L31
 186:Drivers/STM32G4xx_HAL_Driver/Src/stm32g4xx_hal_gpio.c **** 
 318              		.loc 1 186 5 is_stmt 1 view .LVU91
 186:Drivers/STM32G4xx_HAL_Driver/Src/stm32g4xx_hal_gpio.c **** 
 319              		.loc 1 186 41 is_stmt 0 view .LVU92
 320 0148 4FF00108 		mov	r8, #1
 321 014c 08FA05F8 		lsl	r8, r8, r5
 322              	.LVL29:
 188:Drivers/STM32G4xx_HAL_Driver/Src/stm32g4xx_hal_gpio.c ****     {
 323              		.loc 1 188 5 is_stmt 1 view .LVU93
 188:Drivers/STM32G4xx_HAL_Driver/Src/stm32g4xx_hal_gpio.c ****     {
 324              		.loc 1 188 8 is_stmt 0 view .LVU94
 325 0150 18EA0707 		ands	r7, r8, r7
 326              	.LVL30:
 188:Drivers/STM32G4xx_HAL_Driver/Src/stm32g4xx_hal_gpio.c ****     {
 327              		.loc 1 188 8 view .LVU95
 328 0154 F2D0     		beq	.L8
ARM GAS  /tmp/ccGhNtsO.s 			page 12


 192:Drivers/STM32G4xx_HAL_Driver/Src/stm32g4xx_hal_gpio.c ****           (GPIO_Init->Mode == GPIO_MODE_OUTPUT_OD) || (GPIO_Init->Mode == GPIO_MODE_AF_OD))
 329              		.loc 1 192 7 is_stmt 1 view .LVU96
 192:Drivers/STM32G4xx_HAL_Driver/Src/stm32g4xx_hal_gpio.c ****           (GPIO_Init->Mode == GPIO_MODE_OUTPUT_OD) || (GPIO_Init->Mode == GPIO_MODE_AF_OD))
 330              		.loc 1 192 21 is_stmt 0 view .LVU97
 331 0156 6368     		ldr	r3, [r4, #4]
 192:Drivers/STM32G4xx_HAL_Driver/Src/stm32g4xx_hal_gpio.c ****           (GPIO_Init->Mode == GPIO_MODE_OUTPUT_OD) || (GPIO_Init->Mode == GPIO_MODE_AF_OD))
 332              		.loc 1 192 52 view .LVU98
 333 0158 5A1E     		subs	r2, r3, #1
 192:Drivers/STM32G4xx_HAL_Driver/Src/stm32g4xx_hal_gpio.c ****           (GPIO_Init->Mode == GPIO_MODE_OUTPUT_OD) || (GPIO_Init->Mode == GPIO_MODE_AF_OD))
 334              		.loc 1 192 10 view .LVU99
 335 015a 012A     		cmp	r2, #1
 336 015c 03D9     		bls	.L9
 192:Drivers/STM32G4xx_HAL_Driver/Src/stm32g4xx_hal_gpio.c ****           (GPIO_Init->Mode == GPIO_MODE_OUTPUT_OD) || (GPIO_Init->Mode == GPIO_MODE_AF_OD))
 337              		.loc 1 192 92 discriminator 1 view .LVU100
 338 015e 112B     		cmp	r3, #17
 339 0160 01D0     		beq	.L9
 193:Drivers/STM32G4xx_HAL_Driver/Src/stm32g4xx_hal_gpio.c ****       {
 340              		.loc 1 193 52 view .LVU101
 341 0162 122B     		cmp	r3, #18
 342 0164 16D1     		bne	.L10
 343              	.L9:
 196:Drivers/STM32G4xx_HAL_Driver/Src/stm32g4xx_hal_gpio.c ****         /* Configure the IO Speed */
 344              		.loc 1 196 9 is_stmt 1 view .LVU102
 345 0166 E368     		ldr	r3, [r4, #12]
 346 0168 032B     		cmp	r3, #3
 347 016a A7D8     		bhi	.L32
 348              	.L11:
 198:Drivers/STM32G4xx_HAL_Driver/Src/stm32g4xx_hal_gpio.c ****         temp &= ~(GPIO_OSPEEDR_OSPEED0 << (position * 2U));
 349              		.loc 1 198 9 view .LVU103
 198:Drivers/STM32G4xx_HAL_Driver/Src/stm32g4xx_hal_gpio.c ****         temp &= ~(GPIO_OSPEEDR_OSPEED0 << (position * 2U));
 350              		.loc 1 198 14 is_stmt 0 view .LVU104
 351 016c B268     		ldr	r2, [r6, #8]
 352              	.LVL31:
 199:Drivers/STM32G4xx_HAL_Driver/Src/stm32g4xx_hal_gpio.c ****         temp |= (GPIO_Init->Speed << (position * 2U));
 353              		.loc 1 199 9 is_stmt 1 view .LVU105
 199:Drivers/STM32G4xx_HAL_Driver/Src/stm32g4xx_hal_gpio.c ****         temp |= (GPIO_Init->Speed << (position * 2U));
 354              		.loc 1 199 53 is_stmt 0 view .LVU106
 355 016e 6900     		lsls	r1, r5, #1
 199:Drivers/STM32G4xx_HAL_Driver/Src/stm32g4xx_hal_gpio.c ****         temp |= (GPIO_Init->Speed << (position * 2U));
 356              		.loc 1 199 40 view .LVU107
 357 0170 0323     		movs	r3, #3
 358 0172 8B40     		lsls	r3, r3, r1
 199:Drivers/STM32G4xx_HAL_Driver/Src/stm32g4xx_hal_gpio.c ****         temp |= (GPIO_Init->Speed << (position * 2U));
 359              		.loc 1 199 14 view .LVU108
 360 0174 22EA0302 		bic	r2, r2, r3
 361              	.LVL32:
 200:Drivers/STM32G4xx_HAL_Driver/Src/stm32g4xx_hal_gpio.c ****         GPIOx->OSPEEDR = temp;
 362              		.loc 1 200 9 is_stmt 1 view .LVU109
 200:Drivers/STM32G4xx_HAL_Driver/Src/stm32g4xx_hal_gpio.c ****         GPIOx->OSPEEDR = temp;
 363              		.loc 1 200 27 is_stmt 0 view .LVU110
 364 0178 E368     		ldr	r3, [r4, #12]
 200:Drivers/STM32G4xx_HAL_Driver/Src/stm32g4xx_hal_gpio.c ****         GPIOx->OSPEEDR = temp;
 365              		.loc 1 200 35 view .LVU111
 366 017a 8B40     		lsls	r3, r3, r1
 200:Drivers/STM32G4xx_HAL_Driver/Src/stm32g4xx_hal_gpio.c ****         GPIOx->OSPEEDR = temp;
 367              		.loc 1 200 14 view .LVU112
 368 017c 1343     		orrs	r3, r3, r2
ARM GAS  /tmp/ccGhNtsO.s 			page 13


 369              	.LVL33:
 201:Drivers/STM32G4xx_HAL_Driver/Src/stm32g4xx_hal_gpio.c **** 
 370              		.loc 1 201 9 is_stmt 1 view .LVU113
 201:Drivers/STM32G4xx_HAL_Driver/Src/stm32g4xx_hal_gpio.c **** 
 371              		.loc 1 201 24 is_stmt 0 view .LVU114
 372 017e B360     		str	r3, [r6, #8]
 204:Drivers/STM32G4xx_HAL_Driver/Src/stm32g4xx_hal_gpio.c ****         temp &= ~(GPIO_OTYPER_OT0 << position) ;
 373              		.loc 1 204 9 is_stmt 1 view .LVU115
 204:Drivers/STM32G4xx_HAL_Driver/Src/stm32g4xx_hal_gpio.c ****         temp &= ~(GPIO_OTYPER_OT0 << position) ;
 374              		.loc 1 204 14 is_stmt 0 view .LVU116
 375 0180 7368     		ldr	r3, [r6, #4]
 376              	.LVL34:
 205:Drivers/STM32G4xx_HAL_Driver/Src/stm32g4xx_hal_gpio.c ****         temp |= (((GPIO_Init->Mode & GPIO_OUTPUT_TYPE) >> 4U) << position);
 377              		.loc 1 205 9 is_stmt 1 view .LVU117
 205:Drivers/STM32G4xx_HAL_Driver/Src/stm32g4xx_hal_gpio.c ****         temp |= (((GPIO_Init->Mode & GPIO_OUTPUT_TYPE) >> 4U) << position);
 378              		.loc 1 205 14 is_stmt 0 view .LVU118
 379 0182 23EA0808 		bic	r8, r3, r8
 380              	.LVL35:
 206:Drivers/STM32G4xx_HAL_Driver/Src/stm32g4xx_hal_gpio.c ****         GPIOx->OTYPER = temp;
 381              		.loc 1 206 9 is_stmt 1 view .LVU119
 206:Drivers/STM32G4xx_HAL_Driver/Src/stm32g4xx_hal_gpio.c ****         GPIOx->OTYPER = temp;
 382              		.loc 1 206 29 is_stmt 0 view .LVU120
 383 0186 6368     		ldr	r3, [r4, #4]
 206:Drivers/STM32G4xx_HAL_Driver/Src/stm32g4xx_hal_gpio.c ****         GPIOx->OTYPER = temp;
 384              		.loc 1 206 56 view .LVU121
 385 0188 C3F30013 		ubfx	r3, r3, #4, #1
 206:Drivers/STM32G4xx_HAL_Driver/Src/stm32g4xx_hal_gpio.c ****         GPIOx->OTYPER = temp;
 386              		.loc 1 206 63 view .LVU122
 387 018c AB40     		lsls	r3, r3, r5
 206:Drivers/STM32G4xx_HAL_Driver/Src/stm32g4xx_hal_gpio.c ****         GPIOx->OTYPER = temp;
 388              		.loc 1 206 14 view .LVU123
 389 018e 43EA0803 		orr	r3, r3, r8
 390              	.LVL36:
 207:Drivers/STM32G4xx_HAL_Driver/Src/stm32g4xx_hal_gpio.c ****       }
 391              		.loc 1 207 9 is_stmt 1 view .LVU124
 207:Drivers/STM32G4xx_HAL_Driver/Src/stm32g4xx_hal_gpio.c ****       }
 392              		.loc 1 207 23 is_stmt 0 view .LVU125
 393 0192 7360     		str	r3, [r6, #4]
 394              	.LVL37:
 395              	.L10:
 211:Drivers/STM32G4xx_HAL_Driver/Src/stm32g4xx_hal_gpio.c ****       temp &= ~(GPIO_PUPDR_PUPD0 << (position * 2U));
 396              		.loc 1 211 7 is_stmt 1 view .LVU126
 211:Drivers/STM32G4xx_HAL_Driver/Src/stm32g4xx_hal_gpio.c ****       temp &= ~(GPIO_PUPDR_PUPD0 << (position * 2U));
 397              		.loc 1 211 12 is_stmt 0 view .LVU127
 398 0194 F268     		ldr	r2, [r6, #12]
 399              	.LVL38:
 212:Drivers/STM32G4xx_HAL_Driver/Src/stm32g4xx_hal_gpio.c ****       temp |= ((GPIO_Init->Pull) << (position * 2U));
 400              		.loc 1 212 7 is_stmt 1 view .LVU128
 212:Drivers/STM32G4xx_HAL_Driver/Src/stm32g4xx_hal_gpio.c ****       temp |= ((GPIO_Init->Pull) << (position * 2U));
 401              		.loc 1 212 47 is_stmt 0 view .LVU129
 402 0196 4FEA4508 		lsl	r8, r5, #1
 212:Drivers/STM32G4xx_HAL_Driver/Src/stm32g4xx_hal_gpio.c ****       temp |= ((GPIO_Init->Pull) << (position * 2U));
 403              		.loc 1 212 34 view .LVU130
 404 019a 0323     		movs	r3, #3
 405 019c 03FA08F3 		lsl	r3, r3, r8
 212:Drivers/STM32G4xx_HAL_Driver/Src/stm32g4xx_hal_gpio.c ****       temp |= ((GPIO_Init->Pull) << (position * 2U));
 406              		.loc 1 212 15 view .LVU131
ARM GAS  /tmp/ccGhNtsO.s 			page 14


 407 01a0 6FEA0309 		mvn	r9, r3
 212:Drivers/STM32G4xx_HAL_Driver/Src/stm32g4xx_hal_gpio.c ****       temp |= ((GPIO_Init->Pull) << (position * 2U));
 408              		.loc 1 212 12 view .LVU132
 409 01a4 22EA0302 		bic	r2, r2, r3
 410              	.LVL39:
 213:Drivers/STM32G4xx_HAL_Driver/Src/stm32g4xx_hal_gpio.c ****       GPIOx->PUPDR = temp;
 411              		.loc 1 213 7 is_stmt 1 view .LVU133
 213:Drivers/STM32G4xx_HAL_Driver/Src/stm32g4xx_hal_gpio.c ****       GPIOx->PUPDR = temp;
 412              		.loc 1 213 26 is_stmt 0 view .LVU134
 413 01a8 A368     		ldr	r3, [r4, #8]
 213:Drivers/STM32G4xx_HAL_Driver/Src/stm32g4xx_hal_gpio.c ****       GPIOx->PUPDR = temp;
 414              		.loc 1 213 34 view .LVU135
 415 01aa 03FA08F3 		lsl	r3, r3, r8
 213:Drivers/STM32G4xx_HAL_Driver/Src/stm32g4xx_hal_gpio.c ****       GPIOx->PUPDR = temp;
 416              		.loc 1 213 12 view .LVU136
 417 01ae 1343     		orrs	r3, r3, r2
 418              	.LVL40:
 214:Drivers/STM32G4xx_HAL_Driver/Src/stm32g4xx_hal_gpio.c **** 
 419              		.loc 1 214 7 is_stmt 1 view .LVU137
 214:Drivers/STM32G4xx_HAL_Driver/Src/stm32g4xx_hal_gpio.c **** 
 420              		.loc 1 214 20 is_stmt 0 view .LVU138
 421 01b0 F360     		str	r3, [r6, #12]
 217:Drivers/STM32G4xx_HAL_Driver/Src/stm32g4xx_hal_gpio.c ****       {
 422              		.loc 1 217 7 is_stmt 1 view .LVU139
 217:Drivers/STM32G4xx_HAL_Driver/Src/stm32g4xx_hal_gpio.c ****       {
 423              		.loc 1 217 21 is_stmt 0 view .LVU140
 424 01b2 6368     		ldr	r3, [r4, #4]
 425              	.LVL41:
 217:Drivers/STM32G4xx_HAL_Driver/Src/stm32g4xx_hal_gpio.c ****       {
 426              		.loc 1 217 10 view .LVU141
 427 01b4 022B     		cmp	r3, #2
 428 01b6 01D0     		beq	.L12
 217:Drivers/STM32G4xx_HAL_Driver/Src/stm32g4xx_hal_gpio.c ****       {
 429              		.loc 1 217 48 discriminator 1 view .LVU142
 430 01b8 122B     		cmp	r3, #18
 431 01ba 31D1     		bne	.L13
 432              	.L12:
 220:Drivers/STM32G4xx_HAL_Driver/Src/stm32g4xx_hal_gpio.c ****         assert_param(IS_GPIO_AF(GPIO_Init->Alternate));
 433              		.loc 1 220 9 is_stmt 1 view .LVU143
 434 01bc B6F1904F 		cmp	r6, #1207959552
 435 01c0 1AD0     		beq	.L14
 220:Drivers/STM32G4xx_HAL_Driver/Src/stm32g4xx_hal_gpio.c ****         assert_param(IS_GPIO_AF(GPIO_Init->Alternate));
 436              		.loc 1 220 9 is_stmt 0 discriminator 1 view .LVU144
 437 01c2 3D4B     		ldr	r3, .L35
 438 01c4 9E42     		cmp	r6, r3
 439 01c6 17D0     		beq	.L14
 220:Drivers/STM32G4xx_HAL_Driver/Src/stm32g4xx_hal_gpio.c ****         assert_param(IS_GPIO_AF(GPIO_Init->Alternate));
 440              		.loc 1 220 9 discriminator 2 view .LVU145
 441 01c8 03F58063 		add	r3, r3, #1024
 442 01cc 9E42     		cmp	r6, r3
 443 01ce 13D0     		beq	.L14
 220:Drivers/STM32G4xx_HAL_Driver/Src/stm32g4xx_hal_gpio.c ****         assert_param(IS_GPIO_AF(GPIO_Init->Alternate));
 444              		.loc 1 220 9 discriminator 3 view .LVU146
 445 01d0 03F58063 		add	r3, r3, #1024
 446 01d4 9E42     		cmp	r6, r3
 447 01d6 0FD0     		beq	.L14
 220:Drivers/STM32G4xx_HAL_Driver/Src/stm32g4xx_hal_gpio.c ****         assert_param(IS_GPIO_AF(GPIO_Init->Alternate));
ARM GAS  /tmp/ccGhNtsO.s 			page 15


 448              		.loc 1 220 9 discriminator 4 view .LVU147
 449 01d8 03F58063 		add	r3, r3, #1024
 450 01dc 9E42     		cmp	r6, r3
 451 01de 0BD0     		beq	.L14
 220:Drivers/STM32G4xx_HAL_Driver/Src/stm32g4xx_hal_gpio.c ****         assert_param(IS_GPIO_AF(GPIO_Init->Alternate));
 452              		.loc 1 220 9 discriminator 5 view .LVU148
 453 01e0 03F58063 		add	r3, r3, #1024
 454 01e4 9E42     		cmp	r6, r3
 455 01e6 07D0     		beq	.L14
 220:Drivers/STM32G4xx_HAL_Driver/Src/stm32g4xx_hal_gpio.c ****         assert_param(IS_GPIO_AF(GPIO_Init->Alternate));
 456              		.loc 1 220 9 discriminator 6 view .LVU149
 457 01e8 03F58063 		add	r3, r3, #1024
 458 01ec 9E42     		cmp	r6, r3
 459 01ee 03D0     		beq	.L14
 220:Drivers/STM32G4xx_HAL_Driver/Src/stm32g4xx_hal_gpio.c ****         assert_param(IS_GPIO_AF(GPIO_Init->Alternate));
 460              		.loc 1 220 9 discriminator 7 view .LVU150
 461 01f0 DC21     		movs	r1, #220
 462 01f2 3248     		ldr	r0, .L35+4
 463 01f4 FFF7FEFF 		bl	assert_failed
 464              	.LVL42:
 465              	.L14:
 221:Drivers/STM32G4xx_HAL_Driver/Src/stm32g4xx_hal_gpio.c **** 
 466              		.loc 1 221 9 is_stmt 1 view .LVU151
 467 01f8 2369     		ldr	r3, [r4, #16]
 468 01fa 0F2B     		cmp	r3, #15
 469 01fc 3FF663AF 		bhi	.L33
 470              	.L15:
 224:Drivers/STM32G4xx_HAL_Driver/Src/stm32g4xx_hal_gpio.c ****         temp &= ~(0xFU << ((position & 0x07U) * 4U));
 471              		.loc 1 224 9 view .LVU152
 224:Drivers/STM32G4xx_HAL_Driver/Src/stm32g4xx_hal_gpio.c ****         temp &= ~(0xFU << ((position & 0x07U) * 4U));
 472              		.loc 1 224 36 is_stmt 0 view .LVU153
 473 0200 EA08     		lsrs	r2, r5, #3
 224:Drivers/STM32G4xx_HAL_Driver/Src/stm32g4xx_hal_gpio.c ****         temp &= ~(0xFU << ((position & 0x07U) * 4U));
 474              		.loc 1 224 14 view .LVU154
 475 0202 0832     		adds	r2, r2, #8
 476 0204 56F82200 		ldr	r0, [r6, r2, lsl #2]
 477              	.LVL43:
 225:Drivers/STM32G4xx_HAL_Driver/Src/stm32g4xx_hal_gpio.c ****         temp |= ((GPIO_Init->Alternate) << ((position & 0x07U) * 4U));
 478              		.loc 1 225 9 is_stmt 1 view .LVU155
 225:Drivers/STM32G4xx_HAL_Driver/Src/stm32g4xx_hal_gpio.c ****         temp |= ((GPIO_Init->Alternate) << ((position & 0x07U) * 4U));
 479              		.loc 1 225 38 is_stmt 0 view .LVU156
 480 0208 05F00703 		and	r3, r5, #7
 225:Drivers/STM32G4xx_HAL_Driver/Src/stm32g4xx_hal_gpio.c ****         temp |= ((GPIO_Init->Alternate) << ((position & 0x07U) * 4U));
 481              		.loc 1 225 47 view .LVU157
 482 020c 9900     		lsls	r1, r3, #2
 225:Drivers/STM32G4xx_HAL_Driver/Src/stm32g4xx_hal_gpio.c ****         temp |= ((GPIO_Init->Alternate) << ((position & 0x07U) * 4U));
 483              		.loc 1 225 24 view .LVU158
 484 020e 0F23     		movs	r3, #15
 485 0210 8B40     		lsls	r3, r3, r1
 225:Drivers/STM32G4xx_HAL_Driver/Src/stm32g4xx_hal_gpio.c ****         temp |= ((GPIO_Init->Alternate) << ((position & 0x07U) * 4U));
 486              		.loc 1 225 14 view .LVU159
 487 0212 20EA0300 		bic	r0, r0, r3
 488              	.LVL44:
 226:Drivers/STM32G4xx_HAL_Driver/Src/stm32g4xx_hal_gpio.c ****         GPIOx->AFR[position >> 3U] = temp;
 489              		.loc 1 226 9 is_stmt 1 view .LVU160
 226:Drivers/STM32G4xx_HAL_Driver/Src/stm32g4xx_hal_gpio.c ****         GPIOx->AFR[position >> 3U] = temp;
 490              		.loc 1 226 28 is_stmt 0 view .LVU161
ARM GAS  /tmp/ccGhNtsO.s 			page 16


 491 0216 2369     		ldr	r3, [r4, #16]
 226:Drivers/STM32G4xx_HAL_Driver/Src/stm32g4xx_hal_gpio.c ****         GPIOx->AFR[position >> 3U] = temp;
 492              		.loc 1 226 41 view .LVU162
 493 0218 8B40     		lsls	r3, r3, r1
 226:Drivers/STM32G4xx_HAL_Driver/Src/stm32g4xx_hal_gpio.c ****         GPIOx->AFR[position >> 3U] = temp;
 494              		.loc 1 226 14 view .LVU163
 495 021a 0343     		orrs	r3, r3, r0
 496              	.LVL45:
 227:Drivers/STM32G4xx_HAL_Driver/Src/stm32g4xx_hal_gpio.c ****       }
 497              		.loc 1 227 9 is_stmt 1 view .LVU164
 227:Drivers/STM32G4xx_HAL_Driver/Src/stm32g4xx_hal_gpio.c ****       }
 498              		.loc 1 227 36 is_stmt 0 view .LVU165
 499 021c 46F82230 		str	r3, [r6, r2, lsl #2]
 500              	.LVL46:
 501              	.L13:
 231:Drivers/STM32G4xx_HAL_Driver/Src/stm32g4xx_hal_gpio.c ****       temp &= ~(GPIO_MODER_MODE0 << (position * 2U));
 502              		.loc 1 231 7 is_stmt 1 view .LVU166
 231:Drivers/STM32G4xx_HAL_Driver/Src/stm32g4xx_hal_gpio.c ****       temp &= ~(GPIO_MODER_MODE0 << (position * 2U));
 503              		.loc 1 231 12 is_stmt 0 view .LVU167
 504 0220 3368     		ldr	r3, [r6]
 505              	.LVL47:
 232:Drivers/STM32G4xx_HAL_Driver/Src/stm32g4xx_hal_gpio.c ****       temp |= ((GPIO_Init->Mode & GPIO_MODE) << (position * 2U));
 506              		.loc 1 232 7 is_stmt 1 view .LVU168
 232:Drivers/STM32G4xx_HAL_Driver/Src/stm32g4xx_hal_gpio.c ****       temp |= ((GPIO_Init->Mode & GPIO_MODE) << (position * 2U));
 507              		.loc 1 232 12 is_stmt 0 view .LVU169
 508 0222 09EA0309 		and	r9, r9, r3
 509              	.LVL48:
 233:Drivers/STM32G4xx_HAL_Driver/Src/stm32g4xx_hal_gpio.c ****       GPIOx->MODER = temp;
 510              		.loc 1 233 7 is_stmt 1 view .LVU170
 233:Drivers/STM32G4xx_HAL_Driver/Src/stm32g4xx_hal_gpio.c ****       GPIOx->MODER = temp;
 511              		.loc 1 233 26 is_stmt 0 view .LVU171
 512 0226 6368     		ldr	r3, [r4, #4]
 233:Drivers/STM32G4xx_HAL_Driver/Src/stm32g4xx_hal_gpio.c ****       GPIOx->MODER = temp;
 513              		.loc 1 233 33 view .LVU172
 514 0228 03F00303 		and	r3, r3, #3
 233:Drivers/STM32G4xx_HAL_Driver/Src/stm32g4xx_hal_gpio.c ****       GPIOx->MODER = temp;
 515              		.loc 1 233 46 view .LVU173
 516 022c 03FA08F3 		lsl	r3, r3, r8
 233:Drivers/STM32G4xx_HAL_Driver/Src/stm32g4xx_hal_gpio.c ****       GPIOx->MODER = temp;
 517              		.loc 1 233 12 view .LVU174
 518 0230 43EA0903 		orr	r3, r3, r9
 519              	.LVL49:
 234:Drivers/STM32G4xx_HAL_Driver/Src/stm32g4xx_hal_gpio.c **** 
 520              		.loc 1 234 7 is_stmt 1 view .LVU175
 234:Drivers/STM32G4xx_HAL_Driver/Src/stm32g4xx_hal_gpio.c **** 
 521              		.loc 1 234 20 is_stmt 0 view .LVU176
 522 0234 3360     		str	r3, [r6]
 238:Drivers/STM32G4xx_HAL_Driver/Src/stm32g4xx_hal_gpio.c ****       {
 523              		.loc 1 238 7 is_stmt 1 view .LVU177
 238:Drivers/STM32G4xx_HAL_Driver/Src/stm32g4xx_hal_gpio.c ****       {
 524              		.loc 1 238 21 is_stmt 0 view .LVU178
 525 0236 6368     		ldr	r3, [r4, #4]
 526              	.LVL50:
 238:Drivers/STM32G4xx_HAL_Driver/Src/stm32g4xx_hal_gpio.c ****       {
 527              		.loc 1 238 10 view .LVU179
 528 0238 13F0805F 		tst	r3, #268435456
 529 023c 3FF47EAF 		beq	.L8
ARM GAS  /tmp/ccGhNtsO.s 			page 17


 241:Drivers/STM32G4xx_HAL_Driver/Src/stm32g4xx_hal_gpio.c **** 
 530              		.loc 1 241 9 is_stmt 1 view .LVU180
 531              	.LBB2:
 241:Drivers/STM32G4xx_HAL_Driver/Src/stm32g4xx_hal_gpio.c **** 
 532              		.loc 1 241 9 view .LVU181
 241:Drivers/STM32G4xx_HAL_Driver/Src/stm32g4xx_hal_gpio.c **** 
 533              		.loc 1 241 9 view .LVU182
 534 0240 224B     		ldr	r3, .L35+20
 535 0242 1A6E     		ldr	r2, [r3, #96]
 536 0244 42F00102 		orr	r2, r2, #1
 537 0248 1A66     		str	r2, [r3, #96]
 538              	.LVL51:
 241:Drivers/STM32G4xx_HAL_Driver/Src/stm32g4xx_hal_gpio.c **** 
 539              		.loc 1 241 9 view .LVU183
 540 024a 1B6E     		ldr	r3, [r3, #96]
 541 024c 03F00103 		and	r3, r3, #1
 542 0250 0193     		str	r3, [sp, #4]
 241:Drivers/STM32G4xx_HAL_Driver/Src/stm32g4xx_hal_gpio.c **** 
 543              		.loc 1 241 9 view .LVU184
 544 0252 019B     		ldr	r3, [sp, #4]
 545              	.LBE2:
 241:Drivers/STM32G4xx_HAL_Driver/Src/stm32g4xx_hal_gpio.c **** 
 546              		.loc 1 241 9 view .LVU185
 243:Drivers/STM32G4xx_HAL_Driver/Src/stm32g4xx_hal_gpio.c ****         temp &= ~(0x0FUL << (4U * (position & 0x03U)));
 547              		.loc 1 243 9 view .LVU186
 243:Drivers/STM32G4xx_HAL_Driver/Src/stm32g4xx_hal_gpio.c ****         temp &= ~(0x0FUL << (4U * (position & 0x03U)));
 548              		.loc 1 243 40 is_stmt 0 view .LVU187
 549 0254 AA08     		lsrs	r2, r5, #2
 243:Drivers/STM32G4xx_HAL_Driver/Src/stm32g4xx_hal_gpio.c ****         temp &= ~(0x0FUL << (4U * (position & 0x03U)));
 550              		.loc 1 243 14 view .LVU188
 551 0256 911C     		adds	r1, r2, #2
 552 0258 1A4B     		ldr	r3, .L35+12
 553 025a 53F82100 		ldr	r0, [r3, r1, lsl #2]
 554              	.LVL52:
 244:Drivers/STM32G4xx_HAL_Driver/Src/stm32g4xx_hal_gpio.c ****         temp |= (GPIO_GET_INDEX(GPIOx) << (4U * (position & 0x03U)));
 555              		.loc 1 244 9 is_stmt 1 view .LVU189
 244:Drivers/STM32G4xx_HAL_Driver/Src/stm32g4xx_hal_gpio.c ****         temp |= (GPIO_GET_INDEX(GPIOx) << (4U * (position & 0x03U)));
 556              		.loc 1 244 45 is_stmt 0 view .LVU190
 557 025e 05F00303 		and	r3, r5, #3
 244:Drivers/STM32G4xx_HAL_Driver/Src/stm32g4xx_hal_gpio.c ****         temp |= (GPIO_GET_INDEX(GPIOx) << (4U * (position & 0x03U)));
 558              		.loc 1 244 33 view .LVU191
 559 0262 9900     		lsls	r1, r3, #2
 244:Drivers/STM32G4xx_HAL_Driver/Src/stm32g4xx_hal_gpio.c ****         temp |= (GPIO_GET_INDEX(GPIOx) << (4U * (position & 0x03U)));
 560              		.loc 1 244 26 view .LVU192
 561 0264 0F23     		movs	r3, #15
 562 0266 8B40     		lsls	r3, r3, r1
 244:Drivers/STM32G4xx_HAL_Driver/Src/stm32g4xx_hal_gpio.c ****         temp |= (GPIO_GET_INDEX(GPIOx) << (4U * (position & 0x03U)));
 563              		.loc 1 244 14 view .LVU193
 564 0268 20EA0300 		bic	r0, r0, r3
 565              	.LVL53:
 245:Drivers/STM32G4xx_HAL_Driver/Src/stm32g4xx_hal_gpio.c ****         SYSCFG->EXTICR[position >> 2U] = temp;
 566              		.loc 1 245 9 is_stmt 1 view .LVU194
 245:Drivers/STM32G4xx_HAL_Driver/Src/stm32g4xx_hal_gpio.c ****         SYSCFG->EXTICR[position >> 2U] = temp;
 567              		.loc 1 245 18 is_stmt 0 view .LVU195
 568 026c B6F1904F 		cmp	r6, #1207959552
 569 0270 3FF430AF 		beq	.L22
 245:Drivers/STM32G4xx_HAL_Driver/Src/stm32g4xx_hal_gpio.c ****         SYSCFG->EXTICR[position >> 2U] = temp;
ARM GAS  /tmp/ccGhNtsO.s 			page 18


 570              		.loc 1 245 18 discriminator 1 view .LVU196
 571 0274 104B     		ldr	r3, .L35
 572 0276 9E42     		cmp	r6, r3
 573 0278 12D0     		beq	.L23
 245:Drivers/STM32G4xx_HAL_Driver/Src/stm32g4xx_hal_gpio.c ****         SYSCFG->EXTICR[position >> 2U] = temp;
 574              		.loc 1 245 18 discriminator 3 view .LVU197
 575 027a 03F58063 		add	r3, r3, #1024
 576 027e 9E42     		cmp	r6, r3
 577 0280 10D0     		beq	.L24
 245:Drivers/STM32G4xx_HAL_Driver/Src/stm32g4xx_hal_gpio.c ****         SYSCFG->EXTICR[position >> 2U] = temp;
 578              		.loc 1 245 18 discriminator 5 view .LVU198
 579 0282 03F58063 		add	r3, r3, #1024
 580 0286 9E42     		cmp	r6, r3
 581 0288 0ED0     		beq	.L25
 245:Drivers/STM32G4xx_HAL_Driver/Src/stm32g4xx_hal_gpio.c ****         SYSCFG->EXTICR[position >> 2U] = temp;
 582              		.loc 1 245 18 discriminator 7 view .LVU199
 583 028a 03F58063 		add	r3, r3, #1024
 584 028e 9E42     		cmp	r6, r3
 585 0290 0CD0     		beq	.L26
 245:Drivers/STM32G4xx_HAL_Driver/Src/stm32g4xx_hal_gpio.c ****         SYSCFG->EXTICR[position >> 2U] = temp;
 586              		.loc 1 245 18 discriminator 9 view .LVU200
 587 0292 03F58063 		add	r3, r3, #1024
 588 0296 9E42     		cmp	r6, r3
 589 0298 3FF41AAF 		beq	.L34
 245:Drivers/STM32G4xx_HAL_Driver/Src/stm32g4xx_hal_gpio.c ****         SYSCFG->EXTICR[position >> 2U] = temp;
 590              		.loc 1 245 18 view .LVU201
 591 029c 0623     		movs	r3, #6
 592 029e 1AE7     		b	.L16
 593              	.L23:
 594 02a0 0123     		movs	r3, #1
 595 02a2 18E7     		b	.L16
 596              	.L24:
 597 02a4 0223     		movs	r3, #2
 598 02a6 16E7     		b	.L16
 599              	.L25:
 600 02a8 0323     		movs	r3, #3
 601 02aa 14E7     		b	.L16
 602              	.L26:
 603 02ac 0423     		movs	r3, #4
 604 02ae 12E7     		b	.L16
 605              	.LVL54:
 606              	.L31:
 285:Drivers/STM32G4xx_HAL_Driver/Src/stm32g4xx_hal_gpio.c ****   }
 286:Drivers/STM32G4xx_HAL_Driver/Src/stm32g4xx_hal_gpio.c **** }
 607              		.loc 1 286 1 view .LVU202
 608 02b0 03B0     		add	sp, sp, #12
 609              	.LCFI2:
 610              		.cfi_def_cfa_offset 28
 611              		@ sp needed
 612 02b2 BDE8F083 		pop	{r4, r5, r6, r7, r8, r9, pc}
 613              	.LVL55:
 614              	.L36:
 615              		.loc 1 286 1 view .LVU203
 616 02b6 00BF     		.align	2
 617              	.L35:
 618 02b8 00040048 		.word	1207960576
 619 02bc 00000000 		.word	.LC0
ARM GAS  /tmp/ccGhNtsO.s 			page 19


 620 02c0 00001110 		.word	269549568
 621 02c4 00000140 		.word	1073807360
 622 02c8 00040140 		.word	1073808384
 623 02cc 00100240 		.word	1073876992
 624              		.cfi_endproc
 625              	.LFE132:
 627              		.section	.text.HAL_GPIO_DeInit,"ax",%progbits
 628              		.align	1
 629              		.global	HAL_GPIO_DeInit
 630              		.syntax unified
 631              		.thumb
 632              		.thumb_func
 633              		.fpu fpv4-sp-d16
 635              	HAL_GPIO_DeInit:
 636              	.LVL56:
 637              	.LFB133:
 287:Drivers/STM32G4xx_HAL_Driver/Src/stm32g4xx_hal_gpio.c **** 
 288:Drivers/STM32G4xx_HAL_Driver/Src/stm32g4xx_hal_gpio.c **** /**
 289:Drivers/STM32G4xx_HAL_Driver/Src/stm32g4xx_hal_gpio.c ****   * @brief  De-initialize the GPIOx peripheral registers to their default reset values.
 290:Drivers/STM32G4xx_HAL_Driver/Src/stm32g4xx_hal_gpio.c ****   * @param  GPIOx where x can be (A..G) to select the GPIO peripheral for STM32G4xx family
 291:Drivers/STM32G4xx_HAL_Driver/Src/stm32g4xx_hal_gpio.c ****   * @param  GPIO_Pin specifies the port bit to be written.
 292:Drivers/STM32G4xx_HAL_Driver/Src/stm32g4xx_hal_gpio.c ****   *         This parameter can be any combination of GPIO_PIN_x where x can be (0..15).
 293:Drivers/STM32G4xx_HAL_Driver/Src/stm32g4xx_hal_gpio.c ****   * @retval None
 294:Drivers/STM32G4xx_HAL_Driver/Src/stm32g4xx_hal_gpio.c ****   */
 295:Drivers/STM32G4xx_HAL_Driver/Src/stm32g4xx_hal_gpio.c **** void HAL_GPIO_DeInit(GPIO_TypeDef  *GPIOx, uint32_t GPIO_Pin)
 296:Drivers/STM32G4xx_HAL_Driver/Src/stm32g4xx_hal_gpio.c **** {
 638              		.loc 1 296 1 is_stmt 1 view -0
 639              		.cfi_startproc
 640              		@ args = 0, pretend = 0, frame = 0
 641              		@ frame_needed = 0, uses_anonymous_args = 0
 642              		.loc 1 296 1 is_stmt 0 view .LVU205
 643 0000 F8B5     		push	{r3, r4, r5, r6, r7, lr}
 644              	.LCFI3:
 645              		.cfi_def_cfa_offset 24
 646              		.cfi_offset 3, -24
 647              		.cfi_offset 4, -20
 648              		.cfi_offset 5, -16
 649              		.cfi_offset 6, -12
 650              		.cfi_offset 7, -8
 651              		.cfi_offset 14, -4
 652 0002 0446     		mov	r4, r0
 653 0004 0D46     		mov	r5, r1
 297:Drivers/STM32G4xx_HAL_Driver/Src/stm32g4xx_hal_gpio.c ****   uint32_t position = 0x00U;
 654              		.loc 1 297 3 is_stmt 1 view .LVU206
 655              	.LVL57:
 298:Drivers/STM32G4xx_HAL_Driver/Src/stm32g4xx_hal_gpio.c ****   uint32_t iocurrent;
 656              		.loc 1 298 3 view .LVU207
 299:Drivers/STM32G4xx_HAL_Driver/Src/stm32g4xx_hal_gpio.c ****   uint32_t tmp;
 657              		.loc 1 299 3 view .LVU208
 300:Drivers/STM32G4xx_HAL_Driver/Src/stm32g4xx_hal_gpio.c **** 
 301:Drivers/STM32G4xx_HAL_Driver/Src/stm32g4xx_hal_gpio.c ****   /* Check the parameters */
 302:Drivers/STM32G4xx_HAL_Driver/Src/stm32g4xx_hal_gpio.c ****   assert_param(IS_GPIO_ALL_INSTANCE(GPIOx));
 658              		.loc 1 302 3 view .LVU209
 659 0006 B0F1904F 		cmp	r0, #1207959552
 660 000a 1BD0     		beq	.L38
 661              		.loc 1 302 3 is_stmt 0 discriminator 1 view .LVU210
 662 000c 524B     		ldr	r3, .L56
ARM GAS  /tmp/ccGhNtsO.s 			page 20


 663 000e 9842     		cmp	r0, r3
 664 0010 18D0     		beq	.L38
 665              		.loc 1 302 3 discriminator 2 view .LVU211
 666 0012 03F58063 		add	r3, r3, #1024
 667 0016 9842     		cmp	r0, r3
 668 0018 14D0     		beq	.L38
 669              		.loc 1 302 3 discriminator 3 view .LVU212
 670 001a 03F58063 		add	r3, r3, #1024
 671 001e 9842     		cmp	r0, r3
 672 0020 10D0     		beq	.L38
 673              		.loc 1 302 3 discriminator 4 view .LVU213
 674 0022 03F58063 		add	r3, r3, #1024
 675 0026 9842     		cmp	r0, r3
 676 0028 0CD0     		beq	.L38
 677              		.loc 1 302 3 discriminator 5 view .LVU214
 678 002a 03F58063 		add	r3, r3, #1024
 679 002e 9842     		cmp	r0, r3
 680 0030 08D0     		beq	.L38
 681              		.loc 1 302 3 discriminator 6 view .LVU215
 682 0032 03F58063 		add	r3, r3, #1024
 683 0036 9842     		cmp	r0, r3
 684 0038 04D0     		beq	.L38
 685              		.loc 1 302 3 discriminator 7 view .LVU216
 686 003a 4FF49771 		mov	r1, #302
 687              	.LVL58:
 688              		.loc 1 302 3 discriminator 7 view .LVU217
 689 003e 4748     		ldr	r0, .L56+4
 690              	.LVL59:
 691              		.loc 1 302 3 discriminator 7 view .LVU218
 692 0040 FFF7FEFF 		bl	assert_failed
 693              	.LVL60:
 694              	.L38:
 303:Drivers/STM32G4xx_HAL_Driver/Src/stm32g4xx_hal_gpio.c ****   assert_param(IS_GPIO_PIN(GPIO_Pin));
 695              		.loc 1 303 3 is_stmt 1 view .LVU219
 696 0044 ABB2     		uxth	r3, r5
 697 0046 13B1     		cbz	r3, .L39
 698              		.loc 1 303 3 is_stmt 0 discriminator 2 view .LVU220
 699 0048 2B0C     		lsrs	r3, r5, #16
 700 004a 1B04     		lsls	r3, r3, #16
 701 004c 23B1     		cbz	r3, .L40
 702              	.L39:
 703              		.loc 1 303 3 discriminator 3 view .LVU221
 704 004e 40F22F11 		movw	r1, #303
 705 0052 4248     		ldr	r0, .L56+4
 706 0054 FFF7FEFF 		bl	assert_failed
 707              	.LVL61:
 708              	.L40:
 304:Drivers/STM32G4xx_HAL_Driver/Src/stm32g4xx_hal_gpio.c **** 
 305:Drivers/STM32G4xx_HAL_Driver/Src/stm32g4xx_hal_gpio.c ****   /* Configure the port pins */
 306:Drivers/STM32G4xx_HAL_Driver/Src/stm32g4xx_hal_gpio.c ****   while ((GPIO_Pin >> position) != 0U)
 307:Drivers/STM32G4xx_HAL_Driver/Src/stm32g4xx_hal_gpio.c ****   {
 308:Drivers/STM32G4xx_HAL_Driver/Src/stm32g4xx_hal_gpio.c ****     /* Get current io position */
 309:Drivers/STM32G4xx_HAL_Driver/Src/stm32g4xx_hal_gpio.c ****     iocurrent = (GPIO_Pin) & (1UL << position);
 310:Drivers/STM32G4xx_HAL_Driver/Src/stm32g4xx_hal_gpio.c **** 
 311:Drivers/STM32G4xx_HAL_Driver/Src/stm32g4xx_hal_gpio.c ****     if (iocurrent != 0x00u)
 312:Drivers/STM32G4xx_HAL_Driver/Src/stm32g4xx_hal_gpio.c ****     {
 313:Drivers/STM32G4xx_HAL_Driver/Src/stm32g4xx_hal_gpio.c ****       /*------------------------- EXTI Mode Configuration --------------------*/
ARM GAS  /tmp/ccGhNtsO.s 			page 21


 314:Drivers/STM32G4xx_HAL_Driver/Src/stm32g4xx_hal_gpio.c ****       /* Clear the External Interrupt or Event for the current IO */
 315:Drivers/STM32G4xx_HAL_Driver/Src/stm32g4xx_hal_gpio.c **** 
 316:Drivers/STM32G4xx_HAL_Driver/Src/stm32g4xx_hal_gpio.c ****       tmp = SYSCFG->EXTICR[position >> 2U];
 317:Drivers/STM32G4xx_HAL_Driver/Src/stm32g4xx_hal_gpio.c ****       tmp &= (0x0FUL << (4U * (position & 0x03U)));
 318:Drivers/STM32G4xx_HAL_Driver/Src/stm32g4xx_hal_gpio.c ****       if (tmp == (GPIO_GET_INDEX(GPIOx) << (4U * (position & 0x03U))))
 709              		.loc 1 318 19 view .LVU222
 710 0058 0023     		movs	r3, #0
 711 005a 2AE0     		b	.L41
 712              	.LVL62:
 713              	.L55:
 714              		.loc 1 318 19 view .LVU223
 715 005c 0526     		movs	r6, #5
 716 005e 00E0     		b	.L43
 717              	.L46:
 718 0060 0026     		movs	r6, #0
 719              	.L43:
 720              		.loc 1 318 41 discriminator 24 view .LVU224
 721 0062 06FA01F1 		lsl	r1, r6, r1
 722              		.loc 1 318 10 discriminator 24 view .LVU225
 723 0066 8142     		cmp	r1, r0
 724 0068 59D0     		beq	.L53
 725              	.LVL63:
 726              	.L44:
 319:Drivers/STM32G4xx_HAL_Driver/Src/stm32g4xx_hal_gpio.c ****       {
 320:Drivers/STM32G4xx_HAL_Driver/Src/stm32g4xx_hal_gpio.c ****         /* Clear EXTI line configuration */
 321:Drivers/STM32G4xx_HAL_Driver/Src/stm32g4xx_hal_gpio.c ****         EXTI->IMR1 &= ~(iocurrent);
 322:Drivers/STM32G4xx_HAL_Driver/Src/stm32g4xx_hal_gpio.c ****         EXTI->EMR1 &= ~(iocurrent);
 323:Drivers/STM32G4xx_HAL_Driver/Src/stm32g4xx_hal_gpio.c **** 
 324:Drivers/STM32G4xx_HAL_Driver/Src/stm32g4xx_hal_gpio.c ****         /* Clear Rising Falling edge configuration */
 325:Drivers/STM32G4xx_HAL_Driver/Src/stm32g4xx_hal_gpio.c ****         EXTI->RTSR1 &= ~(iocurrent);
 326:Drivers/STM32G4xx_HAL_Driver/Src/stm32g4xx_hal_gpio.c ****         EXTI->FTSR1 &= ~(iocurrent);
 327:Drivers/STM32G4xx_HAL_Driver/Src/stm32g4xx_hal_gpio.c **** 
 328:Drivers/STM32G4xx_HAL_Driver/Src/stm32g4xx_hal_gpio.c ****         tmp = 0x0FUL << (4U * (position & 0x03U));
 329:Drivers/STM32G4xx_HAL_Driver/Src/stm32g4xx_hal_gpio.c ****         SYSCFG->EXTICR[position >> 2U] &= ~tmp;
 330:Drivers/STM32G4xx_HAL_Driver/Src/stm32g4xx_hal_gpio.c ****       }
 331:Drivers/STM32G4xx_HAL_Driver/Src/stm32g4xx_hal_gpio.c **** 
 332:Drivers/STM32G4xx_HAL_Driver/Src/stm32g4xx_hal_gpio.c ****       /*------------------------- GPIO Mode Configuration --------------------*/
 333:Drivers/STM32G4xx_HAL_Driver/Src/stm32g4xx_hal_gpio.c ****       /* Configure IO in Analog Mode */
 334:Drivers/STM32G4xx_HAL_Driver/Src/stm32g4xx_hal_gpio.c ****       GPIOx->MODER |= (GPIO_MODER_MODE0 << (position * 2u));
 727              		.loc 1 334 7 is_stmt 1 view .LVU226
 728              		.loc 1 334 20 is_stmt 0 view .LVU227
 729 006a 2068     		ldr	r0, [r4]
 730              		.loc 1 334 54 view .LVU228
 731 006c 5900     		lsls	r1, r3, #1
 732              		.loc 1 334 41 view .LVU229
 733 006e 0326     		movs	r6, #3
 734 0070 06FA01F1 		lsl	r1, r6, r1
 735              		.loc 1 334 20 view .LVU230
 736 0074 0843     		orrs	r0, r0, r1
 737 0076 2060     		str	r0, [r4]
 335:Drivers/STM32G4xx_HAL_Driver/Src/stm32g4xx_hal_gpio.c **** 
 336:Drivers/STM32G4xx_HAL_Driver/Src/stm32g4xx_hal_gpio.c ****       /* Configure the default Alternate Function in current IO */
 337:Drivers/STM32G4xx_HAL_Driver/Src/stm32g4xx_hal_gpio.c ****       GPIOx->AFR[position >> 3u] &= ~(0xFu << ((position & 0x07u) * 4u));
 738              		.loc 1 337 7 is_stmt 1 view .LVU231
 739              		.loc 1 337 34 is_stmt 0 view .LVU232
 740 0078 23FA06F0 		lsr	r0, r3, r6
 741 007c 0830     		adds	r0, r0, #8
ARM GAS  /tmp/ccGhNtsO.s 			page 22


 742 007e 54F82060 		ldr	r6, [r4, r0, lsl #2]
 743              		.loc 1 337 58 view .LVU233
 744 0082 03F00707 		and	r7, r3, #7
 745              		.loc 1 337 67 view .LVU234
 746 0086 4FEA870C 		lsl	ip, r7, #2
 747              		.loc 1 337 44 view .LVU235
 748 008a 0F27     		movs	r7, #15
 749 008c 07FA0CF7 		lsl	r7, r7, ip
 750              		.loc 1 337 34 view .LVU236
 751 0090 26EA0706 		bic	r6, r6, r7
 752 0094 44F82060 		str	r6, [r4, r0, lsl #2]
 338:Drivers/STM32G4xx_HAL_Driver/Src/stm32g4xx_hal_gpio.c **** 
 339:Drivers/STM32G4xx_HAL_Driver/Src/stm32g4xx_hal_gpio.c ****       /* Deactivate the Pull-up and Pull-down resistor for the current IO */
 340:Drivers/STM32G4xx_HAL_Driver/Src/stm32g4xx_hal_gpio.c ****       GPIOx->PUPDR &= ~(GPIO_PUPDR_PUPD0 << (position * 2u));
 753              		.loc 1 340 7 is_stmt 1 view .LVU237
 754              		.loc 1 340 20 is_stmt 0 view .LVU238
 755 0098 E068     		ldr	r0, [r4, #12]
 756 009a 20EA0100 		bic	r0, r0, r1
 757 009e E060     		str	r0, [r4, #12]
 341:Drivers/STM32G4xx_HAL_Driver/Src/stm32g4xx_hal_gpio.c **** 
 342:Drivers/STM32G4xx_HAL_Driver/Src/stm32g4xx_hal_gpio.c ****       /* Configure the default value IO Output Type */
 343:Drivers/STM32G4xx_HAL_Driver/Src/stm32g4xx_hal_gpio.c ****       GPIOx->OTYPER  &= ~(GPIO_OTYPER_OT0 << position);
 758              		.loc 1 343 7 is_stmt 1 view .LVU239
 759              		.loc 1 343 22 is_stmt 0 view .LVU240
 760 00a0 6068     		ldr	r0, [r4, #4]
 761 00a2 20EA0202 		bic	r2, r0, r2
 762 00a6 6260     		str	r2, [r4, #4]
 344:Drivers/STM32G4xx_HAL_Driver/Src/stm32g4xx_hal_gpio.c **** 
 345:Drivers/STM32G4xx_HAL_Driver/Src/stm32g4xx_hal_gpio.c ****       /* Configure the default value for IO Speed */
 346:Drivers/STM32G4xx_HAL_Driver/Src/stm32g4xx_hal_gpio.c ****       GPIOx->OSPEEDR &= ~(GPIO_OSPEEDR_OSPEED0 << (position * 2u));
 763              		.loc 1 346 7 is_stmt 1 view .LVU241
 764              		.loc 1 346 22 is_stmt 0 view .LVU242
 765 00a8 A268     		ldr	r2, [r4, #8]
 766 00aa 22EA0101 		bic	r1, r2, r1
 767 00ae A160     		str	r1, [r4, #8]
 768              	.L42:
 347:Drivers/STM32G4xx_HAL_Driver/Src/stm32g4xx_hal_gpio.c ****     }
 348:Drivers/STM32G4xx_HAL_Driver/Src/stm32g4xx_hal_gpio.c **** 
 349:Drivers/STM32G4xx_HAL_Driver/Src/stm32g4xx_hal_gpio.c ****     position++;
 769              		.loc 1 349 5 is_stmt 1 view .LVU243
 770              		.loc 1 349 13 is_stmt 0 view .LVU244
 771 00b0 0133     		adds	r3, r3, #1
 772              	.LVL64:
 773              	.L41:
 306:Drivers/STM32G4xx_HAL_Driver/Src/stm32g4xx_hal_gpio.c ****   {
 774              		.loc 1 306 9 is_stmt 1 view .LVU245
 775 00b2 35FA03F2 		lsrs	r2, r5, r3
 776 00b6 4DD0     		beq	.L54
 309:Drivers/STM32G4xx_HAL_Driver/Src/stm32g4xx_hal_gpio.c **** 
 777              		.loc 1 309 5 view .LVU246
 309:Drivers/STM32G4xx_HAL_Driver/Src/stm32g4xx_hal_gpio.c **** 
 778              		.loc 1 309 35 is_stmt 0 view .LVU247
 779 00b8 0122     		movs	r2, #1
 780 00ba 9A40     		lsls	r2, r2, r3
 781              	.LVL65:
 311:Drivers/STM32G4xx_HAL_Driver/Src/stm32g4xx_hal_gpio.c ****     {
 782              		.loc 1 311 5 is_stmt 1 view .LVU248
ARM GAS  /tmp/ccGhNtsO.s 			page 23


 311:Drivers/STM32G4xx_HAL_Driver/Src/stm32g4xx_hal_gpio.c ****     {
 783              		.loc 1 311 8 is_stmt 0 view .LVU249
 784 00bc 12EA050E 		ands	lr, r2, r5
 785              	.LVL66:
 311:Drivers/STM32G4xx_HAL_Driver/Src/stm32g4xx_hal_gpio.c ****     {
 786              		.loc 1 311 8 view .LVU250
 787 00c0 F6D0     		beq	.L42
 316:Drivers/STM32G4xx_HAL_Driver/Src/stm32g4xx_hal_gpio.c ****       tmp &= (0x0FUL << (4U * (position & 0x03U)));
 788              		.loc 1 316 7 is_stmt 1 view .LVU251
 316:Drivers/STM32G4xx_HAL_Driver/Src/stm32g4xx_hal_gpio.c ****       tmp &= (0x0FUL << (4U * (position & 0x03U)));
 789              		.loc 1 316 37 is_stmt 0 view .LVU252
 790 00c2 4FEA930C 		lsr	ip, r3, #2
 316:Drivers/STM32G4xx_HAL_Driver/Src/stm32g4xx_hal_gpio.c ****       tmp &= (0x0FUL << (4U * (position & 0x03U)));
 791              		.loc 1 316 11 view .LVU253
 792 00c6 0CF10200 		add	r0, ip, #2
 793 00ca 2549     		ldr	r1, .L56+8
 794 00cc 51F82000 		ldr	r0, [r1, r0, lsl #2]
 795              	.LVL67:
 317:Drivers/STM32G4xx_HAL_Driver/Src/stm32g4xx_hal_gpio.c ****       if (tmp == (GPIO_GET_INDEX(GPIOx) << (4U * (position & 0x03U))))
 796              		.loc 1 317 7 is_stmt 1 view .LVU254
 317:Drivers/STM32G4xx_HAL_Driver/Src/stm32g4xx_hal_gpio.c ****       if (tmp == (GPIO_GET_INDEX(GPIOx) << (4U * (position & 0x03U))))
 797              		.loc 1 317 41 is_stmt 0 view .LVU255
 798 00d0 03F00301 		and	r1, r3, #3
 317:Drivers/STM32G4xx_HAL_Driver/Src/stm32g4xx_hal_gpio.c ****       if (tmp == (GPIO_GET_INDEX(GPIOx) << (4U * (position & 0x03U))))
 799              		.loc 1 317 29 view .LVU256
 800 00d4 8900     		lsls	r1, r1, #2
 317:Drivers/STM32G4xx_HAL_Driver/Src/stm32g4xx_hal_gpio.c ****       if (tmp == (GPIO_GET_INDEX(GPIOx) << (4U * (position & 0x03U))))
 801              		.loc 1 317 22 view .LVU257
 802 00d6 0F26     		movs	r6, #15
 803 00d8 06FA01F7 		lsl	r7, r6, r1
 317:Drivers/STM32G4xx_HAL_Driver/Src/stm32g4xx_hal_gpio.c ****       if (tmp == (GPIO_GET_INDEX(GPIOx) << (4U * (position & 0x03U))))
 804              		.loc 1 317 11 view .LVU258
 805 00dc 3840     		ands	r0, r0, r7
 806              	.LVL68:
 318:Drivers/STM32G4xx_HAL_Driver/Src/stm32g4xx_hal_gpio.c ****       {
 807              		.loc 1 318 7 is_stmt 1 view .LVU259
 318:Drivers/STM32G4xx_HAL_Driver/Src/stm32g4xx_hal_gpio.c ****       {
 808              		.loc 1 318 19 is_stmt 0 view .LVU260
 809 00de B4F1904F 		cmp	r4, #1207959552
 810 00e2 BDD0     		beq	.L46
 318:Drivers/STM32G4xx_HAL_Driver/Src/stm32g4xx_hal_gpio.c ****       {
 811              		.loc 1 318 19 discriminator 1 view .LVU261
 812 00e4 1C4E     		ldr	r6, .L56
 813 00e6 B442     		cmp	r4, r6
 814 00e8 11D0     		beq	.L47
 318:Drivers/STM32G4xx_HAL_Driver/Src/stm32g4xx_hal_gpio.c ****       {
 815              		.loc 1 318 19 discriminator 3 view .LVU262
 816 00ea 06F58066 		add	r6, r6, #1024
 817 00ee B442     		cmp	r4, r6
 818 00f0 0FD0     		beq	.L48
 318:Drivers/STM32G4xx_HAL_Driver/Src/stm32g4xx_hal_gpio.c ****       {
 819              		.loc 1 318 19 discriminator 5 view .LVU263
 820 00f2 06F58066 		add	r6, r6, #1024
 821 00f6 B442     		cmp	r4, r6
 822 00f8 0DD0     		beq	.L49
 318:Drivers/STM32G4xx_HAL_Driver/Src/stm32g4xx_hal_gpio.c ****       {
 823              		.loc 1 318 19 discriminator 7 view .LVU264
ARM GAS  /tmp/ccGhNtsO.s 			page 24


 824 00fa 06F58066 		add	r6, r6, #1024
 825 00fe B442     		cmp	r4, r6
 826 0100 0BD0     		beq	.L50
 318:Drivers/STM32G4xx_HAL_Driver/Src/stm32g4xx_hal_gpio.c ****       {
 827              		.loc 1 318 19 discriminator 9 view .LVU265
 828 0102 06F58066 		add	r6, r6, #1024
 829 0106 B442     		cmp	r4, r6
 830 0108 A8D0     		beq	.L55
 318:Drivers/STM32G4xx_HAL_Driver/Src/stm32g4xx_hal_gpio.c ****       {
 831              		.loc 1 318 19 view .LVU266
 832 010a 0626     		movs	r6, #6
 833 010c A9E7     		b	.L43
 834              	.L47:
 835 010e 0126     		movs	r6, #1
 836 0110 A7E7     		b	.L43
 837              	.L48:
 838 0112 0226     		movs	r6, #2
 839 0114 A5E7     		b	.L43
 840              	.L49:
 841 0116 0326     		movs	r6, #3
 842 0118 A3E7     		b	.L43
 843              	.L50:
 844 011a 0426     		movs	r6, #4
 845 011c A1E7     		b	.L43
 846              	.L53:
 321:Drivers/STM32G4xx_HAL_Driver/Src/stm32g4xx_hal_gpio.c ****         EXTI->EMR1 &= ~(iocurrent);
 847              		.loc 1 321 9 is_stmt 1 view .LVU267
 321:Drivers/STM32G4xx_HAL_Driver/Src/stm32g4xx_hal_gpio.c ****         EXTI->EMR1 &= ~(iocurrent);
 848              		.loc 1 321 20 is_stmt 0 view .LVU268
 849 011e 1149     		ldr	r1, .L56+12
 850 0120 0868     		ldr	r0, [r1]
 851              	.LVL69:
 321:Drivers/STM32G4xx_HAL_Driver/Src/stm32g4xx_hal_gpio.c ****         EXTI->EMR1 &= ~(iocurrent);
 852              		.loc 1 321 20 view .LVU269
 853 0122 20EA0E00 		bic	r0, r0, lr
 854 0126 0860     		str	r0, [r1]
 322:Drivers/STM32G4xx_HAL_Driver/Src/stm32g4xx_hal_gpio.c **** 
 855              		.loc 1 322 9 is_stmt 1 view .LVU270
 322:Drivers/STM32G4xx_HAL_Driver/Src/stm32g4xx_hal_gpio.c **** 
 856              		.loc 1 322 20 is_stmt 0 view .LVU271
 857 0128 4868     		ldr	r0, [r1, #4]
 858 012a 20EA0E00 		bic	r0, r0, lr
 859 012e 4860     		str	r0, [r1, #4]
 325:Drivers/STM32G4xx_HAL_Driver/Src/stm32g4xx_hal_gpio.c ****         EXTI->FTSR1 &= ~(iocurrent);
 860              		.loc 1 325 9 is_stmt 1 view .LVU272
 325:Drivers/STM32G4xx_HAL_Driver/Src/stm32g4xx_hal_gpio.c ****         EXTI->FTSR1 &= ~(iocurrent);
 861              		.loc 1 325 21 is_stmt 0 view .LVU273
 862 0130 8868     		ldr	r0, [r1, #8]
 863 0132 20EA0E00 		bic	r0, r0, lr
 864 0136 8860     		str	r0, [r1, #8]
 326:Drivers/STM32G4xx_HAL_Driver/Src/stm32g4xx_hal_gpio.c **** 
 865              		.loc 1 326 9 is_stmt 1 view .LVU274
 326:Drivers/STM32G4xx_HAL_Driver/Src/stm32g4xx_hal_gpio.c **** 
 866              		.loc 1 326 21 is_stmt 0 view .LVU275
 867 0138 C868     		ldr	r0, [r1, #12]
 868 013a 20EA0E00 		bic	r0, r0, lr
 869 013e C860     		str	r0, [r1, #12]
ARM GAS  /tmp/ccGhNtsO.s 			page 25


 328:Drivers/STM32G4xx_HAL_Driver/Src/stm32g4xx_hal_gpio.c ****         SYSCFG->EXTICR[position >> 2U] &= ~tmp;
 870              		.loc 1 328 9 is_stmt 1 view .LVU276
 871              	.LVL70:
 329:Drivers/STM32G4xx_HAL_Driver/Src/stm32g4xx_hal_gpio.c ****       }
 872              		.loc 1 329 9 view .LVU277
 329:Drivers/STM32G4xx_HAL_Driver/Src/stm32g4xx_hal_gpio.c ****       }
 873              		.loc 1 329 40 is_stmt 0 view .LVU278
 874 0140 0748     		ldr	r0, .L56+8
 875 0142 0CF10201 		add	r1, ip, #2
 876 0146 50F82160 		ldr	r6, [r0, r1, lsl #2]
 877 014a 26EA0706 		bic	r6, r6, r7
 878 014e 40F82160 		str	r6, [r0, r1, lsl #2]
 879 0152 8AE7     		b	.L44
 880              	.LVL71:
 881              	.L54:
 350:Drivers/STM32G4xx_HAL_Driver/Src/stm32g4xx_hal_gpio.c ****   }
 351:Drivers/STM32G4xx_HAL_Driver/Src/stm32g4xx_hal_gpio.c **** }
 882              		.loc 1 351 1 view .LVU279
 883 0154 F8BD     		pop	{r3, r4, r5, r6, r7, pc}
 884              	.LVL72:
 885              	.L57:
 886              		.loc 1 351 1 view .LVU280
 887 0156 00BF     		.align	2
 888              	.L56:
 889 0158 00040048 		.word	1207960576
 890 015c 00000000 		.word	.LC0
 891 0160 00000140 		.word	1073807360
 892 0164 00040140 		.word	1073808384
 893              		.cfi_endproc
 894              	.LFE133:
 896              		.section	.text.HAL_GPIO_ReadPin,"ax",%progbits
 897              		.align	1
 898              		.global	HAL_GPIO_ReadPin
 899              		.syntax unified
 900              		.thumb
 901              		.thumb_func
 902              		.fpu fpv4-sp-d16
 904              	HAL_GPIO_ReadPin:
 905              	.LVL73:
 906              	.LFB134:
 352:Drivers/STM32G4xx_HAL_Driver/Src/stm32g4xx_hal_gpio.c **** 
 353:Drivers/STM32G4xx_HAL_Driver/Src/stm32g4xx_hal_gpio.c **** /**
 354:Drivers/STM32G4xx_HAL_Driver/Src/stm32g4xx_hal_gpio.c ****   * @}
 355:Drivers/STM32G4xx_HAL_Driver/Src/stm32g4xx_hal_gpio.c ****   */
 356:Drivers/STM32G4xx_HAL_Driver/Src/stm32g4xx_hal_gpio.c **** 
 357:Drivers/STM32G4xx_HAL_Driver/Src/stm32g4xx_hal_gpio.c **** /** @addtogroup GPIO_Exported_Functions_Group2
 358:Drivers/STM32G4xx_HAL_Driver/Src/stm32g4xx_hal_gpio.c ****   *  @brief GPIO Read, Write, Toggle, Lock and EXTI management functions.
 359:Drivers/STM32G4xx_HAL_Driver/Src/stm32g4xx_hal_gpio.c ****   *
 360:Drivers/STM32G4xx_HAL_Driver/Src/stm32g4xx_hal_gpio.c **** @verbatim
 361:Drivers/STM32G4xx_HAL_Driver/Src/stm32g4xx_hal_gpio.c ****  ===============================================================================
 362:Drivers/STM32G4xx_HAL_Driver/Src/stm32g4xx_hal_gpio.c ****                        ##### IO operation functions #####
 363:Drivers/STM32G4xx_HAL_Driver/Src/stm32g4xx_hal_gpio.c ****  ===============================================================================
 364:Drivers/STM32G4xx_HAL_Driver/Src/stm32g4xx_hal_gpio.c **** 
 365:Drivers/STM32G4xx_HAL_Driver/Src/stm32g4xx_hal_gpio.c **** @endverbatim
 366:Drivers/STM32G4xx_HAL_Driver/Src/stm32g4xx_hal_gpio.c ****   * @{
 367:Drivers/STM32G4xx_HAL_Driver/Src/stm32g4xx_hal_gpio.c ****   */
 368:Drivers/STM32G4xx_HAL_Driver/Src/stm32g4xx_hal_gpio.c **** 
ARM GAS  /tmp/ccGhNtsO.s 			page 26


 369:Drivers/STM32G4xx_HAL_Driver/Src/stm32g4xx_hal_gpio.c **** /**
 370:Drivers/STM32G4xx_HAL_Driver/Src/stm32g4xx_hal_gpio.c ****   * @brief  Read the specified input port pin.
 371:Drivers/STM32G4xx_HAL_Driver/Src/stm32g4xx_hal_gpio.c ****   * @param  GPIOx where x can be (A..G) to select the GPIO peripheral for STM32G4xx family
 372:Drivers/STM32G4xx_HAL_Driver/Src/stm32g4xx_hal_gpio.c ****   * @param  GPIO_Pin specifies the port bit to read.
 373:Drivers/STM32G4xx_HAL_Driver/Src/stm32g4xx_hal_gpio.c ****   *         This parameter can be any combination of GPIO_PIN_x where x can be (0..15).
 374:Drivers/STM32G4xx_HAL_Driver/Src/stm32g4xx_hal_gpio.c ****   * @retval The input port pin value.
 375:Drivers/STM32G4xx_HAL_Driver/Src/stm32g4xx_hal_gpio.c ****   */
 376:Drivers/STM32G4xx_HAL_Driver/Src/stm32g4xx_hal_gpio.c **** GPIO_PinState HAL_GPIO_ReadPin(GPIO_TypeDef *GPIOx, uint16_t GPIO_Pin)
 377:Drivers/STM32G4xx_HAL_Driver/Src/stm32g4xx_hal_gpio.c **** {
 907              		.loc 1 377 1 is_stmt 1 view -0
 908              		.cfi_startproc
 909              		@ args = 0, pretend = 0, frame = 0
 910              		@ frame_needed = 0, uses_anonymous_args = 0
 911              		.loc 1 377 1 is_stmt 0 view .LVU282
 912 0000 38B5     		push	{r3, r4, r5, lr}
 913              	.LCFI4:
 914              		.cfi_def_cfa_offset 16
 915              		.cfi_offset 3, -16
 916              		.cfi_offset 4, -12
 917              		.cfi_offset 5, -8
 918              		.cfi_offset 14, -4
 919 0002 0446     		mov	r4, r0
 378:Drivers/STM32G4xx_HAL_Driver/Src/stm32g4xx_hal_gpio.c ****   GPIO_PinState bitstatus;
 920              		.loc 1 378 3 is_stmt 1 view .LVU283
 379:Drivers/STM32G4xx_HAL_Driver/Src/stm32g4xx_hal_gpio.c **** 
 380:Drivers/STM32G4xx_HAL_Driver/Src/stm32g4xx_hal_gpio.c ****   /* Check the parameters */
 381:Drivers/STM32G4xx_HAL_Driver/Src/stm32g4xx_hal_gpio.c ****   assert_param(IS_GPIO_PIN(GPIO_Pin));
 921              		.loc 1 381 3 view .LVU284
 922 0004 0D46     		mov	r5, r1
 923 0006 21B1     		cbz	r1, .L64
 924              	.LVL74:
 925              	.L60:
 382:Drivers/STM32G4xx_HAL_Driver/Src/stm32g4xx_hal_gpio.c **** 
 383:Drivers/STM32G4xx_HAL_Driver/Src/stm32g4xx_hal_gpio.c ****   if ((GPIOx->IDR & GPIO_Pin) != 0x00U)
 926              		.loc 1 383 3 view .LVU285
 927              		.loc 1 383 13 is_stmt 0 view .LVU286
 928 0008 2369     		ldr	r3, [r4, #16]
 929              		.loc 1 383 6 view .LVU287
 930 000a 1D42     		tst	r5, r3
 931 000c 07D0     		beq	.L62
 384:Drivers/STM32G4xx_HAL_Driver/Src/stm32g4xx_hal_gpio.c ****   {
 385:Drivers/STM32G4xx_HAL_Driver/Src/stm32g4xx_hal_gpio.c ****     bitstatus = GPIO_PIN_SET;
 932              		.loc 1 385 15 view .LVU288
 933 000e 0120     		movs	r0, #1
 934              	.L61:
 935              	.LVL75:
 386:Drivers/STM32G4xx_HAL_Driver/Src/stm32g4xx_hal_gpio.c ****   }
 387:Drivers/STM32G4xx_HAL_Driver/Src/stm32g4xx_hal_gpio.c ****   else
 388:Drivers/STM32G4xx_HAL_Driver/Src/stm32g4xx_hal_gpio.c ****   {
 389:Drivers/STM32G4xx_HAL_Driver/Src/stm32g4xx_hal_gpio.c ****     bitstatus = GPIO_PIN_RESET;
 390:Drivers/STM32G4xx_HAL_Driver/Src/stm32g4xx_hal_gpio.c ****   }
 391:Drivers/STM32G4xx_HAL_Driver/Src/stm32g4xx_hal_gpio.c ****   return bitstatus;
 936              		.loc 1 391 3 is_stmt 1 view .LVU289
 392:Drivers/STM32G4xx_HAL_Driver/Src/stm32g4xx_hal_gpio.c **** }
 937              		.loc 1 392 1 is_stmt 0 view .LVU290
 938 0010 38BD     		pop	{r3, r4, r5, pc}
 939              	.LVL76:
ARM GAS  /tmp/ccGhNtsO.s 			page 27


 940              	.L64:
 381:Drivers/STM32G4xx_HAL_Driver/Src/stm32g4xx_hal_gpio.c **** 
 941              		.loc 1 381 3 discriminator 3 view .LVU291
 942 0012 40F27D11 		movw	r1, #381
 943              	.LVL77:
 381:Drivers/STM32G4xx_HAL_Driver/Src/stm32g4xx_hal_gpio.c **** 
 944              		.loc 1 381 3 discriminator 3 view .LVU292
 945 0016 0348     		ldr	r0, .L65
 946              	.LVL78:
 381:Drivers/STM32G4xx_HAL_Driver/Src/stm32g4xx_hal_gpio.c **** 
 947              		.loc 1 381 3 discriminator 3 view .LVU293
 948 0018 FFF7FEFF 		bl	assert_failed
 949              	.LVL79:
 950 001c F4E7     		b	.L60
 951              	.L62:
 389:Drivers/STM32G4xx_HAL_Driver/Src/stm32g4xx_hal_gpio.c ****   }
 952              		.loc 1 389 15 view .LVU294
 953 001e 0020     		movs	r0, #0
 954 0020 F6E7     		b	.L61
 955              	.L66:
 956 0022 00BF     		.align	2
 957              	.L65:
 958 0024 00000000 		.word	.LC0
 959              		.cfi_endproc
 960              	.LFE134:
 962              		.section	.text.HAL_GPIO_WritePin,"ax",%progbits
 963              		.align	1
 964              		.global	HAL_GPIO_WritePin
 965              		.syntax unified
 966              		.thumb
 967              		.thumb_func
 968              		.fpu fpv4-sp-d16
 970              	HAL_GPIO_WritePin:
 971              	.LVL80:
 972              	.LFB135:
 393:Drivers/STM32G4xx_HAL_Driver/Src/stm32g4xx_hal_gpio.c **** 
 394:Drivers/STM32G4xx_HAL_Driver/Src/stm32g4xx_hal_gpio.c **** /**
 395:Drivers/STM32G4xx_HAL_Driver/Src/stm32g4xx_hal_gpio.c ****   * @brief  Set or clear the selected data port bit.
 396:Drivers/STM32G4xx_HAL_Driver/Src/stm32g4xx_hal_gpio.c ****   *
 397:Drivers/STM32G4xx_HAL_Driver/Src/stm32g4xx_hal_gpio.c ****   * @note   This function uses GPIOx_BSRR and GPIOx_BRR registers to allow atomic read/modify
 398:Drivers/STM32G4xx_HAL_Driver/Src/stm32g4xx_hal_gpio.c ****   *         accesses. In this way, there is no risk of an IRQ occurring between
 399:Drivers/STM32G4xx_HAL_Driver/Src/stm32g4xx_hal_gpio.c ****   *         the read and the modify access.
 400:Drivers/STM32G4xx_HAL_Driver/Src/stm32g4xx_hal_gpio.c ****   *
 401:Drivers/STM32G4xx_HAL_Driver/Src/stm32g4xx_hal_gpio.c ****   * @param  GPIOx where x can be (A..G) to select the GPIO peripheral for STM32G4xx family
 402:Drivers/STM32G4xx_HAL_Driver/Src/stm32g4xx_hal_gpio.c ****   * @param  GPIO_Pin specifies the port bit to be written.
 403:Drivers/STM32G4xx_HAL_Driver/Src/stm32g4xx_hal_gpio.c ****   *         This parameter can be any combination of GPIO_PIN_x where x can be (0..15).
 404:Drivers/STM32G4xx_HAL_Driver/Src/stm32g4xx_hal_gpio.c ****   * @param  PinState specifies the value to be written to the selected bit.
 405:Drivers/STM32G4xx_HAL_Driver/Src/stm32g4xx_hal_gpio.c ****   *         This parameter can be one of the GPIO_PinState enum values:
 406:Drivers/STM32G4xx_HAL_Driver/Src/stm32g4xx_hal_gpio.c ****   *            @arg GPIO_PIN_RESET: to clear the port pin
 407:Drivers/STM32G4xx_HAL_Driver/Src/stm32g4xx_hal_gpio.c ****   *            @arg GPIO_PIN_SET: to set the port pin
 408:Drivers/STM32G4xx_HAL_Driver/Src/stm32g4xx_hal_gpio.c ****   * @retval None
 409:Drivers/STM32G4xx_HAL_Driver/Src/stm32g4xx_hal_gpio.c ****   */
 410:Drivers/STM32G4xx_HAL_Driver/Src/stm32g4xx_hal_gpio.c **** void HAL_GPIO_WritePin(GPIO_TypeDef *GPIOx, uint16_t GPIO_Pin, GPIO_PinState PinState)
 411:Drivers/STM32G4xx_HAL_Driver/Src/stm32g4xx_hal_gpio.c **** {
 973              		.loc 1 411 1 is_stmt 1 view -0
 974              		.cfi_startproc
 975              		@ args = 0, pretend = 0, frame = 0
ARM GAS  /tmp/ccGhNtsO.s 			page 28


 976              		@ frame_needed = 0, uses_anonymous_args = 0
 977              		.loc 1 411 1 is_stmt 0 view .LVU296
 978 0000 70B5     		push	{r4, r5, r6, lr}
 979              	.LCFI5:
 980              		.cfi_def_cfa_offset 16
 981              		.cfi_offset 4, -16
 982              		.cfi_offset 5, -12
 983              		.cfi_offset 6, -8
 984              		.cfi_offset 14, -4
 985 0002 0546     		mov	r5, r0
 986 0004 1446     		mov	r4, r2
 412:Drivers/STM32G4xx_HAL_Driver/Src/stm32g4xx_hal_gpio.c ****   /* Check the parameters */
 413:Drivers/STM32G4xx_HAL_Driver/Src/stm32g4xx_hal_gpio.c ****   assert_param(IS_GPIO_PIN(GPIO_Pin));
 987              		.loc 1 413 3 is_stmt 1 view .LVU297
 988 0006 0E46     		mov	r6, r1
 989 0008 21B1     		cbz	r1, .L74
 990              	.LVL81:
 991              	.L69:
 414:Drivers/STM32G4xx_HAL_Driver/Src/stm32g4xx_hal_gpio.c ****   assert_param(IS_GPIO_PIN_ACTION(PinState));
 992              		.loc 1 414 3 view .LVU298
 993 000a 012C     		cmp	r4, #1
 994 000c 08D8     		bhi	.L75
 995              	.L70:
 415:Drivers/STM32G4xx_HAL_Driver/Src/stm32g4xx_hal_gpio.c **** 
 416:Drivers/STM32G4xx_HAL_Driver/Src/stm32g4xx_hal_gpio.c ****   if (PinState != GPIO_PIN_RESET)
 996              		.loc 1 416 3 view .LVU299
 997              		.loc 1 416 6 is_stmt 0 view .LVU300
 998 000e 6CB1     		cbz	r4, .L71
 417:Drivers/STM32G4xx_HAL_Driver/Src/stm32g4xx_hal_gpio.c ****   {
 418:Drivers/STM32G4xx_HAL_Driver/Src/stm32g4xx_hal_gpio.c ****     GPIOx->BSRR = (uint32_t)GPIO_Pin;
 999              		.loc 1 418 5 is_stmt 1 view .LVU301
 1000              		.loc 1 418 17 is_stmt 0 view .LVU302
 1001 0010 AE61     		str	r6, [r5, #24]
 1002              	.L67:
 419:Drivers/STM32G4xx_HAL_Driver/Src/stm32g4xx_hal_gpio.c ****   }
 420:Drivers/STM32G4xx_HAL_Driver/Src/stm32g4xx_hal_gpio.c ****   else
 421:Drivers/STM32G4xx_HAL_Driver/Src/stm32g4xx_hal_gpio.c ****   {
 422:Drivers/STM32G4xx_HAL_Driver/Src/stm32g4xx_hal_gpio.c ****     GPIOx->BRR = (uint32_t)GPIO_Pin;
 423:Drivers/STM32G4xx_HAL_Driver/Src/stm32g4xx_hal_gpio.c ****   }
 424:Drivers/STM32G4xx_HAL_Driver/Src/stm32g4xx_hal_gpio.c **** }
 1003              		.loc 1 424 1 view .LVU303
 1004 0012 70BD     		pop	{r4, r5, r6, pc}
 1005              	.LVL82:
 1006              	.L74:
 413:Drivers/STM32G4xx_HAL_Driver/Src/stm32g4xx_hal_gpio.c ****   assert_param(IS_GPIO_PIN_ACTION(PinState));
 1007              		.loc 1 413 3 discriminator 3 view .LVU304
 1008 0014 40F29D11 		movw	r1, #413
 1009              	.LVL83:
 413:Drivers/STM32G4xx_HAL_Driver/Src/stm32g4xx_hal_gpio.c ****   assert_param(IS_GPIO_PIN_ACTION(PinState));
 1010              		.loc 1 413 3 discriminator 3 view .LVU305
 1011 0018 0548     		ldr	r0, .L76
 1012              	.LVL84:
 413:Drivers/STM32G4xx_HAL_Driver/Src/stm32g4xx_hal_gpio.c ****   assert_param(IS_GPIO_PIN_ACTION(PinState));
 1013              		.loc 1 413 3 discriminator 3 view .LVU306
 1014 001a FFF7FEFF 		bl	assert_failed
 1015              	.LVL85:
 413:Drivers/STM32G4xx_HAL_Driver/Src/stm32g4xx_hal_gpio.c ****   assert_param(IS_GPIO_PIN_ACTION(PinState));
ARM GAS  /tmp/ccGhNtsO.s 			page 29


 1016              		.loc 1 413 3 discriminator 3 view .LVU307
 1017 001e F4E7     		b	.L69
 1018              	.L75:
 414:Drivers/STM32G4xx_HAL_Driver/Src/stm32g4xx_hal_gpio.c **** 
 1019              		.loc 1 414 3 discriminator 1 view .LVU308
 1020 0020 4FF4CF71 		mov	r1, #414
 1021 0024 0248     		ldr	r0, .L76
 1022 0026 FFF7FEFF 		bl	assert_failed
 1023              	.LVL86:
 1024 002a F0E7     		b	.L70
 1025              	.L71:
 422:Drivers/STM32G4xx_HAL_Driver/Src/stm32g4xx_hal_gpio.c ****   }
 1026              		.loc 1 422 5 is_stmt 1 view .LVU309
 422:Drivers/STM32G4xx_HAL_Driver/Src/stm32g4xx_hal_gpio.c ****   }
 1027              		.loc 1 422 16 is_stmt 0 view .LVU310
 1028 002c AE62     		str	r6, [r5, #40]
 1029              		.loc 1 424 1 view .LVU311
 1030 002e F0E7     		b	.L67
 1031              	.L77:
 1032              		.align	2
 1033              	.L76:
 1034 0030 00000000 		.word	.LC0
 1035              		.cfi_endproc
 1036              	.LFE135:
 1038              		.section	.text.HAL_GPIO_TogglePin,"ax",%progbits
 1039              		.align	1
 1040              		.global	HAL_GPIO_TogglePin
 1041              		.syntax unified
 1042              		.thumb
 1043              		.thumb_func
 1044              		.fpu fpv4-sp-d16
 1046              	HAL_GPIO_TogglePin:
 1047              	.LVL87:
 1048              	.LFB136:
 425:Drivers/STM32G4xx_HAL_Driver/Src/stm32g4xx_hal_gpio.c **** 
 426:Drivers/STM32G4xx_HAL_Driver/Src/stm32g4xx_hal_gpio.c **** /**
 427:Drivers/STM32G4xx_HAL_Driver/Src/stm32g4xx_hal_gpio.c ****   * @brief  Toggle the specified GPIO pin.
 428:Drivers/STM32G4xx_HAL_Driver/Src/stm32g4xx_hal_gpio.c ****   * @param  GPIOx where x can be (A..G) to select the GPIO peripheral for STM32G4xx family
 429:Drivers/STM32G4xx_HAL_Driver/Src/stm32g4xx_hal_gpio.c ****   * @param  GPIO_Pin specifies the pin to be toggled.
 430:Drivers/STM32G4xx_HAL_Driver/Src/stm32g4xx_hal_gpio.c ****   *         This parameter can be any combination of GPIO_PIN_x where x can be (0..15).
 431:Drivers/STM32G4xx_HAL_Driver/Src/stm32g4xx_hal_gpio.c ****   * @retval None
 432:Drivers/STM32G4xx_HAL_Driver/Src/stm32g4xx_hal_gpio.c ****   */
 433:Drivers/STM32G4xx_HAL_Driver/Src/stm32g4xx_hal_gpio.c **** void HAL_GPIO_TogglePin(GPIO_TypeDef *GPIOx, uint16_t GPIO_Pin)
 434:Drivers/STM32G4xx_HAL_Driver/Src/stm32g4xx_hal_gpio.c **** {
 1049              		.loc 1 434 1 is_stmt 1 view -0
 1050              		.cfi_startproc
 1051              		@ args = 0, pretend = 0, frame = 0
 1052              		@ frame_needed = 0, uses_anonymous_args = 0
 1053              		.loc 1 434 1 is_stmt 0 view .LVU313
 1054 0000 38B5     		push	{r3, r4, r5, lr}
 1055              	.LCFI6:
 1056              		.cfi_def_cfa_offset 16
 1057              		.cfi_offset 3, -16
 1058              		.cfi_offset 4, -12
 1059              		.cfi_offset 5, -8
 1060              		.cfi_offset 14, -4
 1061 0002 0546     		mov	r5, r0
ARM GAS  /tmp/ccGhNtsO.s 			page 30


 435:Drivers/STM32G4xx_HAL_Driver/Src/stm32g4xx_hal_gpio.c ****   uint32_t odr;
 1062              		.loc 1 435 3 is_stmt 1 view .LVU314
 436:Drivers/STM32G4xx_HAL_Driver/Src/stm32g4xx_hal_gpio.c **** 
 437:Drivers/STM32G4xx_HAL_Driver/Src/stm32g4xx_hal_gpio.c ****   /* Check the parameters */
 438:Drivers/STM32G4xx_HAL_Driver/Src/stm32g4xx_hal_gpio.c ****   assert_param(IS_GPIO_PIN(GPIO_Pin));
 1063              		.loc 1 438 3 view .LVU315
 1064 0004 0C46     		mov	r4, r1
 1065 0006 41B1     		cbz	r1, .L82
 1066              	.LVL88:
 1067              	.L80:
 439:Drivers/STM32G4xx_HAL_Driver/Src/stm32g4xx_hal_gpio.c **** 
 440:Drivers/STM32G4xx_HAL_Driver/Src/stm32g4xx_hal_gpio.c ****   /* get current Output Data Register value */
 441:Drivers/STM32G4xx_HAL_Driver/Src/stm32g4xx_hal_gpio.c ****   odr = GPIOx->ODR;
 1068              		.loc 1 441 3 view .LVU316
 1069              		.loc 1 441 7 is_stmt 0 view .LVU317
 1070 0008 6B69     		ldr	r3, [r5, #20]
 1071              	.LVL89:
 442:Drivers/STM32G4xx_HAL_Driver/Src/stm32g4xx_hal_gpio.c **** 
 443:Drivers/STM32G4xx_HAL_Driver/Src/stm32g4xx_hal_gpio.c ****   /* Set selected pins that were at low level, and reset ones that were high */
 444:Drivers/STM32G4xx_HAL_Driver/Src/stm32g4xx_hal_gpio.c ****   GPIOx->BSRR = ((odr & GPIO_Pin) << GPIO_NUMBER) | (~odr & GPIO_Pin);
 1072              		.loc 1 444 3 is_stmt 1 view .LVU318
 1073              		.loc 1 444 23 is_stmt 0 view .LVU319
 1074 000a 04EA0302 		and	r2, r4, r3
 1075              		.loc 1 444 59 view .LVU320
 1076 000e 24EA0304 		bic	r4, r4, r3
 1077              		.loc 1 444 51 view .LVU321
 1078 0012 44EA0244 		orr	r4, r4, r2, lsl #16
 1079              		.loc 1 444 15 view .LVU322
 1080 0016 AC61     		str	r4, [r5, #24]
 445:Drivers/STM32G4xx_HAL_Driver/Src/stm32g4xx_hal_gpio.c **** }
 1081              		.loc 1 445 1 view .LVU323
 1082 0018 38BD     		pop	{r3, r4, r5, pc}
 1083              	.LVL90:
 1084              	.L82:
 438:Drivers/STM32G4xx_HAL_Driver/Src/stm32g4xx_hal_gpio.c **** 
 1085              		.loc 1 438 3 discriminator 3 view .LVU324
 1086 001a 4FF4DB71 		mov	r1, #438
 1087              	.LVL91:
 438:Drivers/STM32G4xx_HAL_Driver/Src/stm32g4xx_hal_gpio.c **** 
 1088              		.loc 1 438 3 discriminator 3 view .LVU325
 1089 001e 0248     		ldr	r0, .L83
 1090              	.LVL92:
 438:Drivers/STM32G4xx_HAL_Driver/Src/stm32g4xx_hal_gpio.c **** 
 1091              		.loc 1 438 3 discriminator 3 view .LVU326
 1092 0020 FFF7FEFF 		bl	assert_failed
 1093              	.LVL93:
 1094 0024 F0E7     		b	.L80
 1095              	.L84:
 1096 0026 00BF     		.align	2
 1097              	.L83:
 1098 0028 00000000 		.word	.LC0
 1099              		.cfi_endproc
 1100              	.LFE136:
 1102              		.section	.text.HAL_GPIO_LockPin,"ax",%progbits
 1103              		.align	1
 1104              		.global	HAL_GPIO_LockPin
 1105              		.syntax unified
ARM GAS  /tmp/ccGhNtsO.s 			page 31


 1106              		.thumb
 1107              		.thumb_func
 1108              		.fpu fpv4-sp-d16
 1110              	HAL_GPIO_LockPin:
 1111              	.LVL94:
 1112              	.LFB137:
 446:Drivers/STM32G4xx_HAL_Driver/Src/stm32g4xx_hal_gpio.c **** 
 447:Drivers/STM32G4xx_HAL_Driver/Src/stm32g4xx_hal_gpio.c **** /**
 448:Drivers/STM32G4xx_HAL_Driver/Src/stm32g4xx_hal_gpio.c ****   * @brief  Lock GPIO Pins configuration registers.
 449:Drivers/STM32G4xx_HAL_Driver/Src/stm32g4xx_hal_gpio.c ****   * @note   The locked registers are GPIOx_MODER, GPIOx_OTYPER, GPIOx_OSPEEDR,
 450:Drivers/STM32G4xx_HAL_Driver/Src/stm32g4xx_hal_gpio.c ****   *         GPIOx_PUPDR, GPIOx_AFRL and GPIOx_AFRH.
 451:Drivers/STM32G4xx_HAL_Driver/Src/stm32g4xx_hal_gpio.c ****   * @note   The configuration of the locked GPIO pins can no longer be modified
 452:Drivers/STM32G4xx_HAL_Driver/Src/stm32g4xx_hal_gpio.c ****   *         until the next reset.
 453:Drivers/STM32G4xx_HAL_Driver/Src/stm32g4xx_hal_gpio.c ****   * @param  GPIOx where x can be (A..G) to select the GPIO peripheral for STM32G4xx family
 454:Drivers/STM32G4xx_HAL_Driver/Src/stm32g4xx_hal_gpio.c ****   * @param  GPIO_Pin specifies the port bits to be locked.
 455:Drivers/STM32G4xx_HAL_Driver/Src/stm32g4xx_hal_gpio.c ****   *         This parameter can be any combination of GPIO_Pin_x where x can be (0..15).
 456:Drivers/STM32G4xx_HAL_Driver/Src/stm32g4xx_hal_gpio.c ****   * @retval None
 457:Drivers/STM32G4xx_HAL_Driver/Src/stm32g4xx_hal_gpio.c ****   */
 458:Drivers/STM32G4xx_HAL_Driver/Src/stm32g4xx_hal_gpio.c **** HAL_StatusTypeDef HAL_GPIO_LockPin(GPIO_TypeDef *GPIOx, uint16_t GPIO_Pin)
 459:Drivers/STM32G4xx_HAL_Driver/Src/stm32g4xx_hal_gpio.c **** {
 1113              		.loc 1 459 1 is_stmt 1 view -0
 1114              		.cfi_startproc
 1115              		@ args = 0, pretend = 0, frame = 8
 1116              		@ frame_needed = 0, uses_anonymous_args = 0
 1117              		.loc 1 459 1 is_stmt 0 view .LVU328
 1118 0000 30B5     		push	{r4, r5, lr}
 1119              	.LCFI7:
 1120              		.cfi_def_cfa_offset 12
 1121              		.cfi_offset 4, -12
 1122              		.cfi_offset 5, -8
 1123              		.cfi_offset 14, -4
 1124 0002 83B0     		sub	sp, sp, #12
 1125              	.LCFI8:
 1126              		.cfi_def_cfa_offset 24
 1127 0004 0446     		mov	r4, r0
 1128 0006 0D46     		mov	r5, r1
 460:Drivers/STM32G4xx_HAL_Driver/Src/stm32g4xx_hal_gpio.c ****   __IO uint32_t tmp = GPIO_LCKR_LCKK;
 1129              		.loc 1 460 3 is_stmt 1 view .LVU329
 1130              		.loc 1 460 17 is_stmt 0 view .LVU330
 1131 0008 4FF48033 		mov	r3, #65536
 1132 000c 0193     		str	r3, [sp, #4]
 461:Drivers/STM32G4xx_HAL_Driver/Src/stm32g4xx_hal_gpio.c **** 
 462:Drivers/STM32G4xx_HAL_Driver/Src/stm32g4xx_hal_gpio.c ****   /* Check the parameters */
 463:Drivers/STM32G4xx_HAL_Driver/Src/stm32g4xx_hal_gpio.c ****   assert_param(IS_GPIO_LOCK_INSTANCE(GPIOx));
 1133              		.loc 1 463 3 is_stmt 1 view .LVU331
 1134 000e B0F1904F 		cmp	r0, #1207959552
 1135 0012 1BD0     		beq	.L86
 1136              		.loc 1 463 3 is_stmt 0 discriminator 1 view .LVU332
 1137 0014 1A4B     		ldr	r3, .L93
 1138 0016 9842     		cmp	r0, r3
 1139 0018 18D0     		beq	.L86
 1140              		.loc 1 463 3 discriminator 2 view .LVU333
 1141 001a 03F58063 		add	r3, r3, #1024
 1142 001e 9842     		cmp	r0, r3
 1143 0020 14D0     		beq	.L86
 1144              		.loc 1 463 3 discriminator 3 view .LVU334
 1145 0022 03F58063 		add	r3, r3, #1024
ARM GAS  /tmp/ccGhNtsO.s 			page 32


 1146 0026 9842     		cmp	r0, r3
 1147 0028 10D0     		beq	.L86
 1148              		.loc 1 463 3 discriminator 4 view .LVU335
 1149 002a 03F58063 		add	r3, r3, #1024
 1150 002e 9842     		cmp	r0, r3
 1151 0030 0CD0     		beq	.L86
 1152              		.loc 1 463 3 discriminator 5 view .LVU336
 1153 0032 03F58063 		add	r3, r3, #1024
 1154 0036 9842     		cmp	r0, r3
 1155 0038 08D0     		beq	.L86
 1156              		.loc 1 463 3 discriminator 6 view .LVU337
 1157 003a 03F58063 		add	r3, r3, #1024
 1158 003e 9842     		cmp	r0, r3
 1159 0040 04D0     		beq	.L86
 1160              		.loc 1 463 3 discriminator 7 view .LVU338
 1161 0042 40F2CF11 		movw	r1, #463
 1162              	.LVL95:
 1163              		.loc 1 463 3 discriminator 7 view .LVU339
 1164 0046 0F48     		ldr	r0, .L93+4
 1165              	.LVL96:
 1166              		.loc 1 463 3 discriminator 7 view .LVU340
 1167 0048 FFF7FEFF 		bl	assert_failed
 1168              	.LVL97:
 1169              	.L86:
 464:Drivers/STM32G4xx_HAL_Driver/Src/stm32g4xx_hal_gpio.c ****   assert_param(IS_GPIO_PIN(GPIO_Pin));
 1170              		.loc 1 464 3 is_stmt 1 view .LVU341
 1171 004c 85B1     		cbz	r5, .L92
 1172              	.L88:
 465:Drivers/STM32G4xx_HAL_Driver/Src/stm32g4xx_hal_gpio.c **** 
 466:Drivers/STM32G4xx_HAL_Driver/Src/stm32g4xx_hal_gpio.c ****   /* Apply lock key write sequence */
 467:Drivers/STM32G4xx_HAL_Driver/Src/stm32g4xx_hal_gpio.c ****   tmp |= GPIO_Pin;
 1173              		.loc 1 467 3 view .LVU342
 1174              		.loc 1 467 7 is_stmt 0 view .LVU343
 1175 004e 019B     		ldr	r3, [sp, #4]
 1176 0050 2B43     		orrs	r3, r3, r5
 1177 0052 0193     		str	r3, [sp, #4]
 468:Drivers/STM32G4xx_HAL_Driver/Src/stm32g4xx_hal_gpio.c ****   /* Set LCKx bit(s): LCKK='1' + LCK[15-0] */
 469:Drivers/STM32G4xx_HAL_Driver/Src/stm32g4xx_hal_gpio.c ****   GPIOx->LCKR = tmp;
 1178              		.loc 1 469 3 is_stmt 1 view .LVU344
 1179              		.loc 1 469 15 is_stmt 0 view .LVU345
 1180 0054 019B     		ldr	r3, [sp, #4]
 1181 0056 E361     		str	r3, [r4, #28]
 470:Drivers/STM32G4xx_HAL_Driver/Src/stm32g4xx_hal_gpio.c ****   /* Reset LCKx bit(s): LCKK='0' + LCK[15-0] */
 471:Drivers/STM32G4xx_HAL_Driver/Src/stm32g4xx_hal_gpio.c ****   GPIOx->LCKR = GPIO_Pin;
 1182              		.loc 1 471 3 is_stmt 1 view .LVU346
 1183              		.loc 1 471 15 is_stmt 0 view .LVU347
 1184 0058 E561     		str	r5, [r4, #28]
 472:Drivers/STM32G4xx_HAL_Driver/Src/stm32g4xx_hal_gpio.c ****   /* Set LCKx bit(s): LCKK='1' + LCK[15-0] */
 473:Drivers/STM32G4xx_HAL_Driver/Src/stm32g4xx_hal_gpio.c ****   GPIOx->LCKR = tmp;
 1185              		.loc 1 473 3 is_stmt 1 view .LVU348
 1186              		.loc 1 473 15 is_stmt 0 view .LVU349
 1187 005a 019B     		ldr	r3, [sp, #4]
 1188 005c E361     		str	r3, [r4, #28]
 474:Drivers/STM32G4xx_HAL_Driver/Src/stm32g4xx_hal_gpio.c ****   /* Read LCKK register. This read is mandatory to complete key lock sequence */
 475:Drivers/STM32G4xx_HAL_Driver/Src/stm32g4xx_hal_gpio.c ****   tmp = GPIOx->LCKR;
 1189              		.loc 1 475 3 is_stmt 1 view .LVU350
 1190              		.loc 1 475 14 is_stmt 0 view .LVU351
ARM GAS  /tmp/ccGhNtsO.s 			page 33


 1191 005e E369     		ldr	r3, [r4, #28]
 1192              		.loc 1 475 7 view .LVU352
 1193 0060 0193     		str	r3, [sp, #4]
 476:Drivers/STM32G4xx_HAL_Driver/Src/stm32g4xx_hal_gpio.c **** 
 477:Drivers/STM32G4xx_HAL_Driver/Src/stm32g4xx_hal_gpio.c ****   /* read again in order to confirm lock is active */
 478:Drivers/STM32G4xx_HAL_Driver/Src/stm32g4xx_hal_gpio.c ****   if ((GPIOx->LCKR & GPIO_LCKR_LCKK) != 0x00u)
 1194              		.loc 1 478 3 is_stmt 1 view .LVU353
 1195              		.loc 1 478 13 is_stmt 0 view .LVU354
 1196 0062 E369     		ldr	r3, [r4, #28]
 1197              		.loc 1 478 6 view .LVU355
 1198 0064 13F4803F 		tst	r3, #65536
 1199 0068 08D0     		beq	.L90
 479:Drivers/STM32G4xx_HAL_Driver/Src/stm32g4xx_hal_gpio.c ****   {
 480:Drivers/STM32G4xx_HAL_Driver/Src/stm32g4xx_hal_gpio.c ****     return HAL_OK;
 1200              		.loc 1 480 12 view .LVU356
 1201 006a 0020     		movs	r0, #0
 1202              	.L89:
 481:Drivers/STM32G4xx_HAL_Driver/Src/stm32g4xx_hal_gpio.c ****   }
 482:Drivers/STM32G4xx_HAL_Driver/Src/stm32g4xx_hal_gpio.c ****   else
 483:Drivers/STM32G4xx_HAL_Driver/Src/stm32g4xx_hal_gpio.c ****   {
 484:Drivers/STM32G4xx_HAL_Driver/Src/stm32g4xx_hal_gpio.c ****     return HAL_ERROR;
 485:Drivers/STM32G4xx_HAL_Driver/Src/stm32g4xx_hal_gpio.c ****   }
 486:Drivers/STM32G4xx_HAL_Driver/Src/stm32g4xx_hal_gpio.c **** }
 1203              		.loc 1 486 1 view .LVU357
 1204 006c 03B0     		add	sp, sp, #12
 1205              	.LCFI9:
 1206              		.cfi_remember_state
 1207              		.cfi_def_cfa_offset 12
 1208              		@ sp needed
 1209 006e 30BD     		pop	{r4, r5, pc}
 1210              	.LVL98:
 1211              	.L92:
 1212              	.LCFI10:
 1213              		.cfi_restore_state
 464:Drivers/STM32G4xx_HAL_Driver/Src/stm32g4xx_hal_gpio.c **** 
 1214              		.loc 1 464 3 discriminator 3 view .LVU358
 1215 0070 4FF4E871 		mov	r1, #464
 1216 0074 0348     		ldr	r0, .L93+4
 1217 0076 FFF7FEFF 		bl	assert_failed
 1218              	.LVL99:
 1219 007a E8E7     		b	.L88
 1220              	.L90:
 484:Drivers/STM32G4xx_HAL_Driver/Src/stm32g4xx_hal_gpio.c ****   }
 1221              		.loc 1 484 12 view .LVU359
 1222 007c 0120     		movs	r0, #1
 1223 007e F5E7     		b	.L89
 1224              	.L94:
 1225              		.align	2
 1226              	.L93:
 1227 0080 00040048 		.word	1207960576
 1228 0084 00000000 		.word	.LC0
 1229              		.cfi_endproc
 1230              	.LFE137:
 1232              		.section	.text.HAL_GPIO_EXTI_Callback,"ax",%progbits
 1233              		.align	1
 1234              		.weak	HAL_GPIO_EXTI_Callback
 1235              		.syntax unified
ARM GAS  /tmp/ccGhNtsO.s 			page 34


 1236              		.thumb
 1237              		.thumb_func
 1238              		.fpu fpv4-sp-d16
 1240              	HAL_GPIO_EXTI_Callback:
 1241              	.LVL100:
 1242              	.LFB139:
 487:Drivers/STM32G4xx_HAL_Driver/Src/stm32g4xx_hal_gpio.c **** 
 488:Drivers/STM32G4xx_HAL_Driver/Src/stm32g4xx_hal_gpio.c **** /**
 489:Drivers/STM32G4xx_HAL_Driver/Src/stm32g4xx_hal_gpio.c ****   * @brief  Handle EXTI interrupt request.
 490:Drivers/STM32G4xx_HAL_Driver/Src/stm32g4xx_hal_gpio.c ****   * @param  GPIO_Pin Specifies the port pin connected to corresponding EXTI line.
 491:Drivers/STM32G4xx_HAL_Driver/Src/stm32g4xx_hal_gpio.c ****   * @retval None
 492:Drivers/STM32G4xx_HAL_Driver/Src/stm32g4xx_hal_gpio.c ****   */
 493:Drivers/STM32G4xx_HAL_Driver/Src/stm32g4xx_hal_gpio.c **** void HAL_GPIO_EXTI_IRQHandler(uint16_t GPIO_Pin)
 494:Drivers/STM32G4xx_HAL_Driver/Src/stm32g4xx_hal_gpio.c **** {
 495:Drivers/STM32G4xx_HAL_Driver/Src/stm32g4xx_hal_gpio.c ****   /* EXTI line interrupt detected */
 496:Drivers/STM32G4xx_HAL_Driver/Src/stm32g4xx_hal_gpio.c ****   if (__HAL_GPIO_EXTI_GET_IT(GPIO_Pin) != 0x00u)
 497:Drivers/STM32G4xx_HAL_Driver/Src/stm32g4xx_hal_gpio.c ****   {
 498:Drivers/STM32G4xx_HAL_Driver/Src/stm32g4xx_hal_gpio.c ****     __HAL_GPIO_EXTI_CLEAR_IT(GPIO_Pin);
 499:Drivers/STM32G4xx_HAL_Driver/Src/stm32g4xx_hal_gpio.c ****     HAL_GPIO_EXTI_Callback(GPIO_Pin);
 500:Drivers/STM32G4xx_HAL_Driver/Src/stm32g4xx_hal_gpio.c ****   }
 501:Drivers/STM32G4xx_HAL_Driver/Src/stm32g4xx_hal_gpio.c **** }
 502:Drivers/STM32G4xx_HAL_Driver/Src/stm32g4xx_hal_gpio.c **** 
 503:Drivers/STM32G4xx_HAL_Driver/Src/stm32g4xx_hal_gpio.c **** /**
 504:Drivers/STM32G4xx_HAL_Driver/Src/stm32g4xx_hal_gpio.c ****   * @brief  EXTI line detection callback.
 505:Drivers/STM32G4xx_HAL_Driver/Src/stm32g4xx_hal_gpio.c ****   * @param  GPIO_Pin: Specifies the port pin connected to corresponding EXTI line.
 506:Drivers/STM32G4xx_HAL_Driver/Src/stm32g4xx_hal_gpio.c ****   * @retval None
 507:Drivers/STM32G4xx_HAL_Driver/Src/stm32g4xx_hal_gpio.c ****   */
 508:Drivers/STM32G4xx_HAL_Driver/Src/stm32g4xx_hal_gpio.c **** __weak void HAL_GPIO_EXTI_Callback(uint16_t GPIO_Pin)
 509:Drivers/STM32G4xx_HAL_Driver/Src/stm32g4xx_hal_gpio.c **** {
 1243              		.loc 1 509 1 is_stmt 1 view -0
 1244              		.cfi_startproc
 1245              		@ args = 0, pretend = 0, frame = 0
 1246              		@ frame_needed = 0, uses_anonymous_args = 0
 1247              		@ link register save eliminated.
 510:Drivers/STM32G4xx_HAL_Driver/Src/stm32g4xx_hal_gpio.c ****   /* Prevent unused argument(s) compilation warning */
 511:Drivers/STM32G4xx_HAL_Driver/Src/stm32g4xx_hal_gpio.c ****   UNUSED(GPIO_Pin);
 1248              		.loc 1 511 3 view .LVU361
 512:Drivers/STM32G4xx_HAL_Driver/Src/stm32g4xx_hal_gpio.c **** 
 513:Drivers/STM32G4xx_HAL_Driver/Src/stm32g4xx_hal_gpio.c ****   /* NOTE: This function should not be modified, when the callback is needed,
 514:Drivers/STM32G4xx_HAL_Driver/Src/stm32g4xx_hal_gpio.c ****            the HAL_GPIO_EXTI_Callback could be implemented in the user file
 515:Drivers/STM32G4xx_HAL_Driver/Src/stm32g4xx_hal_gpio.c ****    */
 516:Drivers/STM32G4xx_HAL_Driver/Src/stm32g4xx_hal_gpio.c **** }
 1249              		.loc 1 516 1 is_stmt 0 view .LVU362
 1250 0000 7047     		bx	lr
 1251              		.cfi_endproc
 1252              	.LFE139:
 1254              		.section	.text.HAL_GPIO_EXTI_IRQHandler,"ax",%progbits
 1255              		.align	1
 1256              		.global	HAL_GPIO_EXTI_IRQHandler
 1257              		.syntax unified
 1258              		.thumb
 1259              		.thumb_func
 1260              		.fpu fpv4-sp-d16
 1262              	HAL_GPIO_EXTI_IRQHandler:
 1263              	.LVL101:
 1264              	.LFB138:
 494:Drivers/STM32G4xx_HAL_Driver/Src/stm32g4xx_hal_gpio.c ****   /* EXTI line interrupt detected */
ARM GAS  /tmp/ccGhNtsO.s 			page 35


 1265              		.loc 1 494 1 is_stmt 1 view -0
 1266              		.cfi_startproc
 1267              		@ args = 0, pretend = 0, frame = 0
 1268              		@ frame_needed = 0, uses_anonymous_args = 0
 494:Drivers/STM32G4xx_HAL_Driver/Src/stm32g4xx_hal_gpio.c ****   /* EXTI line interrupt detected */
 1269              		.loc 1 494 1 is_stmt 0 view .LVU364
 1270 0000 08B5     		push	{r3, lr}
 1271              	.LCFI11:
 1272              		.cfi_def_cfa_offset 8
 1273              		.cfi_offset 3, -8
 1274              		.cfi_offset 14, -4
 496:Drivers/STM32G4xx_HAL_Driver/Src/stm32g4xx_hal_gpio.c ****   {
 1275              		.loc 1 496 3 is_stmt 1 view .LVU365
 496:Drivers/STM32G4xx_HAL_Driver/Src/stm32g4xx_hal_gpio.c ****   {
 1276              		.loc 1 496 7 is_stmt 0 view .LVU366
 1277 0002 054B     		ldr	r3, .L100
 1278 0004 5B69     		ldr	r3, [r3, #20]
 496:Drivers/STM32G4xx_HAL_Driver/Src/stm32g4xx_hal_gpio.c ****   {
 1279              		.loc 1 496 6 view .LVU367
 1280 0006 0342     		tst	r3, r0
 1281 0008 00D1     		bne	.L99
 1282              	.LVL102:
 1283              	.L96:
 501:Drivers/STM32G4xx_HAL_Driver/Src/stm32g4xx_hal_gpio.c **** 
 1284              		.loc 1 501 1 view .LVU368
 1285 000a 08BD     		pop	{r3, pc}
 1286              	.LVL103:
 1287              	.L99:
 498:Drivers/STM32G4xx_HAL_Driver/Src/stm32g4xx_hal_gpio.c ****     HAL_GPIO_EXTI_Callback(GPIO_Pin);
 1288              		.loc 1 498 5 is_stmt 1 view .LVU369
 1289 000c 024B     		ldr	r3, .L100
 1290 000e 5861     		str	r0, [r3, #20]
 499:Drivers/STM32G4xx_HAL_Driver/Src/stm32g4xx_hal_gpio.c ****   }
 1291              		.loc 1 499 5 view .LVU370
 1292 0010 FFF7FEFF 		bl	HAL_GPIO_EXTI_Callback
 1293              	.LVL104:
 501:Drivers/STM32G4xx_HAL_Driver/Src/stm32g4xx_hal_gpio.c **** 
 1294              		.loc 1 501 1 is_stmt 0 view .LVU371
 1295 0014 F9E7     		b	.L96
 1296              	.L101:
 1297 0016 00BF     		.align	2
 1298              	.L100:
 1299 0018 00040140 		.word	1073808384
 1300              		.cfi_endproc
 1301              	.LFE138:
 1303              		.text
 1304              	.Letext0:
 1305              		.file 2 "/home/key/github/STM-Linux/gcc-arm-none-eabi-9-2020-q2-update/arm-none-eabi/include/machi
 1306              		.file 3 "/home/key/github/STM-Linux/gcc-arm-none-eabi-9-2020-q2-update/arm-none-eabi/include/sys/_
 1307              		.file 4 "Drivers/CMSIS/Include/core_cm4.h"
 1308              		.file 5 "Drivers/CMSIS/Device/ST/STM32G4xx/Include/system_stm32g4xx.h"
 1309              		.file 6 "Drivers/CMSIS/Device/ST/STM32G4xx/Include/stm32g474xx.h"
 1310              		.file 7 "Drivers/STM32G4xx_HAL_Driver/Inc/stm32g4xx_hal_def.h"
 1311              		.file 8 "Drivers/STM32G4xx_HAL_Driver/Inc/stm32g4xx_hal_gpio.h"
 1312              		.file 9 "Drivers/STM32G4xx_HAL_Driver/Inc/stm32g4xx_hal_flash.h"
 1313              		.file 10 "Drivers/STM32G4xx_HAL_Driver/Inc/stm32g4xx_hal_uart.h"
 1314              		.file 11 "Drivers/STM32G4xx_HAL_Driver/Inc/stm32g4xx_hal.h"
ARM GAS  /tmp/ccGhNtsO.s 			page 36


 1315              		.file 12 "Core/Inc/stm32g4xx_hal_conf.h"
ARM GAS  /tmp/ccGhNtsO.s 			page 37

