ARM GAS  /tmp/ccz2x4IP.s 			page 1


   1              		.cpu cortex-m4
   2              		.eabi_attribute 27, 1
   3              		.eabi_attribute 28, 1
   4              		.eabi_attribute 20, 1
   5              		.eabi_attribute 21, 1
   6              		.eabi_attribute 23, 3
   7              		.eabi_attribute 24, 1
   8              		.eabi_attribute 25, 1
   9              		.eabi_attribute 26, 1
  10              		.eabi_attribute 30, 1
  11              		.eabi_attribute 34, 1
  12              		.eabi_attribute 18, 4
  13              		.file	"stm32g4xx_hal_rcc.c"
  14              		.text
  15              	.Ltext0:
  16              		.cfi_sections	.debug_frame
  17              		.section	.text.RCC_GetSysClockFreqFromPLLSource,"ax",%progbits
  18              		.align	1
  19              		.arch armv7e-m
  20              		.syntax unified
  21              		.thumb
  22              		.thumb_func
  23              		.fpu fpv4-sp-d16
  25              	RCC_GetSysClockFreqFromPLLSource:
  26              	.LFB147:
  27              		.file 1 "Drivers/STM32G4xx_HAL_Driver/Src/stm32g4xx_hal_rcc.c"
   1:Drivers/STM32G4xx_HAL_Driver/Src/stm32g4xx_hal_rcc.c **** /**
   2:Drivers/STM32G4xx_HAL_Driver/Src/stm32g4xx_hal_rcc.c ****   ******************************************************************************
   3:Drivers/STM32G4xx_HAL_Driver/Src/stm32g4xx_hal_rcc.c ****   * @file    stm32g4xx_hal_rcc.c
   4:Drivers/STM32G4xx_HAL_Driver/Src/stm32g4xx_hal_rcc.c ****   * @author  MCD Application Team
   5:Drivers/STM32G4xx_HAL_Driver/Src/stm32g4xx_hal_rcc.c ****   * @brief   RCC HAL module driver.
   6:Drivers/STM32G4xx_HAL_Driver/Src/stm32g4xx_hal_rcc.c ****   *          This file provides firmware functions to manage the following
   7:Drivers/STM32G4xx_HAL_Driver/Src/stm32g4xx_hal_rcc.c ****   *          functionalities of the Reset and Clock Control (RCC) peripheral:
   8:Drivers/STM32G4xx_HAL_Driver/Src/stm32g4xx_hal_rcc.c ****   *           + Initialization and de-initialization functions
   9:Drivers/STM32G4xx_HAL_Driver/Src/stm32g4xx_hal_rcc.c ****   *           + Peripheral Control functions
  10:Drivers/STM32G4xx_HAL_Driver/Src/stm32g4xx_hal_rcc.c ****   *
  11:Drivers/STM32G4xx_HAL_Driver/Src/stm32g4xx_hal_rcc.c ****   @verbatim
  12:Drivers/STM32G4xx_HAL_Driver/Src/stm32g4xx_hal_rcc.c ****   ==============================================================================
  13:Drivers/STM32G4xx_HAL_Driver/Src/stm32g4xx_hal_rcc.c ****                       ##### RCC specific features #####
  14:Drivers/STM32G4xx_HAL_Driver/Src/stm32g4xx_hal_rcc.c ****   ==============================================================================
  15:Drivers/STM32G4xx_HAL_Driver/Src/stm32g4xx_hal_rcc.c ****     [..]
  16:Drivers/STM32G4xx_HAL_Driver/Src/stm32g4xx_hal_rcc.c ****       After reset the device is running from High Speed Internal oscillator
  17:Drivers/STM32G4xx_HAL_Driver/Src/stm32g4xx_hal_rcc.c ****       (16 MHz) with Flash 0 wait state. Flash prefetch buffer, D-Cache
  18:Drivers/STM32G4xx_HAL_Driver/Src/stm32g4xx_hal_rcc.c ****       and I-Cache are disabled, and all peripherals are off except internal
  19:Drivers/STM32G4xx_HAL_Driver/Src/stm32g4xx_hal_rcc.c ****       SRAM, Flash and JTAG.
  20:Drivers/STM32G4xx_HAL_Driver/Src/stm32g4xx_hal_rcc.c **** 
  21:Drivers/STM32G4xx_HAL_Driver/Src/stm32g4xx_hal_rcc.c ****       (+) There is no prescaler on High speed (AHBs) and Low speed (APBs) buses:
  22:Drivers/STM32G4xx_HAL_Driver/Src/stm32g4xx_hal_rcc.c ****           all peripherals mapped on these buses are running at HSI speed.
  23:Drivers/STM32G4xx_HAL_Driver/Src/stm32g4xx_hal_rcc.c ****       (+) The clock for all peripherals is switched off, except the SRAM and FLASH.
  24:Drivers/STM32G4xx_HAL_Driver/Src/stm32g4xx_hal_rcc.c ****       (+) All GPIOs are in analog mode, except the JTAG pins which
  25:Drivers/STM32G4xx_HAL_Driver/Src/stm32g4xx_hal_rcc.c ****           are assigned to be used for debug purpose.
  26:Drivers/STM32G4xx_HAL_Driver/Src/stm32g4xx_hal_rcc.c **** 
  27:Drivers/STM32G4xx_HAL_Driver/Src/stm32g4xx_hal_rcc.c ****     [..]
  28:Drivers/STM32G4xx_HAL_Driver/Src/stm32g4xx_hal_rcc.c ****       Once the device started from reset, the user application has to:
  29:Drivers/STM32G4xx_HAL_Driver/Src/stm32g4xx_hal_rcc.c ****       (+) Configure the clock source to be used to drive the System clock
  30:Drivers/STM32G4xx_HAL_Driver/Src/stm32g4xx_hal_rcc.c ****           (if the application needs higher frequency/performance)
  31:Drivers/STM32G4xx_HAL_Driver/Src/stm32g4xx_hal_rcc.c ****       (+) Configure the System clock frequency and Flash settings
ARM GAS  /tmp/ccz2x4IP.s 			page 2


  32:Drivers/STM32G4xx_HAL_Driver/Src/stm32g4xx_hal_rcc.c ****       (+) Configure the AHB and APB buses prescalers
  33:Drivers/STM32G4xx_HAL_Driver/Src/stm32g4xx_hal_rcc.c ****       (+) Enable the clock for the peripheral(s) to be used
  34:Drivers/STM32G4xx_HAL_Driver/Src/stm32g4xx_hal_rcc.c ****       (+) Configure the clock source(s) for peripherals which clocks are not
  35:Drivers/STM32G4xx_HAL_Driver/Src/stm32g4xx_hal_rcc.c ****           derived from the System clock (USB, RNG, USART, LPUART, FDCAN, some TIMERs,
  36:Drivers/STM32G4xx_HAL_Driver/Src/stm32g4xx_hal_rcc.c ****           UCPD, I2S, I2C, LPTIM, ADC, QSPI)
  37:Drivers/STM32G4xx_HAL_Driver/Src/stm32g4xx_hal_rcc.c **** 
  38:Drivers/STM32G4xx_HAL_Driver/Src/stm32g4xx_hal_rcc.c ****   @endverbatim
  39:Drivers/STM32G4xx_HAL_Driver/Src/stm32g4xx_hal_rcc.c ****   ******************************************************************************
  40:Drivers/STM32G4xx_HAL_Driver/Src/stm32g4xx_hal_rcc.c ****   * @attention
  41:Drivers/STM32G4xx_HAL_Driver/Src/stm32g4xx_hal_rcc.c ****   *
  42:Drivers/STM32G4xx_HAL_Driver/Src/stm32g4xx_hal_rcc.c ****   * <h2><center>&copy; Copyright (c) 2019 STMicroelectronics.
  43:Drivers/STM32G4xx_HAL_Driver/Src/stm32g4xx_hal_rcc.c ****   * All rights reserved.</center></h2>
  44:Drivers/STM32G4xx_HAL_Driver/Src/stm32g4xx_hal_rcc.c ****   *
  45:Drivers/STM32G4xx_HAL_Driver/Src/stm32g4xx_hal_rcc.c ****   * This software component is licensed by ST under BSD 3-Clause license,
  46:Drivers/STM32G4xx_HAL_Driver/Src/stm32g4xx_hal_rcc.c ****   * the "License"; You may not use this file except in compliance with the
  47:Drivers/STM32G4xx_HAL_Driver/Src/stm32g4xx_hal_rcc.c ****   * License. You may obtain a copy of the License at:
  48:Drivers/STM32G4xx_HAL_Driver/Src/stm32g4xx_hal_rcc.c ****   *                        opensource.org/licenses/BSD-3-Clause
  49:Drivers/STM32G4xx_HAL_Driver/Src/stm32g4xx_hal_rcc.c ****   *
  50:Drivers/STM32G4xx_HAL_Driver/Src/stm32g4xx_hal_rcc.c ****   ******************************************************************************
  51:Drivers/STM32G4xx_HAL_Driver/Src/stm32g4xx_hal_rcc.c ****   */
  52:Drivers/STM32G4xx_HAL_Driver/Src/stm32g4xx_hal_rcc.c **** 
  53:Drivers/STM32G4xx_HAL_Driver/Src/stm32g4xx_hal_rcc.c **** /* Includes ------------------------------------------------------------------*/
  54:Drivers/STM32G4xx_HAL_Driver/Src/stm32g4xx_hal_rcc.c **** #include "stm32g4xx_hal.h"
  55:Drivers/STM32G4xx_HAL_Driver/Src/stm32g4xx_hal_rcc.c **** 
  56:Drivers/STM32G4xx_HAL_Driver/Src/stm32g4xx_hal_rcc.c **** /** @addtogroup STM32G4xx_HAL_Driver
  57:Drivers/STM32G4xx_HAL_Driver/Src/stm32g4xx_hal_rcc.c ****   * @{
  58:Drivers/STM32G4xx_HAL_Driver/Src/stm32g4xx_hal_rcc.c ****   */
  59:Drivers/STM32G4xx_HAL_Driver/Src/stm32g4xx_hal_rcc.c **** 
  60:Drivers/STM32G4xx_HAL_Driver/Src/stm32g4xx_hal_rcc.c **** /** @defgroup RCC RCC
  61:Drivers/STM32G4xx_HAL_Driver/Src/stm32g4xx_hal_rcc.c ****   * @brief RCC HAL module driver
  62:Drivers/STM32G4xx_HAL_Driver/Src/stm32g4xx_hal_rcc.c ****   * @{
  63:Drivers/STM32G4xx_HAL_Driver/Src/stm32g4xx_hal_rcc.c ****   */
  64:Drivers/STM32G4xx_HAL_Driver/Src/stm32g4xx_hal_rcc.c **** 
  65:Drivers/STM32G4xx_HAL_Driver/Src/stm32g4xx_hal_rcc.c **** #ifdef HAL_RCC_MODULE_ENABLED
  66:Drivers/STM32G4xx_HAL_Driver/Src/stm32g4xx_hal_rcc.c **** 
  67:Drivers/STM32G4xx_HAL_Driver/Src/stm32g4xx_hal_rcc.c **** /* Private typedef -----------------------------------------------------------*/
  68:Drivers/STM32G4xx_HAL_Driver/Src/stm32g4xx_hal_rcc.c **** /* Private define ------------------------------------------------------------*/
  69:Drivers/STM32G4xx_HAL_Driver/Src/stm32g4xx_hal_rcc.c **** /** @defgroup RCC_Private_Constants RCC Private Constants
  70:Drivers/STM32G4xx_HAL_Driver/Src/stm32g4xx_hal_rcc.c ****  * @{
  71:Drivers/STM32G4xx_HAL_Driver/Src/stm32g4xx_hal_rcc.c ****  */
  72:Drivers/STM32G4xx_HAL_Driver/Src/stm32g4xx_hal_rcc.c **** #define HSE_TIMEOUT_VALUE          HSE_STARTUP_TIMEOUT
  73:Drivers/STM32G4xx_HAL_Driver/Src/stm32g4xx_hal_rcc.c **** #define HSI_TIMEOUT_VALUE          2U                /* 2 ms (minimum Tick + 1) */
  74:Drivers/STM32G4xx_HAL_Driver/Src/stm32g4xx_hal_rcc.c **** #define LSI_TIMEOUT_VALUE          2U                /* 2 ms (minimum Tick + 1) */
  75:Drivers/STM32G4xx_HAL_Driver/Src/stm32g4xx_hal_rcc.c **** #define HSI48_TIMEOUT_VALUE        2U                /* 2 ms (minimum Tick + 1) */
  76:Drivers/STM32G4xx_HAL_Driver/Src/stm32g4xx_hal_rcc.c **** #define PLL_TIMEOUT_VALUE          2U                /* 2 ms (minimum Tick + 1) */
  77:Drivers/STM32G4xx_HAL_Driver/Src/stm32g4xx_hal_rcc.c **** #define CLOCKSWITCH_TIMEOUT_VALUE  5000U             /* 5 s    */
  78:Drivers/STM32G4xx_HAL_Driver/Src/stm32g4xx_hal_rcc.c **** /**
  79:Drivers/STM32G4xx_HAL_Driver/Src/stm32g4xx_hal_rcc.c ****   * @}
  80:Drivers/STM32G4xx_HAL_Driver/Src/stm32g4xx_hal_rcc.c ****   */
  81:Drivers/STM32G4xx_HAL_Driver/Src/stm32g4xx_hal_rcc.c **** 
  82:Drivers/STM32G4xx_HAL_Driver/Src/stm32g4xx_hal_rcc.c **** /* Private macro -------------------------------------------------------------*/
  83:Drivers/STM32G4xx_HAL_Driver/Src/stm32g4xx_hal_rcc.c **** /** @defgroup RCC_Private_Macros RCC Private Macros
  84:Drivers/STM32G4xx_HAL_Driver/Src/stm32g4xx_hal_rcc.c ****   * @{
  85:Drivers/STM32G4xx_HAL_Driver/Src/stm32g4xx_hal_rcc.c ****   */
  86:Drivers/STM32G4xx_HAL_Driver/Src/stm32g4xx_hal_rcc.c **** #define MCO1_CLK_ENABLE()   __HAL_RCC_GPIOA_CLK_ENABLE()
  87:Drivers/STM32G4xx_HAL_Driver/Src/stm32g4xx_hal_rcc.c **** #define MCO1_GPIO_PORT        GPIOA
  88:Drivers/STM32G4xx_HAL_Driver/Src/stm32g4xx_hal_rcc.c **** #define MCO1_PIN              GPIO_PIN_8
ARM GAS  /tmp/ccz2x4IP.s 			page 3


  89:Drivers/STM32G4xx_HAL_Driver/Src/stm32g4xx_hal_rcc.c **** 
  90:Drivers/STM32G4xx_HAL_Driver/Src/stm32g4xx_hal_rcc.c **** #define RCC_PLL_OSCSOURCE_CONFIG(__HAL_RCC_PLLSOURCE__) \
  91:Drivers/STM32G4xx_HAL_Driver/Src/stm32g4xx_hal_rcc.c ****             (MODIFY_REG(RCC->PLLCFGR, RCC_PLLCFGR_PLLSRC, (__HAL_RCC_PLLSOURCE__)))
  92:Drivers/STM32G4xx_HAL_Driver/Src/stm32g4xx_hal_rcc.c **** /**
  93:Drivers/STM32G4xx_HAL_Driver/Src/stm32g4xx_hal_rcc.c ****   * @}
  94:Drivers/STM32G4xx_HAL_Driver/Src/stm32g4xx_hal_rcc.c ****   */
  95:Drivers/STM32G4xx_HAL_Driver/Src/stm32g4xx_hal_rcc.c **** 
  96:Drivers/STM32G4xx_HAL_Driver/Src/stm32g4xx_hal_rcc.c **** /* Private variables ---------------------------------------------------------*/
  97:Drivers/STM32G4xx_HAL_Driver/Src/stm32g4xx_hal_rcc.c **** 
  98:Drivers/STM32G4xx_HAL_Driver/Src/stm32g4xx_hal_rcc.c **** /* Private function prototypes -----------------------------------------------*/
  99:Drivers/STM32G4xx_HAL_Driver/Src/stm32g4xx_hal_rcc.c **** /** @defgroup RCC_Private_Functions RCC Private Functions
 100:Drivers/STM32G4xx_HAL_Driver/Src/stm32g4xx_hal_rcc.c ****   * @{
 101:Drivers/STM32G4xx_HAL_Driver/Src/stm32g4xx_hal_rcc.c ****   */
 102:Drivers/STM32G4xx_HAL_Driver/Src/stm32g4xx_hal_rcc.c **** static uint32_t          RCC_GetSysClockFreqFromPLLSource(void);
 103:Drivers/STM32G4xx_HAL_Driver/Src/stm32g4xx_hal_rcc.c **** /**
 104:Drivers/STM32G4xx_HAL_Driver/Src/stm32g4xx_hal_rcc.c ****   * @}
 105:Drivers/STM32G4xx_HAL_Driver/Src/stm32g4xx_hal_rcc.c ****   */
 106:Drivers/STM32G4xx_HAL_Driver/Src/stm32g4xx_hal_rcc.c **** 
 107:Drivers/STM32G4xx_HAL_Driver/Src/stm32g4xx_hal_rcc.c **** /* Exported functions --------------------------------------------------------*/
 108:Drivers/STM32G4xx_HAL_Driver/Src/stm32g4xx_hal_rcc.c **** 
 109:Drivers/STM32G4xx_HAL_Driver/Src/stm32g4xx_hal_rcc.c **** /** @defgroup RCC_Exported_Functions RCC Exported Functions
 110:Drivers/STM32G4xx_HAL_Driver/Src/stm32g4xx_hal_rcc.c ****   * @{
 111:Drivers/STM32G4xx_HAL_Driver/Src/stm32g4xx_hal_rcc.c ****   */
 112:Drivers/STM32G4xx_HAL_Driver/Src/stm32g4xx_hal_rcc.c **** 
 113:Drivers/STM32G4xx_HAL_Driver/Src/stm32g4xx_hal_rcc.c **** /** @defgroup RCC_Exported_Functions_Group1 Initialization and de-initialization functions
 114:Drivers/STM32G4xx_HAL_Driver/Src/stm32g4xx_hal_rcc.c ****   *  @brief    Initialization and Configuration functions
 115:Drivers/STM32G4xx_HAL_Driver/Src/stm32g4xx_hal_rcc.c ****   *
 116:Drivers/STM32G4xx_HAL_Driver/Src/stm32g4xx_hal_rcc.c ****   @verbatim
 117:Drivers/STM32G4xx_HAL_Driver/Src/stm32g4xx_hal_rcc.c ****  ===============================================================================
 118:Drivers/STM32G4xx_HAL_Driver/Src/stm32g4xx_hal_rcc.c ****            ##### Initialization and de-initialization functions #####
 119:Drivers/STM32G4xx_HAL_Driver/Src/stm32g4xx_hal_rcc.c ****  ===============================================================================
 120:Drivers/STM32G4xx_HAL_Driver/Src/stm32g4xx_hal_rcc.c ****     [..]
 121:Drivers/STM32G4xx_HAL_Driver/Src/stm32g4xx_hal_rcc.c ****       This section provides functions allowing to configure the internal and external oscillators
 122:Drivers/STM32G4xx_HAL_Driver/Src/stm32g4xx_hal_rcc.c ****       (HSE, HSI, LSE, LSI, PLL, CSS and MCO) and the System buses clocks (SYSCLK, AHB, APB1
 123:Drivers/STM32G4xx_HAL_Driver/Src/stm32g4xx_hal_rcc.c ****        and APB2).
 124:Drivers/STM32G4xx_HAL_Driver/Src/stm32g4xx_hal_rcc.c **** 
 125:Drivers/STM32G4xx_HAL_Driver/Src/stm32g4xx_hal_rcc.c ****     [..] Internal/external clock and PLL configuration
 126:Drivers/STM32G4xx_HAL_Driver/Src/stm32g4xx_hal_rcc.c ****          (+) HSI (high-speed internal): 16 MHz factory-trimmed RC used directly or through
 127:Drivers/STM32G4xx_HAL_Driver/Src/stm32g4xx_hal_rcc.c ****              the PLL as System clock source.
 128:Drivers/STM32G4xx_HAL_Driver/Src/stm32g4xx_hal_rcc.c **** 
 129:Drivers/STM32G4xx_HAL_Driver/Src/stm32g4xx_hal_rcc.c ****          (+) LSI (low-speed internal): 32 KHz low consumption RC used as IWDG and/or RTC
 130:Drivers/STM32G4xx_HAL_Driver/Src/stm32g4xx_hal_rcc.c ****              clock source.
 131:Drivers/STM32G4xx_HAL_Driver/Src/stm32g4xx_hal_rcc.c **** 
 132:Drivers/STM32G4xx_HAL_Driver/Src/stm32g4xx_hal_rcc.c ****          (+) HSE (high-speed external): 4 to 48 MHz crystal oscillator used directly or
 133:Drivers/STM32G4xx_HAL_Driver/Src/stm32g4xx_hal_rcc.c ****              through the PLL as System clock source. Can be used also optionally as RTC clock sourc
 134:Drivers/STM32G4xx_HAL_Driver/Src/stm32g4xx_hal_rcc.c **** 
 135:Drivers/STM32G4xx_HAL_Driver/Src/stm32g4xx_hal_rcc.c ****          (+) LSE (low-speed external): 32.768 KHz oscillator used optionally as RTC clock source.
 136:Drivers/STM32G4xx_HAL_Driver/Src/stm32g4xx_hal_rcc.c **** 
 137:Drivers/STM32G4xx_HAL_Driver/Src/stm32g4xx_hal_rcc.c ****          (+) PLL (clocked by HSI, HSE) providing up to three independent output clocks:
 138:Drivers/STM32G4xx_HAL_Driver/Src/stm32g4xx_hal_rcc.c ****            (++) The first output is used to generate the high speed system clock (up to 170 MHz).
 139:Drivers/STM32G4xx_HAL_Driver/Src/stm32g4xx_hal_rcc.c ****            (++) The second output is used to generate the clock for the USB (48 MHz),
 140:Drivers/STM32G4xx_HAL_Driver/Src/stm32g4xx_hal_rcc.c ****                 the QSPI (<= 48 MHz), the FDCAN, the SAI and the I2S.
 141:Drivers/STM32G4xx_HAL_Driver/Src/stm32g4xx_hal_rcc.c ****            (++) The third output is used to generate a clock for ADC
 142:Drivers/STM32G4xx_HAL_Driver/Src/stm32g4xx_hal_rcc.c **** 
 143:Drivers/STM32G4xx_HAL_Driver/Src/stm32g4xx_hal_rcc.c ****          (+) CSS (Clock security system): once enabled, if a HSE clock failure occurs
 144:Drivers/STM32G4xx_HAL_Driver/Src/stm32g4xx_hal_rcc.c ****             (HSE used directly or through PLL as System clock source), the System clock
 145:Drivers/STM32G4xx_HAL_Driver/Src/stm32g4xx_hal_rcc.c ****              is automatically switched to HSI and an interrupt is generated if enabled.
ARM GAS  /tmp/ccz2x4IP.s 			page 4


 146:Drivers/STM32G4xx_HAL_Driver/Src/stm32g4xx_hal_rcc.c ****              The interrupt is linked to the Cortex-M4 NMI (Non-Maskable Interrupt)
 147:Drivers/STM32G4xx_HAL_Driver/Src/stm32g4xx_hal_rcc.c ****              exception vector.
 148:Drivers/STM32G4xx_HAL_Driver/Src/stm32g4xx_hal_rcc.c **** 
 149:Drivers/STM32G4xx_HAL_Driver/Src/stm32g4xx_hal_rcc.c ****          (+) MCO (microcontroller clock output): used to output LSI, HSI, LSE, HSE,
 150:Drivers/STM32G4xx_HAL_Driver/Src/stm32g4xx_hal_rcc.c ****              main PLL clock, system clock or RC48 clock (through a configurable prescaler) on PA8 p
 151:Drivers/STM32G4xx_HAL_Driver/Src/stm32g4xx_hal_rcc.c **** 
 152:Drivers/STM32G4xx_HAL_Driver/Src/stm32g4xx_hal_rcc.c ****     [..] System, AHB and APB buses clocks configuration
 153:Drivers/STM32G4xx_HAL_Driver/Src/stm32g4xx_hal_rcc.c ****          (+) Several clock sources can be used to drive the System clock (SYSCLK): HSI,
 154:Drivers/STM32G4xx_HAL_Driver/Src/stm32g4xx_hal_rcc.c ****              HSE and main PLL.
 155:Drivers/STM32G4xx_HAL_Driver/Src/stm32g4xx_hal_rcc.c ****              The AHB clock (HCLK) is derived from System clock through configurable
 156:Drivers/STM32G4xx_HAL_Driver/Src/stm32g4xx_hal_rcc.c ****              prescaler and used to clock the CPU, memory and peripherals mapped
 157:Drivers/STM32G4xx_HAL_Driver/Src/stm32g4xx_hal_rcc.c ****              on AHB bus (DMA, GPIO...). APB1 (PCLK1) and APB2 (PCLK2) clocks are derived
 158:Drivers/STM32G4xx_HAL_Driver/Src/stm32g4xx_hal_rcc.c ****              from AHB clock through configurable prescalers and used to clock
 159:Drivers/STM32G4xx_HAL_Driver/Src/stm32g4xx_hal_rcc.c ****              the peripherals mapped on these buses. You can use
 160:Drivers/STM32G4xx_HAL_Driver/Src/stm32g4xx_hal_rcc.c ****              "HAL_RCC_GetSysClockFreq()" function to retrieve the frequencies of these clocks.
 161:Drivers/STM32G4xx_HAL_Driver/Src/stm32g4xx_hal_rcc.c **** 
 162:Drivers/STM32G4xx_HAL_Driver/Src/stm32g4xx_hal_rcc.c ****          -@- All the peripheral clocks are derived from the System clock (SYSCLK) except:
 163:Drivers/STM32G4xx_HAL_Driver/Src/stm32g4xx_hal_rcc.c **** 
 164:Drivers/STM32G4xx_HAL_Driver/Src/stm32g4xx_hal_rcc.c ****            (+@) RTC: the RTC clock can be derived either from the LSI, LSE or HSE clock
 165:Drivers/STM32G4xx_HAL_Driver/Src/stm32g4xx_hal_rcc.c ****                 divided by 2 to 31.
 166:Drivers/STM32G4xx_HAL_Driver/Src/stm32g4xx_hal_rcc.c ****                 You have to use __HAL_RCC_RTC_ENABLE() and HAL_RCCEx_PeriphCLKConfig() function
 167:Drivers/STM32G4xx_HAL_Driver/Src/stm32g4xx_hal_rcc.c ****                 to configure this clock.
 168:Drivers/STM32G4xx_HAL_Driver/Src/stm32g4xx_hal_rcc.c ****            (+@) USB FS and RNG: USB FS requires a frequency equal to 48 MHz
 169:Drivers/STM32G4xx_HAL_Driver/Src/stm32g4xx_hal_rcc.c ****                 to work correctly, while the RNG peripheral requires a frequency
 170:Drivers/STM32G4xx_HAL_Driver/Src/stm32g4xx_hal_rcc.c ****                 equal or lower than to 48 MHz. This clock is derived of the main PLL
 171:Drivers/STM32G4xx_HAL_Driver/Src/stm32g4xx_hal_rcc.c ****                 through PLLQ divider. You have to enable the peripheral clock and use
 172:Drivers/STM32G4xx_HAL_Driver/Src/stm32g4xx_hal_rcc.c ****                 HAL_RCCEx_PeriphCLKConfig() function to configure this clock.
 173:Drivers/STM32G4xx_HAL_Driver/Src/stm32g4xx_hal_rcc.c ****            (+@) IWDG clock which is always the LSI clock.
 174:Drivers/STM32G4xx_HAL_Driver/Src/stm32g4xx_hal_rcc.c **** 
 175:Drivers/STM32G4xx_HAL_Driver/Src/stm32g4xx_hal_rcc.c **** 
 176:Drivers/STM32G4xx_HAL_Driver/Src/stm32g4xx_hal_rcc.c ****          (+) The maximum frequency of the SYSCLK, HCLK, PCLK1 and PCLK2 is 170 MHz.
 177:Drivers/STM32G4xx_HAL_Driver/Src/stm32g4xx_hal_rcc.c ****              The clock source frequency should be adapted depending on the device voltage range
 178:Drivers/STM32G4xx_HAL_Driver/Src/stm32g4xx_hal_rcc.c ****              as listed in the Reference Manual "Clock source frequency versus voltage scaling" chap
 179:Drivers/STM32G4xx_HAL_Driver/Src/stm32g4xx_hal_rcc.c **** 
 180:Drivers/STM32G4xx_HAL_Driver/Src/stm32g4xx_hal_rcc.c ****   @endverbatim
 181:Drivers/STM32G4xx_HAL_Driver/Src/stm32g4xx_hal_rcc.c **** 
 182:Drivers/STM32G4xx_HAL_Driver/Src/stm32g4xx_hal_rcc.c ****            Table 1. HCLK clock frequency for STM32G4xx devices
 183:Drivers/STM32G4xx_HAL_Driver/Src/stm32g4xx_hal_rcc.c ****            +----------------------------------------------------------------------------+
 184:Drivers/STM32G4xx_HAL_Driver/Src/stm32g4xx_hal_rcc.c ****            | Latency         |            HCLK clock frequency (MHz)                    |
 185:Drivers/STM32G4xx_HAL_Driver/Src/stm32g4xx_hal_rcc.c ****            |                 |----------------------------------------------------------|
 186:Drivers/STM32G4xx_HAL_Driver/Src/stm32g4xx_hal_rcc.c ****            |                 |  voltage range 1  |  voltage range 1  | voltage range 2  |
 187:Drivers/STM32G4xx_HAL_Driver/Src/stm32g4xx_hal_rcc.c ****            |                 | boost mode 1.28 V | normal mode 1.2 V |     1.0 V        |
 188:Drivers/STM32G4xx_HAL_Driver/Src/stm32g4xx_hal_rcc.c ****            |-----------------|-------------------|-------------------|------------------|
 189:Drivers/STM32G4xx_HAL_Driver/Src/stm32g4xx_hal_rcc.c ****            |0WS(1 CPU cycles)|    HCLK <= 34     |    HCLK <= 30     |    HCLK <= 13    |
 190:Drivers/STM32G4xx_HAL_Driver/Src/stm32g4xx_hal_rcc.c ****            |-----------------|-------------------|-------------------|------------------|
 191:Drivers/STM32G4xx_HAL_Driver/Src/stm32g4xx_hal_rcc.c ****            |1WS(2 CPU cycles)|    HCLK <= 68     |    HCLK <= 60     |    HCLK <= 26    |
 192:Drivers/STM32G4xx_HAL_Driver/Src/stm32g4xx_hal_rcc.c ****            |-----------------|-------------------|-------------------|------------------|
 193:Drivers/STM32G4xx_HAL_Driver/Src/stm32g4xx_hal_rcc.c ****            |2WS(3 CPU cycles)|    HCLK <= 102    |    HCLK <= 90     |        -         |
 194:Drivers/STM32G4xx_HAL_Driver/Src/stm32g4xx_hal_rcc.c ****            |-----------------|-------------------|-------------------|------------------|
 195:Drivers/STM32G4xx_HAL_Driver/Src/stm32g4xx_hal_rcc.c ****            |3WS(4 CPU cycles)|    HCLK <= 136    |    HCLK <= 120    |        -         |
 196:Drivers/STM32G4xx_HAL_Driver/Src/stm32g4xx_hal_rcc.c ****            |-----------------|-------------------|-------------------|------------------|
 197:Drivers/STM32G4xx_HAL_Driver/Src/stm32g4xx_hal_rcc.c ****            |4WS(5 CPU cycles)|    HCLK <= 170    |    HCLK <= 150    |        -         |
 198:Drivers/STM32G4xx_HAL_Driver/Src/stm32g4xx_hal_rcc.c ****            +----------------------------------------------------------------------------+
 199:Drivers/STM32G4xx_HAL_Driver/Src/stm32g4xx_hal_rcc.c **** 
 200:Drivers/STM32G4xx_HAL_Driver/Src/stm32g4xx_hal_rcc.c ****   * @{
 201:Drivers/STM32G4xx_HAL_Driver/Src/stm32g4xx_hal_rcc.c ****   */
 202:Drivers/STM32G4xx_HAL_Driver/Src/stm32g4xx_hal_rcc.c **** 
ARM GAS  /tmp/ccz2x4IP.s 			page 5


 203:Drivers/STM32G4xx_HAL_Driver/Src/stm32g4xx_hal_rcc.c **** /**
 204:Drivers/STM32G4xx_HAL_Driver/Src/stm32g4xx_hal_rcc.c ****   * @brief  Reset the RCC clock configuration to the default reset state.
 205:Drivers/STM32G4xx_HAL_Driver/Src/stm32g4xx_hal_rcc.c ****   * @note   The default reset state of the clock configuration is given below:
 206:Drivers/STM32G4xx_HAL_Driver/Src/stm32g4xx_hal_rcc.c ****   *            - HSI ON and used as system clock source
 207:Drivers/STM32G4xx_HAL_Driver/Src/stm32g4xx_hal_rcc.c ****   *            - HSE, PLL OFF
 208:Drivers/STM32G4xx_HAL_Driver/Src/stm32g4xx_hal_rcc.c ****   *            - AHB, APB1 and APB2 prescaler set to 1.
 209:Drivers/STM32G4xx_HAL_Driver/Src/stm32g4xx_hal_rcc.c ****   *            - CSS, MCO1 OFF
 210:Drivers/STM32G4xx_HAL_Driver/Src/stm32g4xx_hal_rcc.c ****   *            - All interrupts disabled
 211:Drivers/STM32G4xx_HAL_Driver/Src/stm32g4xx_hal_rcc.c ****   *            - All interrupt and reset flags cleared
 212:Drivers/STM32G4xx_HAL_Driver/Src/stm32g4xx_hal_rcc.c ****   * @note   This function doesn't modify the configuration of the
 213:Drivers/STM32G4xx_HAL_Driver/Src/stm32g4xx_hal_rcc.c ****   *            - Peripheral clocks
 214:Drivers/STM32G4xx_HAL_Driver/Src/stm32g4xx_hal_rcc.c ****   *            - LSI, LSE and RTC clocks
 215:Drivers/STM32G4xx_HAL_Driver/Src/stm32g4xx_hal_rcc.c ****   * @retval HAL status
 216:Drivers/STM32G4xx_HAL_Driver/Src/stm32g4xx_hal_rcc.c ****   */
 217:Drivers/STM32G4xx_HAL_Driver/Src/stm32g4xx_hal_rcc.c **** HAL_StatusTypeDef HAL_RCC_DeInit(void)
 218:Drivers/STM32G4xx_HAL_Driver/Src/stm32g4xx_hal_rcc.c **** {
 219:Drivers/STM32G4xx_HAL_Driver/Src/stm32g4xx_hal_rcc.c ****   uint32_t tickstart;
 220:Drivers/STM32G4xx_HAL_Driver/Src/stm32g4xx_hal_rcc.c **** 
 221:Drivers/STM32G4xx_HAL_Driver/Src/stm32g4xx_hal_rcc.c ****   /* Get Start Tick*/
 222:Drivers/STM32G4xx_HAL_Driver/Src/stm32g4xx_hal_rcc.c ****   tickstart = HAL_GetTick();
 223:Drivers/STM32G4xx_HAL_Driver/Src/stm32g4xx_hal_rcc.c **** 
 224:Drivers/STM32G4xx_HAL_Driver/Src/stm32g4xx_hal_rcc.c ****   /* Set HSION bit to the reset value */
 225:Drivers/STM32G4xx_HAL_Driver/Src/stm32g4xx_hal_rcc.c ****   SET_BIT(RCC->CR, RCC_CR_HSION);
 226:Drivers/STM32G4xx_HAL_Driver/Src/stm32g4xx_hal_rcc.c **** 
 227:Drivers/STM32G4xx_HAL_Driver/Src/stm32g4xx_hal_rcc.c ****   /* Wait till HSI is ready */
 228:Drivers/STM32G4xx_HAL_Driver/Src/stm32g4xx_hal_rcc.c ****   while (READ_BIT(RCC->CR, RCC_CR_HSIRDY) == 0U)
 229:Drivers/STM32G4xx_HAL_Driver/Src/stm32g4xx_hal_rcc.c ****   {
 230:Drivers/STM32G4xx_HAL_Driver/Src/stm32g4xx_hal_rcc.c ****     if ((HAL_GetTick() - tickstart) > HSI_TIMEOUT_VALUE)
 231:Drivers/STM32G4xx_HAL_Driver/Src/stm32g4xx_hal_rcc.c ****     {
 232:Drivers/STM32G4xx_HAL_Driver/Src/stm32g4xx_hal_rcc.c ****       return HAL_TIMEOUT;
 233:Drivers/STM32G4xx_HAL_Driver/Src/stm32g4xx_hal_rcc.c ****     }
 234:Drivers/STM32G4xx_HAL_Driver/Src/stm32g4xx_hal_rcc.c ****   }
 235:Drivers/STM32G4xx_HAL_Driver/Src/stm32g4xx_hal_rcc.c **** 
 236:Drivers/STM32G4xx_HAL_Driver/Src/stm32g4xx_hal_rcc.c ****  /* Set HSITRIM[6:0] bits to the reset value */
 237:Drivers/STM32G4xx_HAL_Driver/Src/stm32g4xx_hal_rcc.c ****   SET_BIT(RCC->ICSCR, RCC_HSICALIBRATION_DEFAULT << RCC_ICSCR_HSITRIM_Pos);
 238:Drivers/STM32G4xx_HAL_Driver/Src/stm32g4xx_hal_rcc.c **** 
 239:Drivers/STM32G4xx_HAL_Driver/Src/stm32g4xx_hal_rcc.c ****   /* Get Start Tick*/
 240:Drivers/STM32G4xx_HAL_Driver/Src/stm32g4xx_hal_rcc.c ****   tickstart = HAL_GetTick();
 241:Drivers/STM32G4xx_HAL_Driver/Src/stm32g4xx_hal_rcc.c **** 
 242:Drivers/STM32G4xx_HAL_Driver/Src/stm32g4xx_hal_rcc.c ****   /* Reset CFGR register (HSI is selected as system clock source) */
 243:Drivers/STM32G4xx_HAL_Driver/Src/stm32g4xx_hal_rcc.c ****   RCC->CFGR = 0x00000001u;
 244:Drivers/STM32G4xx_HAL_Driver/Src/stm32g4xx_hal_rcc.c **** 
 245:Drivers/STM32G4xx_HAL_Driver/Src/stm32g4xx_hal_rcc.c ****   /* Wait till HSI is ready */
 246:Drivers/STM32G4xx_HAL_Driver/Src/stm32g4xx_hal_rcc.c ****   while (READ_BIT(RCC->CFGR, RCC_CFGR_SWS) != RCC_CFGR_SWS_HSI)
 247:Drivers/STM32G4xx_HAL_Driver/Src/stm32g4xx_hal_rcc.c ****   {
 248:Drivers/STM32G4xx_HAL_Driver/Src/stm32g4xx_hal_rcc.c ****     if ((HAL_GetTick() - tickstart) > CLOCKSWITCH_TIMEOUT_VALUE)
 249:Drivers/STM32G4xx_HAL_Driver/Src/stm32g4xx_hal_rcc.c ****     {
 250:Drivers/STM32G4xx_HAL_Driver/Src/stm32g4xx_hal_rcc.c ****       return HAL_TIMEOUT;
 251:Drivers/STM32G4xx_HAL_Driver/Src/stm32g4xx_hal_rcc.c ****     }
 252:Drivers/STM32G4xx_HAL_Driver/Src/stm32g4xx_hal_rcc.c ****   }
 253:Drivers/STM32G4xx_HAL_Driver/Src/stm32g4xx_hal_rcc.c **** 
 254:Drivers/STM32G4xx_HAL_Driver/Src/stm32g4xx_hal_rcc.c ****   /* Update the SystemCoreClock global variable */
 255:Drivers/STM32G4xx_HAL_Driver/Src/stm32g4xx_hal_rcc.c ****   SystemCoreClock = HSI_VALUE;
 256:Drivers/STM32G4xx_HAL_Driver/Src/stm32g4xx_hal_rcc.c **** 
 257:Drivers/STM32G4xx_HAL_Driver/Src/stm32g4xx_hal_rcc.c ****   /* Adapt Systick interrupt period */
 258:Drivers/STM32G4xx_HAL_Driver/Src/stm32g4xx_hal_rcc.c ****   if (HAL_InitTick(uwTickPrio) != HAL_OK)
 259:Drivers/STM32G4xx_HAL_Driver/Src/stm32g4xx_hal_rcc.c ****   {
ARM GAS  /tmp/ccz2x4IP.s 			page 6


 260:Drivers/STM32G4xx_HAL_Driver/Src/stm32g4xx_hal_rcc.c ****     return HAL_ERROR;
 261:Drivers/STM32G4xx_HAL_Driver/Src/stm32g4xx_hal_rcc.c ****   }
 262:Drivers/STM32G4xx_HAL_Driver/Src/stm32g4xx_hal_rcc.c **** 
 263:Drivers/STM32G4xx_HAL_Driver/Src/stm32g4xx_hal_rcc.c ****   /* Clear CR register in 2 steps: first to clear HSEON in case bypass was enabled */
 264:Drivers/STM32G4xx_HAL_Driver/Src/stm32g4xx_hal_rcc.c ****   RCC->CR = RCC_CR_HSION;
 265:Drivers/STM32G4xx_HAL_Driver/Src/stm32g4xx_hal_rcc.c **** 
 266:Drivers/STM32G4xx_HAL_Driver/Src/stm32g4xx_hal_rcc.c ****   /* Then again to HSEBYP in case bypass was enabled */
 267:Drivers/STM32G4xx_HAL_Driver/Src/stm32g4xx_hal_rcc.c ****   RCC->CR = RCC_CR_HSION;
 268:Drivers/STM32G4xx_HAL_Driver/Src/stm32g4xx_hal_rcc.c **** 
 269:Drivers/STM32G4xx_HAL_Driver/Src/stm32g4xx_hal_rcc.c ****   /* Get Start Tick*/
 270:Drivers/STM32G4xx_HAL_Driver/Src/stm32g4xx_hal_rcc.c ****   tickstart = HAL_GetTick();
 271:Drivers/STM32G4xx_HAL_Driver/Src/stm32g4xx_hal_rcc.c **** 
 272:Drivers/STM32G4xx_HAL_Driver/Src/stm32g4xx_hal_rcc.c ****   /* Wait till PLL is OFF */
 273:Drivers/STM32G4xx_HAL_Driver/Src/stm32g4xx_hal_rcc.c ****   while (READ_BIT(RCC->CR, RCC_CR_PLLRDY) != 0U)
 274:Drivers/STM32G4xx_HAL_Driver/Src/stm32g4xx_hal_rcc.c ****   {
 275:Drivers/STM32G4xx_HAL_Driver/Src/stm32g4xx_hal_rcc.c ****     if ((HAL_GetTick() - tickstart) > PLL_TIMEOUT_VALUE)
 276:Drivers/STM32G4xx_HAL_Driver/Src/stm32g4xx_hal_rcc.c ****     {
 277:Drivers/STM32G4xx_HAL_Driver/Src/stm32g4xx_hal_rcc.c ****       return HAL_TIMEOUT;
 278:Drivers/STM32G4xx_HAL_Driver/Src/stm32g4xx_hal_rcc.c ****     }
 279:Drivers/STM32G4xx_HAL_Driver/Src/stm32g4xx_hal_rcc.c ****   }
 280:Drivers/STM32G4xx_HAL_Driver/Src/stm32g4xx_hal_rcc.c **** 
 281:Drivers/STM32G4xx_HAL_Driver/Src/stm32g4xx_hal_rcc.c ****   /* once PLL is OFF, reset PLLCFGR register to default value */
 282:Drivers/STM32G4xx_HAL_Driver/Src/stm32g4xx_hal_rcc.c ****   RCC->PLLCFGR = RCC_PLLCFGR_PLLN_4;
 283:Drivers/STM32G4xx_HAL_Driver/Src/stm32g4xx_hal_rcc.c **** 
 284:Drivers/STM32G4xx_HAL_Driver/Src/stm32g4xx_hal_rcc.c ****   /* Disable all interrupts */
 285:Drivers/STM32G4xx_HAL_Driver/Src/stm32g4xx_hal_rcc.c ****   CLEAR_REG(RCC->CIER);
 286:Drivers/STM32G4xx_HAL_Driver/Src/stm32g4xx_hal_rcc.c **** 
 287:Drivers/STM32G4xx_HAL_Driver/Src/stm32g4xx_hal_rcc.c ****   /* Clear all interrupt flags */
 288:Drivers/STM32G4xx_HAL_Driver/Src/stm32g4xx_hal_rcc.c ****   WRITE_REG(RCC->CICR, 0xFFFFFFFFU);
 289:Drivers/STM32G4xx_HAL_Driver/Src/stm32g4xx_hal_rcc.c **** 
 290:Drivers/STM32G4xx_HAL_Driver/Src/stm32g4xx_hal_rcc.c ****   /* Clear all reset flags */
 291:Drivers/STM32G4xx_HAL_Driver/Src/stm32g4xx_hal_rcc.c ****   SET_BIT(RCC->CSR, RCC_CSR_RMVF);
 292:Drivers/STM32G4xx_HAL_Driver/Src/stm32g4xx_hal_rcc.c **** 
 293:Drivers/STM32G4xx_HAL_Driver/Src/stm32g4xx_hal_rcc.c ****   return HAL_OK;
 294:Drivers/STM32G4xx_HAL_Driver/Src/stm32g4xx_hal_rcc.c **** }
 295:Drivers/STM32G4xx_HAL_Driver/Src/stm32g4xx_hal_rcc.c **** 
 296:Drivers/STM32G4xx_HAL_Driver/Src/stm32g4xx_hal_rcc.c **** /**
 297:Drivers/STM32G4xx_HAL_Driver/Src/stm32g4xx_hal_rcc.c ****   * @brief  Initialize the RCC Oscillators according to the specified parameters in the
 298:Drivers/STM32G4xx_HAL_Driver/Src/stm32g4xx_hal_rcc.c ****   *         RCC_OscInitTypeDef.
 299:Drivers/STM32G4xx_HAL_Driver/Src/stm32g4xx_hal_rcc.c ****   * @param  RCC_OscInitStruct  pointer to an RCC_OscInitTypeDef structure that
 300:Drivers/STM32G4xx_HAL_Driver/Src/stm32g4xx_hal_rcc.c ****   *         contains the configuration information for the RCC Oscillators.
 301:Drivers/STM32G4xx_HAL_Driver/Src/stm32g4xx_hal_rcc.c ****   * @note   The PLL is not disabled when used as system clock.
 302:Drivers/STM32G4xx_HAL_Driver/Src/stm32g4xx_hal_rcc.c ****   * @note   Transitions LSE Bypass to LSE On and LSE On to LSE Bypass are not
 303:Drivers/STM32G4xx_HAL_Driver/Src/stm32g4xx_hal_rcc.c ****   *         supported by this macro. User should request a transition to LSE Off
 304:Drivers/STM32G4xx_HAL_Driver/Src/stm32g4xx_hal_rcc.c ****   *         first and then LSE On or LSE Bypass.
 305:Drivers/STM32G4xx_HAL_Driver/Src/stm32g4xx_hal_rcc.c ****   * @note   Transition HSE Bypass to HSE On and HSE On to HSE Bypass are not
 306:Drivers/STM32G4xx_HAL_Driver/Src/stm32g4xx_hal_rcc.c ****   *         supported by this macro. User should request a transition to HSE Off
 307:Drivers/STM32G4xx_HAL_Driver/Src/stm32g4xx_hal_rcc.c ****   *         first and then HSE On or HSE Bypass.
 308:Drivers/STM32G4xx_HAL_Driver/Src/stm32g4xx_hal_rcc.c ****   * @retval HAL status
 309:Drivers/STM32G4xx_HAL_Driver/Src/stm32g4xx_hal_rcc.c ****   */
 310:Drivers/STM32G4xx_HAL_Driver/Src/stm32g4xx_hal_rcc.c **** HAL_StatusTypeDef HAL_RCC_OscConfig(RCC_OscInitTypeDef  *RCC_OscInitStruct)
 311:Drivers/STM32G4xx_HAL_Driver/Src/stm32g4xx_hal_rcc.c **** {
 312:Drivers/STM32G4xx_HAL_Driver/Src/stm32g4xx_hal_rcc.c ****   uint32_t tickstart;
 313:Drivers/STM32G4xx_HAL_Driver/Src/stm32g4xx_hal_rcc.c ****   uint32_t temp_sysclksrc;
 314:Drivers/STM32G4xx_HAL_Driver/Src/stm32g4xx_hal_rcc.c ****   uint32_t temp_pllckcfg;
 315:Drivers/STM32G4xx_HAL_Driver/Src/stm32g4xx_hal_rcc.c **** 
 316:Drivers/STM32G4xx_HAL_Driver/Src/stm32g4xx_hal_rcc.c ****   /* Check Null pointer */
ARM GAS  /tmp/ccz2x4IP.s 			page 7


 317:Drivers/STM32G4xx_HAL_Driver/Src/stm32g4xx_hal_rcc.c ****   if (RCC_OscInitStruct == NULL)
 318:Drivers/STM32G4xx_HAL_Driver/Src/stm32g4xx_hal_rcc.c ****   {
 319:Drivers/STM32G4xx_HAL_Driver/Src/stm32g4xx_hal_rcc.c ****     return HAL_ERROR;
 320:Drivers/STM32G4xx_HAL_Driver/Src/stm32g4xx_hal_rcc.c ****   }
 321:Drivers/STM32G4xx_HAL_Driver/Src/stm32g4xx_hal_rcc.c **** 
 322:Drivers/STM32G4xx_HAL_Driver/Src/stm32g4xx_hal_rcc.c ****   /* Check the parameters */
 323:Drivers/STM32G4xx_HAL_Driver/Src/stm32g4xx_hal_rcc.c ****   assert_param(IS_RCC_OSCILLATORTYPE(RCC_OscInitStruct->OscillatorType));
 324:Drivers/STM32G4xx_HAL_Driver/Src/stm32g4xx_hal_rcc.c **** 
 325:Drivers/STM32G4xx_HAL_Driver/Src/stm32g4xx_hal_rcc.c ****   /*------------------------------- HSE Configuration ------------------------*/
 326:Drivers/STM32G4xx_HAL_Driver/Src/stm32g4xx_hal_rcc.c ****   if (((RCC_OscInitStruct->OscillatorType) & RCC_OSCILLATORTYPE_HSE) == RCC_OSCILLATORTYPE_HSE)
 327:Drivers/STM32G4xx_HAL_Driver/Src/stm32g4xx_hal_rcc.c ****   {
 328:Drivers/STM32G4xx_HAL_Driver/Src/stm32g4xx_hal_rcc.c ****     /* Check the parameters */
 329:Drivers/STM32G4xx_HAL_Driver/Src/stm32g4xx_hal_rcc.c ****     assert_param(IS_RCC_HSE(RCC_OscInitStruct->HSEState));
 330:Drivers/STM32G4xx_HAL_Driver/Src/stm32g4xx_hal_rcc.c **** 
 331:Drivers/STM32G4xx_HAL_Driver/Src/stm32g4xx_hal_rcc.c ****     temp_sysclksrc = __HAL_RCC_GET_SYSCLK_SOURCE();
 332:Drivers/STM32G4xx_HAL_Driver/Src/stm32g4xx_hal_rcc.c ****     temp_pllckcfg = __HAL_RCC_GET_PLL_OSCSOURCE();
 333:Drivers/STM32G4xx_HAL_Driver/Src/stm32g4xx_hal_rcc.c **** 
 334:Drivers/STM32G4xx_HAL_Driver/Src/stm32g4xx_hal_rcc.c ****     /* When the HSE is used as system clock or clock source for PLL in these cases it is not allowe
 335:Drivers/STM32G4xx_HAL_Driver/Src/stm32g4xx_hal_rcc.c ****     if (((temp_sysclksrc == RCC_CFGR_SWS_PLL) && (temp_pllckcfg == RCC_PLLSOURCE_HSE)) || (temp_sys
 336:Drivers/STM32G4xx_HAL_Driver/Src/stm32g4xx_hal_rcc.c ****     {
 337:Drivers/STM32G4xx_HAL_Driver/Src/stm32g4xx_hal_rcc.c ****       if ((READ_BIT(RCC->CR, RCC_CR_HSERDY) != 0U) && (RCC_OscInitStruct->HSEState == RCC_HSE_OFF))
 338:Drivers/STM32G4xx_HAL_Driver/Src/stm32g4xx_hal_rcc.c ****       {
 339:Drivers/STM32G4xx_HAL_Driver/Src/stm32g4xx_hal_rcc.c ****         return HAL_ERROR;
 340:Drivers/STM32G4xx_HAL_Driver/Src/stm32g4xx_hal_rcc.c ****       }
 341:Drivers/STM32G4xx_HAL_Driver/Src/stm32g4xx_hal_rcc.c ****     }
 342:Drivers/STM32G4xx_HAL_Driver/Src/stm32g4xx_hal_rcc.c ****     else
 343:Drivers/STM32G4xx_HAL_Driver/Src/stm32g4xx_hal_rcc.c ****     {
 344:Drivers/STM32G4xx_HAL_Driver/Src/stm32g4xx_hal_rcc.c ****       /* Set the new HSE configuration ---------------------------------------*/
 345:Drivers/STM32G4xx_HAL_Driver/Src/stm32g4xx_hal_rcc.c ****       __HAL_RCC_HSE_CONFIG(RCC_OscInitStruct->HSEState);
 346:Drivers/STM32G4xx_HAL_Driver/Src/stm32g4xx_hal_rcc.c **** 
 347:Drivers/STM32G4xx_HAL_Driver/Src/stm32g4xx_hal_rcc.c ****       /* Check the HSE State */
 348:Drivers/STM32G4xx_HAL_Driver/Src/stm32g4xx_hal_rcc.c ****       if (RCC_OscInitStruct->HSEState != RCC_HSE_OFF)
 349:Drivers/STM32G4xx_HAL_Driver/Src/stm32g4xx_hal_rcc.c ****       {
 350:Drivers/STM32G4xx_HAL_Driver/Src/stm32g4xx_hal_rcc.c ****         /* Get Start Tick*/
 351:Drivers/STM32G4xx_HAL_Driver/Src/stm32g4xx_hal_rcc.c ****         tickstart = HAL_GetTick();
 352:Drivers/STM32G4xx_HAL_Driver/Src/stm32g4xx_hal_rcc.c **** 
 353:Drivers/STM32G4xx_HAL_Driver/Src/stm32g4xx_hal_rcc.c ****         /* Wait till HSE is ready */
 354:Drivers/STM32G4xx_HAL_Driver/Src/stm32g4xx_hal_rcc.c ****         while (READ_BIT(RCC->CR, RCC_CR_HSERDY) == 0U)
 355:Drivers/STM32G4xx_HAL_Driver/Src/stm32g4xx_hal_rcc.c ****         {
 356:Drivers/STM32G4xx_HAL_Driver/Src/stm32g4xx_hal_rcc.c ****           if ((HAL_GetTick() - tickstart) > HSE_TIMEOUT_VALUE)
 357:Drivers/STM32G4xx_HAL_Driver/Src/stm32g4xx_hal_rcc.c ****           {
 358:Drivers/STM32G4xx_HAL_Driver/Src/stm32g4xx_hal_rcc.c ****             return HAL_TIMEOUT;
 359:Drivers/STM32G4xx_HAL_Driver/Src/stm32g4xx_hal_rcc.c ****           }
 360:Drivers/STM32G4xx_HAL_Driver/Src/stm32g4xx_hal_rcc.c ****         }
 361:Drivers/STM32G4xx_HAL_Driver/Src/stm32g4xx_hal_rcc.c ****       }
 362:Drivers/STM32G4xx_HAL_Driver/Src/stm32g4xx_hal_rcc.c ****       else
 363:Drivers/STM32G4xx_HAL_Driver/Src/stm32g4xx_hal_rcc.c ****       {
 364:Drivers/STM32G4xx_HAL_Driver/Src/stm32g4xx_hal_rcc.c ****         /* Get Start Tick*/
 365:Drivers/STM32G4xx_HAL_Driver/Src/stm32g4xx_hal_rcc.c ****         tickstart = HAL_GetTick();
 366:Drivers/STM32G4xx_HAL_Driver/Src/stm32g4xx_hal_rcc.c **** 
 367:Drivers/STM32G4xx_HAL_Driver/Src/stm32g4xx_hal_rcc.c ****         /* Wait till HSE is disabled */
 368:Drivers/STM32G4xx_HAL_Driver/Src/stm32g4xx_hal_rcc.c ****         while (READ_BIT(RCC->CR, RCC_CR_HSERDY) != 0U)
 369:Drivers/STM32G4xx_HAL_Driver/Src/stm32g4xx_hal_rcc.c ****         {
 370:Drivers/STM32G4xx_HAL_Driver/Src/stm32g4xx_hal_rcc.c ****           if ((HAL_GetTick() - tickstart) > HSE_TIMEOUT_VALUE)
 371:Drivers/STM32G4xx_HAL_Driver/Src/stm32g4xx_hal_rcc.c ****           {
 372:Drivers/STM32G4xx_HAL_Driver/Src/stm32g4xx_hal_rcc.c ****             return HAL_TIMEOUT;
 373:Drivers/STM32G4xx_HAL_Driver/Src/stm32g4xx_hal_rcc.c ****           }
ARM GAS  /tmp/ccz2x4IP.s 			page 8


 374:Drivers/STM32G4xx_HAL_Driver/Src/stm32g4xx_hal_rcc.c ****         }
 375:Drivers/STM32G4xx_HAL_Driver/Src/stm32g4xx_hal_rcc.c ****       }
 376:Drivers/STM32G4xx_HAL_Driver/Src/stm32g4xx_hal_rcc.c ****     }
 377:Drivers/STM32G4xx_HAL_Driver/Src/stm32g4xx_hal_rcc.c ****   }
 378:Drivers/STM32G4xx_HAL_Driver/Src/stm32g4xx_hal_rcc.c ****   /*----------------------------- HSI Configuration --------------------------*/
 379:Drivers/STM32G4xx_HAL_Driver/Src/stm32g4xx_hal_rcc.c ****   if (((RCC_OscInitStruct->OscillatorType) & RCC_OSCILLATORTYPE_HSI) == RCC_OSCILLATORTYPE_HSI)
 380:Drivers/STM32G4xx_HAL_Driver/Src/stm32g4xx_hal_rcc.c ****   {
 381:Drivers/STM32G4xx_HAL_Driver/Src/stm32g4xx_hal_rcc.c ****     /* Check the parameters */
 382:Drivers/STM32G4xx_HAL_Driver/Src/stm32g4xx_hal_rcc.c ****     assert_param(IS_RCC_HSI(RCC_OscInitStruct->HSIState));
 383:Drivers/STM32G4xx_HAL_Driver/Src/stm32g4xx_hal_rcc.c ****     assert_param(IS_RCC_HSI_CALIBRATION_VALUE(RCC_OscInitStruct->HSICalibrationValue));
 384:Drivers/STM32G4xx_HAL_Driver/Src/stm32g4xx_hal_rcc.c **** 
 385:Drivers/STM32G4xx_HAL_Driver/Src/stm32g4xx_hal_rcc.c ****     /* Check if HSI is used as system clock or as PLL source when PLL is selected as system clock *
 386:Drivers/STM32G4xx_HAL_Driver/Src/stm32g4xx_hal_rcc.c ****     temp_sysclksrc = __HAL_RCC_GET_SYSCLK_SOURCE();
 387:Drivers/STM32G4xx_HAL_Driver/Src/stm32g4xx_hal_rcc.c ****     temp_pllckcfg = __HAL_RCC_GET_PLL_OSCSOURCE();
 388:Drivers/STM32G4xx_HAL_Driver/Src/stm32g4xx_hal_rcc.c ****     if (((temp_sysclksrc == RCC_CFGR_SWS_PLL) && (temp_pllckcfg == RCC_PLLSOURCE_HSI)) || (temp_sys
 389:Drivers/STM32G4xx_HAL_Driver/Src/stm32g4xx_hal_rcc.c ****     {
 390:Drivers/STM32G4xx_HAL_Driver/Src/stm32g4xx_hal_rcc.c ****       /* When HSI is used as system clock it will not be disabled */
 391:Drivers/STM32G4xx_HAL_Driver/Src/stm32g4xx_hal_rcc.c ****       if ((READ_BIT(RCC->CR, RCC_CR_HSIRDY) != 0U) && (RCC_OscInitStruct->HSIState == RCC_HSI_OFF))
 392:Drivers/STM32G4xx_HAL_Driver/Src/stm32g4xx_hal_rcc.c ****       {
 393:Drivers/STM32G4xx_HAL_Driver/Src/stm32g4xx_hal_rcc.c ****         return HAL_ERROR;
 394:Drivers/STM32G4xx_HAL_Driver/Src/stm32g4xx_hal_rcc.c ****       }
 395:Drivers/STM32G4xx_HAL_Driver/Src/stm32g4xx_hal_rcc.c ****       /* Otherwise, just the calibration is allowed */
 396:Drivers/STM32G4xx_HAL_Driver/Src/stm32g4xx_hal_rcc.c ****       else
 397:Drivers/STM32G4xx_HAL_Driver/Src/stm32g4xx_hal_rcc.c ****       {
 398:Drivers/STM32G4xx_HAL_Driver/Src/stm32g4xx_hal_rcc.c ****         /* Adjusts the Internal High Speed oscillator (HSI) calibration value.*/
 399:Drivers/STM32G4xx_HAL_Driver/Src/stm32g4xx_hal_rcc.c ****         __HAL_RCC_HSI_CALIBRATIONVALUE_ADJUST(RCC_OscInitStruct->HSICalibrationValue);
 400:Drivers/STM32G4xx_HAL_Driver/Src/stm32g4xx_hal_rcc.c **** 
 401:Drivers/STM32G4xx_HAL_Driver/Src/stm32g4xx_hal_rcc.c ****         /* Adapt Systick interrupt period */
 402:Drivers/STM32G4xx_HAL_Driver/Src/stm32g4xx_hal_rcc.c ****         if (HAL_InitTick(uwTickPrio) != HAL_OK)
 403:Drivers/STM32G4xx_HAL_Driver/Src/stm32g4xx_hal_rcc.c ****         {
 404:Drivers/STM32G4xx_HAL_Driver/Src/stm32g4xx_hal_rcc.c ****           return HAL_ERROR;
 405:Drivers/STM32G4xx_HAL_Driver/Src/stm32g4xx_hal_rcc.c ****         }
 406:Drivers/STM32G4xx_HAL_Driver/Src/stm32g4xx_hal_rcc.c ****       }
 407:Drivers/STM32G4xx_HAL_Driver/Src/stm32g4xx_hal_rcc.c ****     }
 408:Drivers/STM32G4xx_HAL_Driver/Src/stm32g4xx_hal_rcc.c ****     else
 409:Drivers/STM32G4xx_HAL_Driver/Src/stm32g4xx_hal_rcc.c ****     {
 410:Drivers/STM32G4xx_HAL_Driver/Src/stm32g4xx_hal_rcc.c ****       /* Check the HSI State */
 411:Drivers/STM32G4xx_HAL_Driver/Src/stm32g4xx_hal_rcc.c ****       if (RCC_OscInitStruct->HSIState != RCC_HSI_OFF)
 412:Drivers/STM32G4xx_HAL_Driver/Src/stm32g4xx_hal_rcc.c ****       {
 413:Drivers/STM32G4xx_HAL_Driver/Src/stm32g4xx_hal_rcc.c ****         /* Enable the Internal High Speed oscillator (HSI). */
 414:Drivers/STM32G4xx_HAL_Driver/Src/stm32g4xx_hal_rcc.c ****         __HAL_RCC_HSI_ENABLE();
 415:Drivers/STM32G4xx_HAL_Driver/Src/stm32g4xx_hal_rcc.c **** 
 416:Drivers/STM32G4xx_HAL_Driver/Src/stm32g4xx_hal_rcc.c ****         /* Get Start Tick*/
 417:Drivers/STM32G4xx_HAL_Driver/Src/stm32g4xx_hal_rcc.c ****         tickstart = HAL_GetTick();
 418:Drivers/STM32G4xx_HAL_Driver/Src/stm32g4xx_hal_rcc.c **** 
 419:Drivers/STM32G4xx_HAL_Driver/Src/stm32g4xx_hal_rcc.c ****         /* Wait till HSI is ready */
 420:Drivers/STM32G4xx_HAL_Driver/Src/stm32g4xx_hal_rcc.c ****         while (READ_BIT(RCC->CR, RCC_CR_HSIRDY) == 0U)
 421:Drivers/STM32G4xx_HAL_Driver/Src/stm32g4xx_hal_rcc.c ****         {
 422:Drivers/STM32G4xx_HAL_Driver/Src/stm32g4xx_hal_rcc.c ****           if ((HAL_GetTick() - tickstart) > HSI_TIMEOUT_VALUE)
 423:Drivers/STM32G4xx_HAL_Driver/Src/stm32g4xx_hal_rcc.c ****           {
 424:Drivers/STM32G4xx_HAL_Driver/Src/stm32g4xx_hal_rcc.c ****             return HAL_TIMEOUT;
 425:Drivers/STM32G4xx_HAL_Driver/Src/stm32g4xx_hal_rcc.c ****           }
 426:Drivers/STM32G4xx_HAL_Driver/Src/stm32g4xx_hal_rcc.c ****         }
 427:Drivers/STM32G4xx_HAL_Driver/Src/stm32g4xx_hal_rcc.c **** 
 428:Drivers/STM32G4xx_HAL_Driver/Src/stm32g4xx_hal_rcc.c ****         /* Adjusts the Internal High Speed oscillator (HSI) calibration value.*/
 429:Drivers/STM32G4xx_HAL_Driver/Src/stm32g4xx_hal_rcc.c ****         __HAL_RCC_HSI_CALIBRATIONVALUE_ADJUST(RCC_OscInitStruct->HSICalibrationValue);
 430:Drivers/STM32G4xx_HAL_Driver/Src/stm32g4xx_hal_rcc.c ****       }
ARM GAS  /tmp/ccz2x4IP.s 			page 9


 431:Drivers/STM32G4xx_HAL_Driver/Src/stm32g4xx_hal_rcc.c ****       else
 432:Drivers/STM32G4xx_HAL_Driver/Src/stm32g4xx_hal_rcc.c ****       {
 433:Drivers/STM32G4xx_HAL_Driver/Src/stm32g4xx_hal_rcc.c ****         /* Disable the Internal High Speed oscillator (HSI). */
 434:Drivers/STM32G4xx_HAL_Driver/Src/stm32g4xx_hal_rcc.c ****         __HAL_RCC_HSI_DISABLE();
 435:Drivers/STM32G4xx_HAL_Driver/Src/stm32g4xx_hal_rcc.c **** 
 436:Drivers/STM32G4xx_HAL_Driver/Src/stm32g4xx_hal_rcc.c ****         /* Get Start Tick*/
 437:Drivers/STM32G4xx_HAL_Driver/Src/stm32g4xx_hal_rcc.c ****         tickstart = HAL_GetTick();
 438:Drivers/STM32G4xx_HAL_Driver/Src/stm32g4xx_hal_rcc.c **** 
 439:Drivers/STM32G4xx_HAL_Driver/Src/stm32g4xx_hal_rcc.c ****         /* Wait till HSI is disabled */
 440:Drivers/STM32G4xx_HAL_Driver/Src/stm32g4xx_hal_rcc.c ****         while (READ_BIT(RCC->CR, RCC_CR_HSIRDY) != 0U)
 441:Drivers/STM32G4xx_HAL_Driver/Src/stm32g4xx_hal_rcc.c ****         {
 442:Drivers/STM32G4xx_HAL_Driver/Src/stm32g4xx_hal_rcc.c ****           if ((HAL_GetTick() - tickstart) > HSI_TIMEOUT_VALUE)
 443:Drivers/STM32G4xx_HAL_Driver/Src/stm32g4xx_hal_rcc.c ****           {
 444:Drivers/STM32G4xx_HAL_Driver/Src/stm32g4xx_hal_rcc.c ****             return HAL_TIMEOUT;
 445:Drivers/STM32G4xx_HAL_Driver/Src/stm32g4xx_hal_rcc.c ****           }
 446:Drivers/STM32G4xx_HAL_Driver/Src/stm32g4xx_hal_rcc.c ****         }
 447:Drivers/STM32G4xx_HAL_Driver/Src/stm32g4xx_hal_rcc.c ****       }
 448:Drivers/STM32G4xx_HAL_Driver/Src/stm32g4xx_hal_rcc.c ****     }
 449:Drivers/STM32G4xx_HAL_Driver/Src/stm32g4xx_hal_rcc.c ****   }
 450:Drivers/STM32G4xx_HAL_Driver/Src/stm32g4xx_hal_rcc.c ****   /*------------------------------ LSI Configuration -------------------------*/
 451:Drivers/STM32G4xx_HAL_Driver/Src/stm32g4xx_hal_rcc.c ****   if (((RCC_OscInitStruct->OscillatorType) & RCC_OSCILLATORTYPE_LSI) == RCC_OSCILLATORTYPE_LSI)
 452:Drivers/STM32G4xx_HAL_Driver/Src/stm32g4xx_hal_rcc.c ****   {
 453:Drivers/STM32G4xx_HAL_Driver/Src/stm32g4xx_hal_rcc.c ****     /* Check the parameters */
 454:Drivers/STM32G4xx_HAL_Driver/Src/stm32g4xx_hal_rcc.c ****     assert_param(IS_RCC_LSI(RCC_OscInitStruct->LSIState));
 455:Drivers/STM32G4xx_HAL_Driver/Src/stm32g4xx_hal_rcc.c **** 
 456:Drivers/STM32G4xx_HAL_Driver/Src/stm32g4xx_hal_rcc.c ****     /* Check the LSI State */
 457:Drivers/STM32G4xx_HAL_Driver/Src/stm32g4xx_hal_rcc.c ****     if(RCC_OscInitStruct->LSIState != RCC_LSI_OFF)
 458:Drivers/STM32G4xx_HAL_Driver/Src/stm32g4xx_hal_rcc.c ****     {
 459:Drivers/STM32G4xx_HAL_Driver/Src/stm32g4xx_hal_rcc.c ****       /* Enable the Internal Low Speed oscillator (LSI). */
 460:Drivers/STM32G4xx_HAL_Driver/Src/stm32g4xx_hal_rcc.c ****       __HAL_RCC_LSI_ENABLE();
 461:Drivers/STM32G4xx_HAL_Driver/Src/stm32g4xx_hal_rcc.c **** 
 462:Drivers/STM32G4xx_HAL_Driver/Src/stm32g4xx_hal_rcc.c ****       /* Get Start Tick*/
 463:Drivers/STM32G4xx_HAL_Driver/Src/stm32g4xx_hal_rcc.c ****       tickstart = HAL_GetTick();
 464:Drivers/STM32G4xx_HAL_Driver/Src/stm32g4xx_hal_rcc.c **** 
 465:Drivers/STM32G4xx_HAL_Driver/Src/stm32g4xx_hal_rcc.c ****       /* Wait till LSI is ready */
 466:Drivers/STM32G4xx_HAL_Driver/Src/stm32g4xx_hal_rcc.c ****       while (READ_BIT(RCC->CSR, RCC_CSR_LSIRDY) == 0U)
 467:Drivers/STM32G4xx_HAL_Driver/Src/stm32g4xx_hal_rcc.c ****       {
 468:Drivers/STM32G4xx_HAL_Driver/Src/stm32g4xx_hal_rcc.c ****         if ((HAL_GetTick() - tickstart) > LSI_TIMEOUT_VALUE)
 469:Drivers/STM32G4xx_HAL_Driver/Src/stm32g4xx_hal_rcc.c ****         {
 470:Drivers/STM32G4xx_HAL_Driver/Src/stm32g4xx_hal_rcc.c ****           return HAL_TIMEOUT;
 471:Drivers/STM32G4xx_HAL_Driver/Src/stm32g4xx_hal_rcc.c ****         }
 472:Drivers/STM32G4xx_HAL_Driver/Src/stm32g4xx_hal_rcc.c ****       }
 473:Drivers/STM32G4xx_HAL_Driver/Src/stm32g4xx_hal_rcc.c ****     }
 474:Drivers/STM32G4xx_HAL_Driver/Src/stm32g4xx_hal_rcc.c ****     else
 475:Drivers/STM32G4xx_HAL_Driver/Src/stm32g4xx_hal_rcc.c ****     {
 476:Drivers/STM32G4xx_HAL_Driver/Src/stm32g4xx_hal_rcc.c ****       /* Disable the Internal Low Speed oscillator (LSI). */
 477:Drivers/STM32G4xx_HAL_Driver/Src/stm32g4xx_hal_rcc.c ****       __HAL_RCC_LSI_DISABLE();
 478:Drivers/STM32G4xx_HAL_Driver/Src/stm32g4xx_hal_rcc.c **** 
 479:Drivers/STM32G4xx_HAL_Driver/Src/stm32g4xx_hal_rcc.c ****       /* Get Start Tick*/
 480:Drivers/STM32G4xx_HAL_Driver/Src/stm32g4xx_hal_rcc.c ****       tickstart = HAL_GetTick();
 481:Drivers/STM32G4xx_HAL_Driver/Src/stm32g4xx_hal_rcc.c **** 
 482:Drivers/STM32G4xx_HAL_Driver/Src/stm32g4xx_hal_rcc.c ****       /* Wait till LSI is disabled */
 483:Drivers/STM32G4xx_HAL_Driver/Src/stm32g4xx_hal_rcc.c ****       while(READ_BIT(RCC->CSR, RCC_CSR_LSIRDY) != 0U)
 484:Drivers/STM32G4xx_HAL_Driver/Src/stm32g4xx_hal_rcc.c ****       {
 485:Drivers/STM32G4xx_HAL_Driver/Src/stm32g4xx_hal_rcc.c ****         if((HAL_GetTick() - tickstart) > LSI_TIMEOUT_VALUE)
 486:Drivers/STM32G4xx_HAL_Driver/Src/stm32g4xx_hal_rcc.c ****         {
 487:Drivers/STM32G4xx_HAL_Driver/Src/stm32g4xx_hal_rcc.c ****           return HAL_TIMEOUT;
ARM GAS  /tmp/ccz2x4IP.s 			page 10


 488:Drivers/STM32G4xx_HAL_Driver/Src/stm32g4xx_hal_rcc.c ****         }
 489:Drivers/STM32G4xx_HAL_Driver/Src/stm32g4xx_hal_rcc.c ****       }
 490:Drivers/STM32G4xx_HAL_Driver/Src/stm32g4xx_hal_rcc.c ****     }
 491:Drivers/STM32G4xx_HAL_Driver/Src/stm32g4xx_hal_rcc.c ****   }
 492:Drivers/STM32G4xx_HAL_Driver/Src/stm32g4xx_hal_rcc.c ****   /*------------------------------ LSE Configuration -------------------------*/
 493:Drivers/STM32G4xx_HAL_Driver/Src/stm32g4xx_hal_rcc.c ****   if (((RCC_OscInitStruct->OscillatorType) & RCC_OSCILLATORTYPE_LSE) == RCC_OSCILLATORTYPE_LSE)
 494:Drivers/STM32G4xx_HAL_Driver/Src/stm32g4xx_hal_rcc.c ****   {
 495:Drivers/STM32G4xx_HAL_Driver/Src/stm32g4xx_hal_rcc.c ****     FlagStatus       pwrclkchanged = RESET;
 496:Drivers/STM32G4xx_HAL_Driver/Src/stm32g4xx_hal_rcc.c **** 
 497:Drivers/STM32G4xx_HAL_Driver/Src/stm32g4xx_hal_rcc.c ****     /* Check the parameters */
 498:Drivers/STM32G4xx_HAL_Driver/Src/stm32g4xx_hal_rcc.c ****     assert_param(IS_RCC_LSE(RCC_OscInitStruct->LSEState));
 499:Drivers/STM32G4xx_HAL_Driver/Src/stm32g4xx_hal_rcc.c **** 
 500:Drivers/STM32G4xx_HAL_Driver/Src/stm32g4xx_hal_rcc.c ****     /* Update LSE configuration in Backup Domain control register    */
 501:Drivers/STM32G4xx_HAL_Driver/Src/stm32g4xx_hal_rcc.c ****     /* Requires to enable write access to Backup Domain if necessary */
 502:Drivers/STM32G4xx_HAL_Driver/Src/stm32g4xx_hal_rcc.c ****     if (__HAL_RCC_PWR_IS_CLK_DISABLED() != 0U)
 503:Drivers/STM32G4xx_HAL_Driver/Src/stm32g4xx_hal_rcc.c ****     {
 504:Drivers/STM32G4xx_HAL_Driver/Src/stm32g4xx_hal_rcc.c ****       __HAL_RCC_PWR_CLK_ENABLE();
 505:Drivers/STM32G4xx_HAL_Driver/Src/stm32g4xx_hal_rcc.c ****       pwrclkchanged = SET;
 506:Drivers/STM32G4xx_HAL_Driver/Src/stm32g4xx_hal_rcc.c ****     }
 507:Drivers/STM32G4xx_HAL_Driver/Src/stm32g4xx_hal_rcc.c **** 
 508:Drivers/STM32G4xx_HAL_Driver/Src/stm32g4xx_hal_rcc.c ****     if (HAL_IS_BIT_CLR(PWR->CR1, PWR_CR1_DBP))
 509:Drivers/STM32G4xx_HAL_Driver/Src/stm32g4xx_hal_rcc.c ****     {
 510:Drivers/STM32G4xx_HAL_Driver/Src/stm32g4xx_hal_rcc.c ****       /* Enable write access to Backup domain */
 511:Drivers/STM32G4xx_HAL_Driver/Src/stm32g4xx_hal_rcc.c ****       SET_BIT(PWR->CR1, PWR_CR1_DBP);
 512:Drivers/STM32G4xx_HAL_Driver/Src/stm32g4xx_hal_rcc.c **** 
 513:Drivers/STM32G4xx_HAL_Driver/Src/stm32g4xx_hal_rcc.c ****       /* Wait for Backup domain Write protection disable */
 514:Drivers/STM32G4xx_HAL_Driver/Src/stm32g4xx_hal_rcc.c ****       tickstart = HAL_GetTick();
 515:Drivers/STM32G4xx_HAL_Driver/Src/stm32g4xx_hal_rcc.c **** 
 516:Drivers/STM32G4xx_HAL_Driver/Src/stm32g4xx_hal_rcc.c ****       while (HAL_IS_BIT_CLR(PWR->CR1, PWR_CR1_DBP))
 517:Drivers/STM32G4xx_HAL_Driver/Src/stm32g4xx_hal_rcc.c ****       {
 518:Drivers/STM32G4xx_HAL_Driver/Src/stm32g4xx_hal_rcc.c ****         if ((HAL_GetTick() - tickstart) > RCC_DBP_TIMEOUT_VALUE)
 519:Drivers/STM32G4xx_HAL_Driver/Src/stm32g4xx_hal_rcc.c ****         {
 520:Drivers/STM32G4xx_HAL_Driver/Src/stm32g4xx_hal_rcc.c ****           return HAL_TIMEOUT;
 521:Drivers/STM32G4xx_HAL_Driver/Src/stm32g4xx_hal_rcc.c ****         }
 522:Drivers/STM32G4xx_HAL_Driver/Src/stm32g4xx_hal_rcc.c ****       }
 523:Drivers/STM32G4xx_HAL_Driver/Src/stm32g4xx_hal_rcc.c ****     }
 524:Drivers/STM32G4xx_HAL_Driver/Src/stm32g4xx_hal_rcc.c **** 
 525:Drivers/STM32G4xx_HAL_Driver/Src/stm32g4xx_hal_rcc.c ****     /* Set the new LSE configuration -----------------------------------------*/
 526:Drivers/STM32G4xx_HAL_Driver/Src/stm32g4xx_hal_rcc.c ****     __HAL_RCC_LSE_CONFIG(RCC_OscInitStruct->LSEState);
 527:Drivers/STM32G4xx_HAL_Driver/Src/stm32g4xx_hal_rcc.c **** 
 528:Drivers/STM32G4xx_HAL_Driver/Src/stm32g4xx_hal_rcc.c ****     /* Check the LSE State */
 529:Drivers/STM32G4xx_HAL_Driver/Src/stm32g4xx_hal_rcc.c ****     if (RCC_OscInitStruct->LSEState != RCC_LSE_OFF)
 530:Drivers/STM32G4xx_HAL_Driver/Src/stm32g4xx_hal_rcc.c ****     {
 531:Drivers/STM32G4xx_HAL_Driver/Src/stm32g4xx_hal_rcc.c ****       /* Get Start Tick*/
 532:Drivers/STM32G4xx_HAL_Driver/Src/stm32g4xx_hal_rcc.c ****       tickstart = HAL_GetTick();
 533:Drivers/STM32G4xx_HAL_Driver/Src/stm32g4xx_hal_rcc.c **** 
 534:Drivers/STM32G4xx_HAL_Driver/Src/stm32g4xx_hal_rcc.c ****       /* Wait till LSE is ready */
 535:Drivers/STM32G4xx_HAL_Driver/Src/stm32g4xx_hal_rcc.c ****       while (READ_BIT(RCC->BDCR, RCC_BDCR_LSERDY) == 0U)
 536:Drivers/STM32G4xx_HAL_Driver/Src/stm32g4xx_hal_rcc.c ****       {
 537:Drivers/STM32G4xx_HAL_Driver/Src/stm32g4xx_hal_rcc.c ****         if((HAL_GetTick() - tickstart) > RCC_LSE_TIMEOUT_VALUE)
 538:Drivers/STM32G4xx_HAL_Driver/Src/stm32g4xx_hal_rcc.c ****         {
 539:Drivers/STM32G4xx_HAL_Driver/Src/stm32g4xx_hal_rcc.c ****           return HAL_TIMEOUT;
 540:Drivers/STM32G4xx_HAL_Driver/Src/stm32g4xx_hal_rcc.c ****         }
 541:Drivers/STM32G4xx_HAL_Driver/Src/stm32g4xx_hal_rcc.c ****       }
 542:Drivers/STM32G4xx_HAL_Driver/Src/stm32g4xx_hal_rcc.c ****     }
 543:Drivers/STM32G4xx_HAL_Driver/Src/stm32g4xx_hal_rcc.c ****     else
 544:Drivers/STM32G4xx_HAL_Driver/Src/stm32g4xx_hal_rcc.c ****     {
ARM GAS  /tmp/ccz2x4IP.s 			page 11


 545:Drivers/STM32G4xx_HAL_Driver/Src/stm32g4xx_hal_rcc.c ****       /* Get Start Tick*/
 546:Drivers/STM32G4xx_HAL_Driver/Src/stm32g4xx_hal_rcc.c ****       tickstart = HAL_GetTick();
 547:Drivers/STM32G4xx_HAL_Driver/Src/stm32g4xx_hal_rcc.c **** 
 548:Drivers/STM32G4xx_HAL_Driver/Src/stm32g4xx_hal_rcc.c ****       /* Wait till LSE is disabled */
 549:Drivers/STM32G4xx_HAL_Driver/Src/stm32g4xx_hal_rcc.c ****       while (READ_BIT(RCC->BDCR, RCC_BDCR_LSERDY) != 0U)
 550:Drivers/STM32G4xx_HAL_Driver/Src/stm32g4xx_hal_rcc.c ****       {
 551:Drivers/STM32G4xx_HAL_Driver/Src/stm32g4xx_hal_rcc.c ****         if((HAL_GetTick() - tickstart) > RCC_LSE_TIMEOUT_VALUE)
 552:Drivers/STM32G4xx_HAL_Driver/Src/stm32g4xx_hal_rcc.c ****         {
 553:Drivers/STM32G4xx_HAL_Driver/Src/stm32g4xx_hal_rcc.c ****           return HAL_TIMEOUT;
 554:Drivers/STM32G4xx_HAL_Driver/Src/stm32g4xx_hal_rcc.c ****         }
 555:Drivers/STM32G4xx_HAL_Driver/Src/stm32g4xx_hal_rcc.c ****       }
 556:Drivers/STM32G4xx_HAL_Driver/Src/stm32g4xx_hal_rcc.c ****     }
 557:Drivers/STM32G4xx_HAL_Driver/Src/stm32g4xx_hal_rcc.c **** 
 558:Drivers/STM32G4xx_HAL_Driver/Src/stm32g4xx_hal_rcc.c ****     /* Restore clock configuration if changed */
 559:Drivers/STM32G4xx_HAL_Driver/Src/stm32g4xx_hal_rcc.c ****     if (pwrclkchanged == SET)
 560:Drivers/STM32G4xx_HAL_Driver/Src/stm32g4xx_hal_rcc.c ****     {
 561:Drivers/STM32G4xx_HAL_Driver/Src/stm32g4xx_hal_rcc.c ****       __HAL_RCC_PWR_CLK_DISABLE();
 562:Drivers/STM32G4xx_HAL_Driver/Src/stm32g4xx_hal_rcc.c ****     }
 563:Drivers/STM32G4xx_HAL_Driver/Src/stm32g4xx_hal_rcc.c ****   }
 564:Drivers/STM32G4xx_HAL_Driver/Src/stm32g4xx_hal_rcc.c **** 
 565:Drivers/STM32G4xx_HAL_Driver/Src/stm32g4xx_hal_rcc.c ****   /*------------------------------ HSI48 Configuration -----------------------*/
 566:Drivers/STM32G4xx_HAL_Driver/Src/stm32g4xx_hal_rcc.c ****   if(((RCC_OscInitStruct->OscillatorType) & RCC_OSCILLATORTYPE_HSI48) == RCC_OSCILLATORTYPE_HSI48)
 567:Drivers/STM32G4xx_HAL_Driver/Src/stm32g4xx_hal_rcc.c ****   {
 568:Drivers/STM32G4xx_HAL_Driver/Src/stm32g4xx_hal_rcc.c ****     /* Check the parameters */
 569:Drivers/STM32G4xx_HAL_Driver/Src/stm32g4xx_hal_rcc.c ****     assert_param(IS_RCC_HSI48(RCC_OscInitStruct->HSI48State));
 570:Drivers/STM32G4xx_HAL_Driver/Src/stm32g4xx_hal_rcc.c **** 
 571:Drivers/STM32G4xx_HAL_Driver/Src/stm32g4xx_hal_rcc.c ****     /* Check the HSI48 State */
 572:Drivers/STM32G4xx_HAL_Driver/Src/stm32g4xx_hal_rcc.c ****     if(RCC_OscInitStruct->HSI48State != RCC_HSI48_OFF)
 573:Drivers/STM32G4xx_HAL_Driver/Src/stm32g4xx_hal_rcc.c ****     {
 574:Drivers/STM32G4xx_HAL_Driver/Src/stm32g4xx_hal_rcc.c ****       /* Enable the Internal Low Speed oscillator (HSI48). */
 575:Drivers/STM32G4xx_HAL_Driver/Src/stm32g4xx_hal_rcc.c ****       __HAL_RCC_HSI48_ENABLE();
 576:Drivers/STM32G4xx_HAL_Driver/Src/stm32g4xx_hal_rcc.c **** 
 577:Drivers/STM32G4xx_HAL_Driver/Src/stm32g4xx_hal_rcc.c ****       /* Get Start Tick*/
 578:Drivers/STM32G4xx_HAL_Driver/Src/stm32g4xx_hal_rcc.c ****       tickstart = HAL_GetTick();
 579:Drivers/STM32G4xx_HAL_Driver/Src/stm32g4xx_hal_rcc.c **** 
 580:Drivers/STM32G4xx_HAL_Driver/Src/stm32g4xx_hal_rcc.c ****       /* Wait till HSI48 is ready */
 581:Drivers/STM32G4xx_HAL_Driver/Src/stm32g4xx_hal_rcc.c ****       while(READ_BIT(RCC->CRRCR, RCC_CRRCR_HSI48RDY) == 0U)
 582:Drivers/STM32G4xx_HAL_Driver/Src/stm32g4xx_hal_rcc.c ****       {
 583:Drivers/STM32G4xx_HAL_Driver/Src/stm32g4xx_hal_rcc.c ****         if((HAL_GetTick() - tickstart) > HSI48_TIMEOUT_VALUE)
 584:Drivers/STM32G4xx_HAL_Driver/Src/stm32g4xx_hal_rcc.c ****         {
 585:Drivers/STM32G4xx_HAL_Driver/Src/stm32g4xx_hal_rcc.c ****           return HAL_TIMEOUT;
 586:Drivers/STM32G4xx_HAL_Driver/Src/stm32g4xx_hal_rcc.c ****         }
 587:Drivers/STM32G4xx_HAL_Driver/Src/stm32g4xx_hal_rcc.c ****       }
 588:Drivers/STM32G4xx_HAL_Driver/Src/stm32g4xx_hal_rcc.c ****     }
 589:Drivers/STM32G4xx_HAL_Driver/Src/stm32g4xx_hal_rcc.c ****     else
 590:Drivers/STM32G4xx_HAL_Driver/Src/stm32g4xx_hal_rcc.c ****     {
 591:Drivers/STM32G4xx_HAL_Driver/Src/stm32g4xx_hal_rcc.c ****       /* Disable the Internal Low Speed oscillator (HSI48). */
 592:Drivers/STM32G4xx_HAL_Driver/Src/stm32g4xx_hal_rcc.c ****       __HAL_RCC_HSI48_DISABLE();
 593:Drivers/STM32G4xx_HAL_Driver/Src/stm32g4xx_hal_rcc.c **** 
 594:Drivers/STM32G4xx_HAL_Driver/Src/stm32g4xx_hal_rcc.c ****       /* Get Start Tick*/
 595:Drivers/STM32G4xx_HAL_Driver/Src/stm32g4xx_hal_rcc.c ****       tickstart = HAL_GetTick();
 596:Drivers/STM32G4xx_HAL_Driver/Src/stm32g4xx_hal_rcc.c **** 
 597:Drivers/STM32G4xx_HAL_Driver/Src/stm32g4xx_hal_rcc.c ****       /* Wait till HSI48 is disabled */
 598:Drivers/STM32G4xx_HAL_Driver/Src/stm32g4xx_hal_rcc.c ****       while(READ_BIT(RCC->CRRCR, RCC_CRRCR_HSI48RDY) != 0U)
 599:Drivers/STM32G4xx_HAL_Driver/Src/stm32g4xx_hal_rcc.c ****       {
 600:Drivers/STM32G4xx_HAL_Driver/Src/stm32g4xx_hal_rcc.c ****         if((HAL_GetTick() - tickstart) > HSI48_TIMEOUT_VALUE)
 601:Drivers/STM32G4xx_HAL_Driver/Src/stm32g4xx_hal_rcc.c ****         {
ARM GAS  /tmp/ccz2x4IP.s 			page 12


 602:Drivers/STM32G4xx_HAL_Driver/Src/stm32g4xx_hal_rcc.c ****           return HAL_TIMEOUT;
 603:Drivers/STM32G4xx_HAL_Driver/Src/stm32g4xx_hal_rcc.c ****         }
 604:Drivers/STM32G4xx_HAL_Driver/Src/stm32g4xx_hal_rcc.c ****       }
 605:Drivers/STM32G4xx_HAL_Driver/Src/stm32g4xx_hal_rcc.c ****     }
 606:Drivers/STM32G4xx_HAL_Driver/Src/stm32g4xx_hal_rcc.c ****   }
 607:Drivers/STM32G4xx_HAL_Driver/Src/stm32g4xx_hal_rcc.c **** 
 608:Drivers/STM32G4xx_HAL_Driver/Src/stm32g4xx_hal_rcc.c ****   /*-------------------------------- PLL Configuration -----------------------*/
 609:Drivers/STM32G4xx_HAL_Driver/Src/stm32g4xx_hal_rcc.c ****   /* Check the parameters */
 610:Drivers/STM32G4xx_HAL_Driver/Src/stm32g4xx_hal_rcc.c ****   assert_param(IS_RCC_PLL(RCC_OscInitStruct->PLL.PLLState));
 611:Drivers/STM32G4xx_HAL_Driver/Src/stm32g4xx_hal_rcc.c **** 
 612:Drivers/STM32G4xx_HAL_Driver/Src/stm32g4xx_hal_rcc.c ****   if (RCC_OscInitStruct->PLL.PLLState != RCC_PLL_NONE)
 613:Drivers/STM32G4xx_HAL_Driver/Src/stm32g4xx_hal_rcc.c ****   {
 614:Drivers/STM32G4xx_HAL_Driver/Src/stm32g4xx_hal_rcc.c ****     /* Check if the PLL is used as system clock or not */
 615:Drivers/STM32G4xx_HAL_Driver/Src/stm32g4xx_hal_rcc.c ****     if (__HAL_RCC_GET_SYSCLK_SOURCE() != RCC_CFGR_SWS_PLL)
 616:Drivers/STM32G4xx_HAL_Driver/Src/stm32g4xx_hal_rcc.c ****     {
 617:Drivers/STM32G4xx_HAL_Driver/Src/stm32g4xx_hal_rcc.c ****       if (RCC_OscInitStruct->PLL.PLLState == RCC_PLL_ON)
 618:Drivers/STM32G4xx_HAL_Driver/Src/stm32g4xx_hal_rcc.c ****       {
 619:Drivers/STM32G4xx_HAL_Driver/Src/stm32g4xx_hal_rcc.c ****         /* Check the parameters */
 620:Drivers/STM32G4xx_HAL_Driver/Src/stm32g4xx_hal_rcc.c ****         assert_param(IS_RCC_PLLSOURCE(RCC_OscInitStruct->PLL.PLLSource));
 621:Drivers/STM32G4xx_HAL_Driver/Src/stm32g4xx_hal_rcc.c ****         assert_param(IS_RCC_PLLM_VALUE(RCC_OscInitStruct->PLL.PLLM));
 622:Drivers/STM32G4xx_HAL_Driver/Src/stm32g4xx_hal_rcc.c ****         assert_param(IS_RCC_PLLN_VALUE(RCC_OscInitStruct->PLL.PLLN));
 623:Drivers/STM32G4xx_HAL_Driver/Src/stm32g4xx_hal_rcc.c ****         assert_param(IS_RCC_PLLP_VALUE(RCC_OscInitStruct->PLL.PLLP));
 624:Drivers/STM32G4xx_HAL_Driver/Src/stm32g4xx_hal_rcc.c ****         assert_param(IS_RCC_PLLQ_VALUE(RCC_OscInitStruct->PLL.PLLQ));
 625:Drivers/STM32G4xx_HAL_Driver/Src/stm32g4xx_hal_rcc.c ****         assert_param(IS_RCC_PLLR_VALUE(RCC_OscInitStruct->PLL.PLLR));
 626:Drivers/STM32G4xx_HAL_Driver/Src/stm32g4xx_hal_rcc.c **** 
 627:Drivers/STM32G4xx_HAL_Driver/Src/stm32g4xx_hal_rcc.c ****         /* Disable the main PLL. */
 628:Drivers/STM32G4xx_HAL_Driver/Src/stm32g4xx_hal_rcc.c ****         __HAL_RCC_PLL_DISABLE();
 629:Drivers/STM32G4xx_HAL_Driver/Src/stm32g4xx_hal_rcc.c **** 
 630:Drivers/STM32G4xx_HAL_Driver/Src/stm32g4xx_hal_rcc.c ****         /* Get Start Tick*/
 631:Drivers/STM32G4xx_HAL_Driver/Src/stm32g4xx_hal_rcc.c ****         tickstart = HAL_GetTick();
 632:Drivers/STM32G4xx_HAL_Driver/Src/stm32g4xx_hal_rcc.c **** 
 633:Drivers/STM32G4xx_HAL_Driver/Src/stm32g4xx_hal_rcc.c ****         /* Wait till PLL is ready */
 634:Drivers/STM32G4xx_HAL_Driver/Src/stm32g4xx_hal_rcc.c ****         while (READ_BIT(RCC->CR, RCC_CR_PLLRDY) != 0U)
 635:Drivers/STM32G4xx_HAL_Driver/Src/stm32g4xx_hal_rcc.c ****         {
 636:Drivers/STM32G4xx_HAL_Driver/Src/stm32g4xx_hal_rcc.c ****           if ((HAL_GetTick() - tickstart) > PLL_TIMEOUT_VALUE)
 637:Drivers/STM32G4xx_HAL_Driver/Src/stm32g4xx_hal_rcc.c ****           {
 638:Drivers/STM32G4xx_HAL_Driver/Src/stm32g4xx_hal_rcc.c ****             return HAL_TIMEOUT;
 639:Drivers/STM32G4xx_HAL_Driver/Src/stm32g4xx_hal_rcc.c ****           }
 640:Drivers/STM32G4xx_HAL_Driver/Src/stm32g4xx_hal_rcc.c ****         }
 641:Drivers/STM32G4xx_HAL_Driver/Src/stm32g4xx_hal_rcc.c **** 
 642:Drivers/STM32G4xx_HAL_Driver/Src/stm32g4xx_hal_rcc.c ****         /* Configure the main PLL clock source, multiplication and division factors. */
 643:Drivers/STM32G4xx_HAL_Driver/Src/stm32g4xx_hal_rcc.c ****         __HAL_RCC_PLL_CONFIG(RCC_OscInitStruct->PLL.PLLSource,
 644:Drivers/STM32G4xx_HAL_Driver/Src/stm32g4xx_hal_rcc.c ****                              RCC_OscInitStruct->PLL.PLLM,
 645:Drivers/STM32G4xx_HAL_Driver/Src/stm32g4xx_hal_rcc.c ****                              RCC_OscInitStruct->PLL.PLLN,
 646:Drivers/STM32G4xx_HAL_Driver/Src/stm32g4xx_hal_rcc.c ****                              RCC_OscInitStruct->PLL.PLLP,
 647:Drivers/STM32G4xx_HAL_Driver/Src/stm32g4xx_hal_rcc.c ****                              RCC_OscInitStruct->PLL.PLLQ,
 648:Drivers/STM32G4xx_HAL_Driver/Src/stm32g4xx_hal_rcc.c ****                              RCC_OscInitStruct->PLL.PLLR);
 649:Drivers/STM32G4xx_HAL_Driver/Src/stm32g4xx_hal_rcc.c **** 
 650:Drivers/STM32G4xx_HAL_Driver/Src/stm32g4xx_hal_rcc.c ****         /* Enable the main PLL. */
 651:Drivers/STM32G4xx_HAL_Driver/Src/stm32g4xx_hal_rcc.c ****         __HAL_RCC_PLL_ENABLE();
 652:Drivers/STM32G4xx_HAL_Driver/Src/stm32g4xx_hal_rcc.c **** 
 653:Drivers/STM32G4xx_HAL_Driver/Src/stm32g4xx_hal_rcc.c ****         /* Enable PLL System Clock output. */
 654:Drivers/STM32G4xx_HAL_Driver/Src/stm32g4xx_hal_rcc.c ****          __HAL_RCC_PLLCLKOUT_ENABLE(RCC_PLL_SYSCLK);
 655:Drivers/STM32G4xx_HAL_Driver/Src/stm32g4xx_hal_rcc.c **** 
 656:Drivers/STM32G4xx_HAL_Driver/Src/stm32g4xx_hal_rcc.c ****         /* Get Start Tick*/
 657:Drivers/STM32G4xx_HAL_Driver/Src/stm32g4xx_hal_rcc.c ****         tickstart = HAL_GetTick();
 658:Drivers/STM32G4xx_HAL_Driver/Src/stm32g4xx_hal_rcc.c **** 
ARM GAS  /tmp/ccz2x4IP.s 			page 13


 659:Drivers/STM32G4xx_HAL_Driver/Src/stm32g4xx_hal_rcc.c ****         /* Wait till PLL is ready */
 660:Drivers/STM32G4xx_HAL_Driver/Src/stm32g4xx_hal_rcc.c ****         while (READ_BIT(RCC->CR, RCC_CR_PLLRDY) == 0U)
 661:Drivers/STM32G4xx_HAL_Driver/Src/stm32g4xx_hal_rcc.c ****         {
 662:Drivers/STM32G4xx_HAL_Driver/Src/stm32g4xx_hal_rcc.c ****           if ((HAL_GetTick() - tickstart) > PLL_TIMEOUT_VALUE)
 663:Drivers/STM32G4xx_HAL_Driver/Src/stm32g4xx_hal_rcc.c ****           {
 664:Drivers/STM32G4xx_HAL_Driver/Src/stm32g4xx_hal_rcc.c ****             return HAL_TIMEOUT;
 665:Drivers/STM32G4xx_HAL_Driver/Src/stm32g4xx_hal_rcc.c ****           }
 666:Drivers/STM32G4xx_HAL_Driver/Src/stm32g4xx_hal_rcc.c ****         }
 667:Drivers/STM32G4xx_HAL_Driver/Src/stm32g4xx_hal_rcc.c ****       }
 668:Drivers/STM32G4xx_HAL_Driver/Src/stm32g4xx_hal_rcc.c ****       else
 669:Drivers/STM32G4xx_HAL_Driver/Src/stm32g4xx_hal_rcc.c ****       {
 670:Drivers/STM32G4xx_HAL_Driver/Src/stm32g4xx_hal_rcc.c ****         /* Disable the main PLL. */
 671:Drivers/STM32G4xx_HAL_Driver/Src/stm32g4xx_hal_rcc.c ****         __HAL_RCC_PLL_DISABLE();
 672:Drivers/STM32G4xx_HAL_Driver/Src/stm32g4xx_hal_rcc.c **** 
 673:Drivers/STM32G4xx_HAL_Driver/Src/stm32g4xx_hal_rcc.c ****         /* Disable all PLL outputs to save power if no PLLs on */
 674:Drivers/STM32G4xx_HAL_Driver/Src/stm32g4xx_hal_rcc.c ****           MODIFY_REG(RCC->PLLCFGR, RCC_PLLCFGR_PLLSRC, RCC_PLLSOURCE_NONE);
 675:Drivers/STM32G4xx_HAL_Driver/Src/stm32g4xx_hal_rcc.c ****         __HAL_RCC_PLLCLKOUT_DISABLE(RCC_PLL_SYSCLK | RCC_PLL_48M1CLK | RCC_PLL_ADCCLK);
 676:Drivers/STM32G4xx_HAL_Driver/Src/stm32g4xx_hal_rcc.c **** 
 677:Drivers/STM32G4xx_HAL_Driver/Src/stm32g4xx_hal_rcc.c ****         /* Get Start Tick*/
 678:Drivers/STM32G4xx_HAL_Driver/Src/stm32g4xx_hal_rcc.c ****         tickstart = HAL_GetTick();
 679:Drivers/STM32G4xx_HAL_Driver/Src/stm32g4xx_hal_rcc.c **** 
 680:Drivers/STM32G4xx_HAL_Driver/Src/stm32g4xx_hal_rcc.c ****         /* Wait till PLL is disabled */
 681:Drivers/STM32G4xx_HAL_Driver/Src/stm32g4xx_hal_rcc.c ****         while (READ_BIT(RCC->CR, RCC_CR_PLLRDY) != 0U)
 682:Drivers/STM32G4xx_HAL_Driver/Src/stm32g4xx_hal_rcc.c ****         {
 683:Drivers/STM32G4xx_HAL_Driver/Src/stm32g4xx_hal_rcc.c ****           if ((HAL_GetTick() - tickstart) > PLL_TIMEOUT_VALUE)
 684:Drivers/STM32G4xx_HAL_Driver/Src/stm32g4xx_hal_rcc.c ****           {
 685:Drivers/STM32G4xx_HAL_Driver/Src/stm32g4xx_hal_rcc.c ****             return HAL_TIMEOUT;
 686:Drivers/STM32G4xx_HAL_Driver/Src/stm32g4xx_hal_rcc.c ****           }
 687:Drivers/STM32G4xx_HAL_Driver/Src/stm32g4xx_hal_rcc.c ****         }
 688:Drivers/STM32G4xx_HAL_Driver/Src/stm32g4xx_hal_rcc.c ****       }
 689:Drivers/STM32G4xx_HAL_Driver/Src/stm32g4xx_hal_rcc.c ****     }
 690:Drivers/STM32G4xx_HAL_Driver/Src/stm32g4xx_hal_rcc.c ****     else
 691:Drivers/STM32G4xx_HAL_Driver/Src/stm32g4xx_hal_rcc.c ****     {
 692:Drivers/STM32G4xx_HAL_Driver/Src/stm32g4xx_hal_rcc.c ****       /* Check if there is a request to disable the PLL used as System clock source */
 693:Drivers/STM32G4xx_HAL_Driver/Src/stm32g4xx_hal_rcc.c ****       if((RCC_OscInitStruct->PLL.PLLState) == RCC_PLL_OFF)
 694:Drivers/STM32G4xx_HAL_Driver/Src/stm32g4xx_hal_rcc.c ****       {
 695:Drivers/STM32G4xx_HAL_Driver/Src/stm32g4xx_hal_rcc.c ****         return HAL_ERROR;
 696:Drivers/STM32G4xx_HAL_Driver/Src/stm32g4xx_hal_rcc.c ****       }
 697:Drivers/STM32G4xx_HAL_Driver/Src/stm32g4xx_hal_rcc.c ****       else
 698:Drivers/STM32G4xx_HAL_Driver/Src/stm32g4xx_hal_rcc.c ****       {
 699:Drivers/STM32G4xx_HAL_Driver/Src/stm32g4xx_hal_rcc.c ****       /* Do not return HAL_ERROR if request repeats the current configuration */
 700:Drivers/STM32G4xx_HAL_Driver/Src/stm32g4xx_hal_rcc.c ****       temp_pllckcfg = RCC->PLLCFGR;
 701:Drivers/STM32G4xx_HAL_Driver/Src/stm32g4xx_hal_rcc.c ****       if((READ_BIT(temp_pllckcfg, RCC_PLLCFGR_PLLSRC) != RCC_OscInitStruct->PLL.PLLSource) ||
 702:Drivers/STM32G4xx_HAL_Driver/Src/stm32g4xx_hal_rcc.c ****          (READ_BIT(temp_pllckcfg, RCC_PLLCFGR_PLLM) != (((RCC_OscInitStruct->PLL.PLLM) - 1U) << RCC
 703:Drivers/STM32G4xx_HAL_Driver/Src/stm32g4xx_hal_rcc.c ****          (READ_BIT(temp_pllckcfg, RCC_PLLCFGR_PLLN) != ((RCC_OscInitStruct->PLL.PLLN) << RCC_PLLCFG
 704:Drivers/STM32G4xx_HAL_Driver/Src/stm32g4xx_hal_rcc.c ****          (READ_BIT(temp_pllckcfg, RCC_PLLCFGR_PLLPDIV) != ((RCC_OscInitStruct->PLL.PLLP) << RCC_PLL
 705:Drivers/STM32G4xx_HAL_Driver/Src/stm32g4xx_hal_rcc.c ****          (READ_BIT(temp_pllckcfg, RCC_PLLCFGR_PLLQ) != ((((RCC_OscInitStruct->PLL.PLLQ) >> 1U) - 1U
 706:Drivers/STM32G4xx_HAL_Driver/Src/stm32g4xx_hal_rcc.c ****          (READ_BIT(temp_pllckcfg, RCC_PLLCFGR_PLLR) != ((((RCC_OscInitStruct->PLL.PLLR) >> 1U) - 1U
 707:Drivers/STM32G4xx_HAL_Driver/Src/stm32g4xx_hal_rcc.c ****       {
 708:Drivers/STM32G4xx_HAL_Driver/Src/stm32g4xx_hal_rcc.c ****         return HAL_ERROR;
 709:Drivers/STM32G4xx_HAL_Driver/Src/stm32g4xx_hal_rcc.c ****       }
 710:Drivers/STM32G4xx_HAL_Driver/Src/stm32g4xx_hal_rcc.c ****     }
 711:Drivers/STM32G4xx_HAL_Driver/Src/stm32g4xx_hal_rcc.c ****   }
 712:Drivers/STM32G4xx_HAL_Driver/Src/stm32g4xx_hal_rcc.c ****   }
 713:Drivers/STM32G4xx_HAL_Driver/Src/stm32g4xx_hal_rcc.c **** 
 714:Drivers/STM32G4xx_HAL_Driver/Src/stm32g4xx_hal_rcc.c ****   return HAL_OK;
 715:Drivers/STM32G4xx_HAL_Driver/Src/stm32g4xx_hal_rcc.c **** }
ARM GAS  /tmp/ccz2x4IP.s 			page 14


 716:Drivers/STM32G4xx_HAL_Driver/Src/stm32g4xx_hal_rcc.c **** 
 717:Drivers/STM32G4xx_HAL_Driver/Src/stm32g4xx_hal_rcc.c **** /**
 718:Drivers/STM32G4xx_HAL_Driver/Src/stm32g4xx_hal_rcc.c ****   * @brief  Initialize the CPU, AHB and APB buses clocks according to the specified
 719:Drivers/STM32G4xx_HAL_Driver/Src/stm32g4xx_hal_rcc.c ****   *         parameters in the RCC_ClkInitStruct.
 720:Drivers/STM32G4xx_HAL_Driver/Src/stm32g4xx_hal_rcc.c ****   * @param  RCC_ClkInitStruct  pointer to an RCC_OscInitTypeDef structure that
 721:Drivers/STM32G4xx_HAL_Driver/Src/stm32g4xx_hal_rcc.c ****   *         contains the configuration information for the RCC peripheral.
 722:Drivers/STM32G4xx_HAL_Driver/Src/stm32g4xx_hal_rcc.c ****   * @param  FLatency  FLASH Latency
 723:Drivers/STM32G4xx_HAL_Driver/Src/stm32g4xx_hal_rcc.c ****   *          This parameter can be one of the following values:
 724:Drivers/STM32G4xx_HAL_Driver/Src/stm32g4xx_hal_rcc.c ****   *            @arg FLASH_LATENCY_0   FLASH 0 Latency cycle
 725:Drivers/STM32G4xx_HAL_Driver/Src/stm32g4xx_hal_rcc.c ****   *            @arg FLASH_LATENCY_1   FLASH 1 Latency cycle
 726:Drivers/STM32G4xx_HAL_Driver/Src/stm32g4xx_hal_rcc.c ****   *            @arg FLASH_LATENCY_2   FLASH 2 Latency cycles
 727:Drivers/STM32G4xx_HAL_Driver/Src/stm32g4xx_hal_rcc.c ****   *            @arg FLASH_LATENCY_3   FLASH 3 Latency cycles
 728:Drivers/STM32G4xx_HAL_Driver/Src/stm32g4xx_hal_rcc.c ****   *            @arg FLASH_LATENCY_4   FLASH 4 Latency cycles
 729:Drivers/STM32G4xx_HAL_Driver/Src/stm32g4xx_hal_rcc.c ****   *            @arg FLASH_LATENCY_5   FLASH 5 Latency cycles
 730:Drivers/STM32G4xx_HAL_Driver/Src/stm32g4xx_hal_rcc.c ****   *            @arg FLASH_LATENCY_6   FLASH 6 Latency cycles
 731:Drivers/STM32G4xx_HAL_Driver/Src/stm32g4xx_hal_rcc.c ****   *            @arg FLASH_LATENCY_7   FLASH 7 Latency cycles
 732:Drivers/STM32G4xx_HAL_Driver/Src/stm32g4xx_hal_rcc.c ****   *            @arg FLASH_LATENCY_8   FLASH 8 Latency cycles
 733:Drivers/STM32G4xx_HAL_Driver/Src/stm32g4xx_hal_rcc.c ****   *            @arg FLASH_LATENCY_9   FLASH 9 Latency cycles
 734:Drivers/STM32G4xx_HAL_Driver/Src/stm32g4xx_hal_rcc.c ****   *            @arg FLASH_LATENCY_10  FLASH 10 Latency cycles
 735:Drivers/STM32G4xx_HAL_Driver/Src/stm32g4xx_hal_rcc.c ****   *            @arg FLASH_LATENCY_11  FLASH 11 Latency cycles
 736:Drivers/STM32G4xx_HAL_Driver/Src/stm32g4xx_hal_rcc.c ****   *            @arg FLASH_LATENCY_12  FLASH 12 Latency cycles
 737:Drivers/STM32G4xx_HAL_Driver/Src/stm32g4xx_hal_rcc.c ****   *            @arg FLASH_LATENCY_13  FLASH 13 Latency cycles
 738:Drivers/STM32G4xx_HAL_Driver/Src/stm32g4xx_hal_rcc.c ****   *            @arg FLASH_LATENCY_14  FLASH 14 Latency cycles
 739:Drivers/STM32G4xx_HAL_Driver/Src/stm32g4xx_hal_rcc.c ****   *            @arg FLASH_LATENCY_15  FLASH 15 Latency cycles
 740:Drivers/STM32G4xx_HAL_Driver/Src/stm32g4xx_hal_rcc.c ****   *
 741:Drivers/STM32G4xx_HAL_Driver/Src/stm32g4xx_hal_rcc.c ****   * @note   The SystemCoreClock CMSIS variable is used to store System Clock Frequency
 742:Drivers/STM32G4xx_HAL_Driver/Src/stm32g4xx_hal_rcc.c ****   *         and updated by HAL_RCC_GetHCLKFreq() function called within this function
 743:Drivers/STM32G4xx_HAL_Driver/Src/stm32g4xx_hal_rcc.c ****   *
 744:Drivers/STM32G4xx_HAL_Driver/Src/stm32g4xx_hal_rcc.c ****   * @note   The HSI is used by default as system clock source after
 745:Drivers/STM32G4xx_HAL_Driver/Src/stm32g4xx_hal_rcc.c ****   *         startup from Reset, wake-up from STANDBY mode. After restart from Reset,
 746:Drivers/STM32G4xx_HAL_Driver/Src/stm32g4xx_hal_rcc.c ****   *         the HSI frequency is set to its default value 16 MHz.
 747:Drivers/STM32G4xx_HAL_Driver/Src/stm32g4xx_hal_rcc.c ****   *
 748:Drivers/STM32G4xx_HAL_Driver/Src/stm32g4xx_hal_rcc.c ****   * @note   The HSI can be selected as system clock source after
 749:Drivers/STM32G4xx_HAL_Driver/Src/stm32g4xx_hal_rcc.c ****   *         from STOP modes or in case of failure of the HSE used directly or indirectly
 750:Drivers/STM32G4xx_HAL_Driver/Src/stm32g4xx_hal_rcc.c ****   *         as system clock (if the Clock Security System CSS is enabled).
 751:Drivers/STM32G4xx_HAL_Driver/Src/stm32g4xx_hal_rcc.c ****   *
 752:Drivers/STM32G4xx_HAL_Driver/Src/stm32g4xx_hal_rcc.c ****   * @note   A switch from one clock source to another occurs only if the target
 753:Drivers/STM32G4xx_HAL_Driver/Src/stm32g4xx_hal_rcc.c ****   *         clock source is ready (clock stable after startup delay or PLL locked).
 754:Drivers/STM32G4xx_HAL_Driver/Src/stm32g4xx_hal_rcc.c ****   *         If a clock source which is not yet ready is selected, the switch will
 755:Drivers/STM32G4xx_HAL_Driver/Src/stm32g4xx_hal_rcc.c ****   *         occur when the clock source is ready.
 756:Drivers/STM32G4xx_HAL_Driver/Src/stm32g4xx_hal_rcc.c ****   *
 757:Drivers/STM32G4xx_HAL_Driver/Src/stm32g4xx_hal_rcc.c ****   * @note   You can use HAL_RCC_GetClockConfig() function to know which clock is
 758:Drivers/STM32G4xx_HAL_Driver/Src/stm32g4xx_hal_rcc.c ****   *         currently used as system clock source.
 759:Drivers/STM32G4xx_HAL_Driver/Src/stm32g4xx_hal_rcc.c ****   *
 760:Drivers/STM32G4xx_HAL_Driver/Src/stm32g4xx_hal_rcc.c ****   * @note   Depending on the device voltage range, the software has to set correctly
 761:Drivers/STM32G4xx_HAL_Driver/Src/stm32g4xx_hal_rcc.c ****   *         HPRE[3:0] bits to ensure that HCLK not exceed the maximum allowed frequency
 762:Drivers/STM32G4xx_HAL_Driver/Src/stm32g4xx_hal_rcc.c ****   *         (for more details refer to section above "Initialization/de-initialization functions")
 763:Drivers/STM32G4xx_HAL_Driver/Src/stm32g4xx_hal_rcc.c ****   * @retval None
 764:Drivers/STM32G4xx_HAL_Driver/Src/stm32g4xx_hal_rcc.c ****   */
 765:Drivers/STM32G4xx_HAL_Driver/Src/stm32g4xx_hal_rcc.c **** HAL_StatusTypeDef HAL_RCC_ClockConfig(RCC_ClkInitTypeDef  *RCC_ClkInitStruct, uint32_t FLatency)
 766:Drivers/STM32G4xx_HAL_Driver/Src/stm32g4xx_hal_rcc.c **** {
 767:Drivers/STM32G4xx_HAL_Driver/Src/stm32g4xx_hal_rcc.c ****   uint32_t tickstart;
 768:Drivers/STM32G4xx_HAL_Driver/Src/stm32g4xx_hal_rcc.c ****   uint32_t pllfreq;
 769:Drivers/STM32G4xx_HAL_Driver/Src/stm32g4xx_hal_rcc.c ****   uint32_t hpre = RCC_SYSCLK_DIV1;
 770:Drivers/STM32G4xx_HAL_Driver/Src/stm32g4xx_hal_rcc.c **** 
 771:Drivers/STM32G4xx_HAL_Driver/Src/stm32g4xx_hal_rcc.c ****   /* Check Null pointer */
 772:Drivers/STM32G4xx_HAL_Driver/Src/stm32g4xx_hal_rcc.c ****   if (RCC_ClkInitStruct == NULL)
ARM GAS  /tmp/ccz2x4IP.s 			page 15


 773:Drivers/STM32G4xx_HAL_Driver/Src/stm32g4xx_hal_rcc.c ****   {
 774:Drivers/STM32G4xx_HAL_Driver/Src/stm32g4xx_hal_rcc.c ****     return HAL_ERROR;
 775:Drivers/STM32G4xx_HAL_Driver/Src/stm32g4xx_hal_rcc.c ****   }
 776:Drivers/STM32G4xx_HAL_Driver/Src/stm32g4xx_hal_rcc.c **** 
 777:Drivers/STM32G4xx_HAL_Driver/Src/stm32g4xx_hal_rcc.c ****   /* Check the parameters */
 778:Drivers/STM32G4xx_HAL_Driver/Src/stm32g4xx_hal_rcc.c ****   assert_param(IS_RCC_CLOCKTYPE(RCC_ClkInitStruct->ClockType));
 779:Drivers/STM32G4xx_HAL_Driver/Src/stm32g4xx_hal_rcc.c ****   assert_param(IS_FLASH_LATENCY(FLatency));
 780:Drivers/STM32G4xx_HAL_Driver/Src/stm32g4xx_hal_rcc.c **** 
 781:Drivers/STM32G4xx_HAL_Driver/Src/stm32g4xx_hal_rcc.c ****   /* To correctly read data from FLASH memory, the number of wait states (LATENCY)
 782:Drivers/STM32G4xx_HAL_Driver/Src/stm32g4xx_hal_rcc.c ****     must be correctly programmed according to the frequency of the CPU clock
 783:Drivers/STM32G4xx_HAL_Driver/Src/stm32g4xx_hal_rcc.c ****     (HCLK) and the supply voltage of the device. */
 784:Drivers/STM32G4xx_HAL_Driver/Src/stm32g4xx_hal_rcc.c **** 
 785:Drivers/STM32G4xx_HAL_Driver/Src/stm32g4xx_hal_rcc.c ****   /* Increasing the number of wait states because of higher CPU frequency */
 786:Drivers/STM32G4xx_HAL_Driver/Src/stm32g4xx_hal_rcc.c ****   if (FLatency > __HAL_FLASH_GET_LATENCY())
 787:Drivers/STM32G4xx_HAL_Driver/Src/stm32g4xx_hal_rcc.c ****   {
 788:Drivers/STM32G4xx_HAL_Driver/Src/stm32g4xx_hal_rcc.c ****     /* Program the new number of wait states to the LATENCY bits in the FLASH_ACR register */
 789:Drivers/STM32G4xx_HAL_Driver/Src/stm32g4xx_hal_rcc.c ****     __HAL_FLASH_SET_LATENCY(FLatency);
 790:Drivers/STM32G4xx_HAL_Driver/Src/stm32g4xx_hal_rcc.c **** 
 791:Drivers/STM32G4xx_HAL_Driver/Src/stm32g4xx_hal_rcc.c ****     /* Check that the new number of wait states is taken into account to access the Flash
 792:Drivers/STM32G4xx_HAL_Driver/Src/stm32g4xx_hal_rcc.c ****     memory by reading the FLASH_ACR register */
 793:Drivers/STM32G4xx_HAL_Driver/Src/stm32g4xx_hal_rcc.c ****     if (__HAL_FLASH_GET_LATENCY() != FLatency)
 794:Drivers/STM32G4xx_HAL_Driver/Src/stm32g4xx_hal_rcc.c ****     {
 795:Drivers/STM32G4xx_HAL_Driver/Src/stm32g4xx_hal_rcc.c ****       return HAL_ERROR;
 796:Drivers/STM32G4xx_HAL_Driver/Src/stm32g4xx_hal_rcc.c ****     }
 797:Drivers/STM32G4xx_HAL_Driver/Src/stm32g4xx_hal_rcc.c ****   }
 798:Drivers/STM32G4xx_HAL_Driver/Src/stm32g4xx_hal_rcc.c **** 
 799:Drivers/STM32G4xx_HAL_Driver/Src/stm32g4xx_hal_rcc.c ****   /*------------------------- SYSCLK Configuration ---------------------------*/
 800:Drivers/STM32G4xx_HAL_Driver/Src/stm32g4xx_hal_rcc.c ****   if(((RCC_ClkInitStruct->ClockType) & RCC_CLOCKTYPE_SYSCLK) == RCC_CLOCKTYPE_SYSCLK)
 801:Drivers/STM32G4xx_HAL_Driver/Src/stm32g4xx_hal_rcc.c ****   {
 802:Drivers/STM32G4xx_HAL_Driver/Src/stm32g4xx_hal_rcc.c ****     assert_param(IS_RCC_SYSCLKSOURCE(RCC_ClkInitStruct->SYSCLKSource));
 803:Drivers/STM32G4xx_HAL_Driver/Src/stm32g4xx_hal_rcc.c **** 
 804:Drivers/STM32G4xx_HAL_Driver/Src/stm32g4xx_hal_rcc.c ****     /* PLL is selected as System Clock Source */
 805:Drivers/STM32G4xx_HAL_Driver/Src/stm32g4xx_hal_rcc.c ****     if (RCC_ClkInitStruct->SYSCLKSource == RCC_SYSCLKSOURCE_PLLCLK)
 806:Drivers/STM32G4xx_HAL_Driver/Src/stm32g4xx_hal_rcc.c ****     {
 807:Drivers/STM32G4xx_HAL_Driver/Src/stm32g4xx_hal_rcc.c ****       /* Check the PLL ready flag */
 808:Drivers/STM32G4xx_HAL_Driver/Src/stm32g4xx_hal_rcc.c ****       if (READ_BIT(RCC->CR, RCC_CR_PLLRDY) == 0U)
 809:Drivers/STM32G4xx_HAL_Driver/Src/stm32g4xx_hal_rcc.c ****       {
 810:Drivers/STM32G4xx_HAL_Driver/Src/stm32g4xx_hal_rcc.c ****         return HAL_ERROR;
 811:Drivers/STM32G4xx_HAL_Driver/Src/stm32g4xx_hal_rcc.c ****       }
 812:Drivers/STM32G4xx_HAL_Driver/Src/stm32g4xx_hal_rcc.c ****       /* Undershoot management when selection PLL as SYSCLK source and frequency above 80Mhz */
 813:Drivers/STM32G4xx_HAL_Driver/Src/stm32g4xx_hal_rcc.c ****       /* Compute target PLL output frequency */
 814:Drivers/STM32G4xx_HAL_Driver/Src/stm32g4xx_hal_rcc.c ****       pllfreq = RCC_GetSysClockFreqFromPLLSource();
 815:Drivers/STM32G4xx_HAL_Driver/Src/stm32g4xx_hal_rcc.c **** 
 816:Drivers/STM32G4xx_HAL_Driver/Src/stm32g4xx_hal_rcc.c ****       /* Intermediate step with HCLK prescaler 2 necessary before to go over 80Mhz */
 817:Drivers/STM32G4xx_HAL_Driver/Src/stm32g4xx_hal_rcc.c ****       if(pllfreq > 80000000U)
 818:Drivers/STM32G4xx_HAL_Driver/Src/stm32g4xx_hal_rcc.c ****       {
 819:Drivers/STM32G4xx_HAL_Driver/Src/stm32g4xx_hal_rcc.c ****         if (((READ_BIT(RCC->CFGR, RCC_CFGR_HPRE) == RCC_SYSCLK_DIV1)) ||
 820:Drivers/STM32G4xx_HAL_Driver/Src/stm32g4xx_hal_rcc.c ****             (((((RCC_ClkInitStruct->ClockType) & RCC_CLOCKTYPE_HCLK) == RCC_CLOCKTYPE_HCLK) &&
 821:Drivers/STM32G4xx_HAL_Driver/Src/stm32g4xx_hal_rcc.c ****               (RCC_ClkInitStruct->AHBCLKDivider == RCC_SYSCLK_DIV1))))
 822:Drivers/STM32G4xx_HAL_Driver/Src/stm32g4xx_hal_rcc.c ****         {
 823:Drivers/STM32G4xx_HAL_Driver/Src/stm32g4xx_hal_rcc.c ****           MODIFY_REG(RCC->CFGR, RCC_CFGR_HPRE, RCC_SYSCLK_DIV2);
 824:Drivers/STM32G4xx_HAL_Driver/Src/stm32g4xx_hal_rcc.c ****           hpre = RCC_SYSCLK_DIV2;
 825:Drivers/STM32G4xx_HAL_Driver/Src/stm32g4xx_hal_rcc.c ****         }
 826:Drivers/STM32G4xx_HAL_Driver/Src/stm32g4xx_hal_rcc.c ****       }
 827:Drivers/STM32G4xx_HAL_Driver/Src/stm32g4xx_hal_rcc.c ****     }
 828:Drivers/STM32G4xx_HAL_Driver/Src/stm32g4xx_hal_rcc.c ****     else
 829:Drivers/STM32G4xx_HAL_Driver/Src/stm32g4xx_hal_rcc.c ****     {
ARM GAS  /tmp/ccz2x4IP.s 			page 16


 830:Drivers/STM32G4xx_HAL_Driver/Src/stm32g4xx_hal_rcc.c ****       /* HSE is selected as System Clock Source */
 831:Drivers/STM32G4xx_HAL_Driver/Src/stm32g4xx_hal_rcc.c ****       if (RCC_ClkInitStruct->SYSCLKSource == RCC_SYSCLKSOURCE_HSE)
 832:Drivers/STM32G4xx_HAL_Driver/Src/stm32g4xx_hal_rcc.c ****       {
 833:Drivers/STM32G4xx_HAL_Driver/Src/stm32g4xx_hal_rcc.c ****         /* Check the HSE ready flag */
 834:Drivers/STM32G4xx_HAL_Driver/Src/stm32g4xx_hal_rcc.c ****         if(READ_BIT(RCC->CR, RCC_CR_HSERDY) == 0U)
 835:Drivers/STM32G4xx_HAL_Driver/Src/stm32g4xx_hal_rcc.c ****         {
 836:Drivers/STM32G4xx_HAL_Driver/Src/stm32g4xx_hal_rcc.c ****           return HAL_ERROR;
 837:Drivers/STM32G4xx_HAL_Driver/Src/stm32g4xx_hal_rcc.c ****         }
 838:Drivers/STM32G4xx_HAL_Driver/Src/stm32g4xx_hal_rcc.c ****       }
 839:Drivers/STM32G4xx_HAL_Driver/Src/stm32g4xx_hal_rcc.c ****       /* HSI is selected as System Clock Source */
 840:Drivers/STM32G4xx_HAL_Driver/Src/stm32g4xx_hal_rcc.c ****       else
 841:Drivers/STM32G4xx_HAL_Driver/Src/stm32g4xx_hal_rcc.c ****       {
 842:Drivers/STM32G4xx_HAL_Driver/Src/stm32g4xx_hal_rcc.c ****         /* Check the HSI ready flag */
 843:Drivers/STM32G4xx_HAL_Driver/Src/stm32g4xx_hal_rcc.c ****         if(READ_BIT(RCC->CR, RCC_CR_HSIRDY) == 0U)
 844:Drivers/STM32G4xx_HAL_Driver/Src/stm32g4xx_hal_rcc.c ****         {
 845:Drivers/STM32G4xx_HAL_Driver/Src/stm32g4xx_hal_rcc.c ****           return HAL_ERROR;
 846:Drivers/STM32G4xx_HAL_Driver/Src/stm32g4xx_hal_rcc.c ****         }
 847:Drivers/STM32G4xx_HAL_Driver/Src/stm32g4xx_hal_rcc.c ****       }
 848:Drivers/STM32G4xx_HAL_Driver/Src/stm32g4xx_hal_rcc.c ****       /* Overshoot management when going down from PLL as SYSCLK source and frequency above 80Mhz *
 849:Drivers/STM32G4xx_HAL_Driver/Src/stm32g4xx_hal_rcc.c ****       pllfreq = HAL_RCC_GetSysClockFreq();
 850:Drivers/STM32G4xx_HAL_Driver/Src/stm32g4xx_hal_rcc.c **** 
 851:Drivers/STM32G4xx_HAL_Driver/Src/stm32g4xx_hal_rcc.c ****       /* Intermediate step with HCLK prescaler 2 necessary before to go under 80Mhz */
 852:Drivers/STM32G4xx_HAL_Driver/Src/stm32g4xx_hal_rcc.c ****       if(pllfreq > 80000000U)
 853:Drivers/STM32G4xx_HAL_Driver/Src/stm32g4xx_hal_rcc.c ****       {
 854:Drivers/STM32G4xx_HAL_Driver/Src/stm32g4xx_hal_rcc.c ****         MODIFY_REG(RCC->CFGR, RCC_CFGR_HPRE, RCC_SYSCLK_DIV2);
 855:Drivers/STM32G4xx_HAL_Driver/Src/stm32g4xx_hal_rcc.c ****         hpre = RCC_SYSCLK_DIV2;
 856:Drivers/STM32G4xx_HAL_Driver/Src/stm32g4xx_hal_rcc.c ****       }
 857:Drivers/STM32G4xx_HAL_Driver/Src/stm32g4xx_hal_rcc.c **** 
 858:Drivers/STM32G4xx_HAL_Driver/Src/stm32g4xx_hal_rcc.c ****     }
 859:Drivers/STM32G4xx_HAL_Driver/Src/stm32g4xx_hal_rcc.c **** 
 860:Drivers/STM32G4xx_HAL_Driver/Src/stm32g4xx_hal_rcc.c ****     MODIFY_REG(RCC->CFGR, RCC_CFGR_SW, RCC_ClkInitStruct->SYSCLKSource);
 861:Drivers/STM32G4xx_HAL_Driver/Src/stm32g4xx_hal_rcc.c **** 
 862:Drivers/STM32G4xx_HAL_Driver/Src/stm32g4xx_hal_rcc.c ****     /* Get Start Tick*/
 863:Drivers/STM32G4xx_HAL_Driver/Src/stm32g4xx_hal_rcc.c ****     tickstart = HAL_GetTick();
 864:Drivers/STM32G4xx_HAL_Driver/Src/stm32g4xx_hal_rcc.c **** 
 865:Drivers/STM32G4xx_HAL_Driver/Src/stm32g4xx_hal_rcc.c ****     while (__HAL_RCC_GET_SYSCLK_SOURCE() != (RCC_ClkInitStruct->SYSCLKSource << RCC_CFGR_SWS_Pos))
 866:Drivers/STM32G4xx_HAL_Driver/Src/stm32g4xx_hal_rcc.c ****     {
 867:Drivers/STM32G4xx_HAL_Driver/Src/stm32g4xx_hal_rcc.c ****       if ((HAL_GetTick() - tickstart) > CLOCKSWITCH_TIMEOUT_VALUE)
 868:Drivers/STM32G4xx_HAL_Driver/Src/stm32g4xx_hal_rcc.c ****       {
 869:Drivers/STM32G4xx_HAL_Driver/Src/stm32g4xx_hal_rcc.c ****         return HAL_TIMEOUT;
 870:Drivers/STM32G4xx_HAL_Driver/Src/stm32g4xx_hal_rcc.c ****       }
 871:Drivers/STM32G4xx_HAL_Driver/Src/stm32g4xx_hal_rcc.c ****     }
 872:Drivers/STM32G4xx_HAL_Driver/Src/stm32g4xx_hal_rcc.c ****   }
 873:Drivers/STM32G4xx_HAL_Driver/Src/stm32g4xx_hal_rcc.c **** 
 874:Drivers/STM32G4xx_HAL_Driver/Src/stm32g4xx_hal_rcc.c ****   /*-------------------------- HCLK Configuration --------------------------*/
 875:Drivers/STM32G4xx_HAL_Driver/Src/stm32g4xx_hal_rcc.c ****   if (((RCC_ClkInitStruct->ClockType) & RCC_CLOCKTYPE_HCLK) == RCC_CLOCKTYPE_HCLK)
 876:Drivers/STM32G4xx_HAL_Driver/Src/stm32g4xx_hal_rcc.c ****   {
 877:Drivers/STM32G4xx_HAL_Driver/Src/stm32g4xx_hal_rcc.c ****     /* Set the highest APB divider in order to ensure that we do not go through
 878:Drivers/STM32G4xx_HAL_Driver/Src/stm32g4xx_hal_rcc.c ****        a non-spec phase whatever we decrease or increase HCLK. */
 879:Drivers/STM32G4xx_HAL_Driver/Src/stm32g4xx_hal_rcc.c ****     if (((RCC_ClkInitStruct->ClockType) & RCC_CLOCKTYPE_PCLK1) == RCC_CLOCKTYPE_PCLK1)
 880:Drivers/STM32G4xx_HAL_Driver/Src/stm32g4xx_hal_rcc.c ****     {
 881:Drivers/STM32G4xx_HAL_Driver/Src/stm32g4xx_hal_rcc.c ****       MODIFY_REG(RCC->CFGR, RCC_CFGR_PPRE1, RCC_HCLK_DIV16);
 882:Drivers/STM32G4xx_HAL_Driver/Src/stm32g4xx_hal_rcc.c ****     }
 883:Drivers/STM32G4xx_HAL_Driver/Src/stm32g4xx_hal_rcc.c ****     if (((RCC_ClkInitStruct->ClockType) & RCC_CLOCKTYPE_PCLK2) == RCC_CLOCKTYPE_PCLK2)
 884:Drivers/STM32G4xx_HAL_Driver/Src/stm32g4xx_hal_rcc.c ****     {
 885:Drivers/STM32G4xx_HAL_Driver/Src/stm32g4xx_hal_rcc.c ****       MODIFY_REG(RCC->CFGR, RCC_CFGR_PPRE2, RCC_HCLK_DIV16);
 886:Drivers/STM32G4xx_HAL_Driver/Src/stm32g4xx_hal_rcc.c ****     }
ARM GAS  /tmp/ccz2x4IP.s 			page 17


 887:Drivers/STM32G4xx_HAL_Driver/Src/stm32g4xx_hal_rcc.c **** 
 888:Drivers/STM32G4xx_HAL_Driver/Src/stm32g4xx_hal_rcc.c ****     /* Set the new HCLK clock divider */
 889:Drivers/STM32G4xx_HAL_Driver/Src/stm32g4xx_hal_rcc.c ****     assert_param(IS_RCC_HCLK(RCC_ClkInitStruct->AHBCLKDivider));
 890:Drivers/STM32G4xx_HAL_Driver/Src/stm32g4xx_hal_rcc.c ****     MODIFY_REG(RCC->CFGR, RCC_CFGR_HPRE, RCC_ClkInitStruct->AHBCLKDivider);
 891:Drivers/STM32G4xx_HAL_Driver/Src/stm32g4xx_hal_rcc.c ****   }
 892:Drivers/STM32G4xx_HAL_Driver/Src/stm32g4xx_hal_rcc.c ****   else
 893:Drivers/STM32G4xx_HAL_Driver/Src/stm32g4xx_hal_rcc.c ****   {
 894:Drivers/STM32G4xx_HAL_Driver/Src/stm32g4xx_hal_rcc.c ****     /* Is intermediate HCLK prescaler 2 applied internally, complete with HCLK prescaler 1 */
 895:Drivers/STM32G4xx_HAL_Driver/Src/stm32g4xx_hal_rcc.c ****     if(hpre == RCC_SYSCLK_DIV2)
 896:Drivers/STM32G4xx_HAL_Driver/Src/stm32g4xx_hal_rcc.c ****     {
 897:Drivers/STM32G4xx_HAL_Driver/Src/stm32g4xx_hal_rcc.c ****       MODIFY_REG(RCC->CFGR, RCC_CFGR_HPRE, RCC_SYSCLK_DIV1);
 898:Drivers/STM32G4xx_HAL_Driver/Src/stm32g4xx_hal_rcc.c ****     }
 899:Drivers/STM32G4xx_HAL_Driver/Src/stm32g4xx_hal_rcc.c ****   }
 900:Drivers/STM32G4xx_HAL_Driver/Src/stm32g4xx_hal_rcc.c **** 
 901:Drivers/STM32G4xx_HAL_Driver/Src/stm32g4xx_hal_rcc.c ****   /* Decreasing the number of wait states because of lower CPU frequency */
 902:Drivers/STM32G4xx_HAL_Driver/Src/stm32g4xx_hal_rcc.c ****   if (FLatency < __HAL_FLASH_GET_LATENCY())
 903:Drivers/STM32G4xx_HAL_Driver/Src/stm32g4xx_hal_rcc.c ****   {
 904:Drivers/STM32G4xx_HAL_Driver/Src/stm32g4xx_hal_rcc.c ****     /* Program the new number of wait states to the LATENCY bits in the FLASH_ACR register */
 905:Drivers/STM32G4xx_HAL_Driver/Src/stm32g4xx_hal_rcc.c ****     __HAL_FLASH_SET_LATENCY(FLatency);
 906:Drivers/STM32G4xx_HAL_Driver/Src/stm32g4xx_hal_rcc.c **** 
 907:Drivers/STM32G4xx_HAL_Driver/Src/stm32g4xx_hal_rcc.c ****     /* Check that the new number of wait states is taken into account to access the Flash
 908:Drivers/STM32G4xx_HAL_Driver/Src/stm32g4xx_hal_rcc.c ****     memory by polling the FLASH_ACR register */
 909:Drivers/STM32G4xx_HAL_Driver/Src/stm32g4xx_hal_rcc.c ****     tickstart = HAL_GetTick();
 910:Drivers/STM32G4xx_HAL_Driver/Src/stm32g4xx_hal_rcc.c **** 
 911:Drivers/STM32G4xx_HAL_Driver/Src/stm32g4xx_hal_rcc.c ****     while (__HAL_FLASH_GET_LATENCY() != FLatency)
 912:Drivers/STM32G4xx_HAL_Driver/Src/stm32g4xx_hal_rcc.c ****     {
 913:Drivers/STM32G4xx_HAL_Driver/Src/stm32g4xx_hal_rcc.c ****       if ((HAL_GetTick() - tickstart) > CLOCKSWITCH_TIMEOUT_VALUE)
 914:Drivers/STM32G4xx_HAL_Driver/Src/stm32g4xx_hal_rcc.c ****       {
 915:Drivers/STM32G4xx_HAL_Driver/Src/stm32g4xx_hal_rcc.c ****         return HAL_TIMEOUT;
 916:Drivers/STM32G4xx_HAL_Driver/Src/stm32g4xx_hal_rcc.c ****       }
 917:Drivers/STM32G4xx_HAL_Driver/Src/stm32g4xx_hal_rcc.c ****     }
 918:Drivers/STM32G4xx_HAL_Driver/Src/stm32g4xx_hal_rcc.c ****   }
 919:Drivers/STM32G4xx_HAL_Driver/Src/stm32g4xx_hal_rcc.c **** 
 920:Drivers/STM32G4xx_HAL_Driver/Src/stm32g4xx_hal_rcc.c ****   /*-------------------------- PCLK1 Configuration ---------------------------*/
 921:Drivers/STM32G4xx_HAL_Driver/Src/stm32g4xx_hal_rcc.c ****   if (((RCC_ClkInitStruct->ClockType) & RCC_CLOCKTYPE_PCLK1) == RCC_CLOCKTYPE_PCLK1)
 922:Drivers/STM32G4xx_HAL_Driver/Src/stm32g4xx_hal_rcc.c ****   {
 923:Drivers/STM32G4xx_HAL_Driver/Src/stm32g4xx_hal_rcc.c ****     assert_param(IS_RCC_PCLK(RCC_ClkInitStruct->APB1CLKDivider));
 924:Drivers/STM32G4xx_HAL_Driver/Src/stm32g4xx_hal_rcc.c ****     MODIFY_REG(RCC->CFGR, RCC_CFGR_PPRE1, RCC_ClkInitStruct->APB1CLKDivider);
 925:Drivers/STM32G4xx_HAL_Driver/Src/stm32g4xx_hal_rcc.c ****   }
 926:Drivers/STM32G4xx_HAL_Driver/Src/stm32g4xx_hal_rcc.c **** 
 927:Drivers/STM32G4xx_HAL_Driver/Src/stm32g4xx_hal_rcc.c ****   /*-------------------------- PCLK2 Configuration ---------------------------*/
 928:Drivers/STM32G4xx_HAL_Driver/Src/stm32g4xx_hal_rcc.c ****   if(((RCC_ClkInitStruct->ClockType) & RCC_CLOCKTYPE_PCLK2) == RCC_CLOCKTYPE_PCLK2)
 929:Drivers/STM32G4xx_HAL_Driver/Src/stm32g4xx_hal_rcc.c ****   {
 930:Drivers/STM32G4xx_HAL_Driver/Src/stm32g4xx_hal_rcc.c ****     assert_param(IS_RCC_PCLK(RCC_ClkInitStruct->APB2CLKDivider));
 931:Drivers/STM32G4xx_HAL_Driver/Src/stm32g4xx_hal_rcc.c ****     MODIFY_REG(RCC->CFGR, RCC_CFGR_PPRE2, ((RCC_ClkInitStruct->APB2CLKDivider) << 3U));
 932:Drivers/STM32G4xx_HAL_Driver/Src/stm32g4xx_hal_rcc.c ****   }
 933:Drivers/STM32G4xx_HAL_Driver/Src/stm32g4xx_hal_rcc.c **** 
 934:Drivers/STM32G4xx_HAL_Driver/Src/stm32g4xx_hal_rcc.c ****   /* Update the SystemCoreClock global variable */
 935:Drivers/STM32G4xx_HAL_Driver/Src/stm32g4xx_hal_rcc.c ****   SystemCoreClock = HAL_RCC_GetSysClockFreq() >> (AHBPrescTable[READ_BIT(RCC->CFGR, RCC_CFGR_HPRE) 
 936:Drivers/STM32G4xx_HAL_Driver/Src/stm32g4xx_hal_rcc.c **** 
 937:Drivers/STM32G4xx_HAL_Driver/Src/stm32g4xx_hal_rcc.c ****   /* Configure the source of time base considering new system clocks settings*/
 938:Drivers/STM32G4xx_HAL_Driver/Src/stm32g4xx_hal_rcc.c ****   return HAL_InitTick(uwTickPrio);
 939:Drivers/STM32G4xx_HAL_Driver/Src/stm32g4xx_hal_rcc.c **** }
 940:Drivers/STM32G4xx_HAL_Driver/Src/stm32g4xx_hal_rcc.c **** 
 941:Drivers/STM32G4xx_HAL_Driver/Src/stm32g4xx_hal_rcc.c **** /**
 942:Drivers/STM32G4xx_HAL_Driver/Src/stm32g4xx_hal_rcc.c ****   * @}
 943:Drivers/STM32G4xx_HAL_Driver/Src/stm32g4xx_hal_rcc.c ****   */
ARM GAS  /tmp/ccz2x4IP.s 			page 18


 944:Drivers/STM32G4xx_HAL_Driver/Src/stm32g4xx_hal_rcc.c **** 
 945:Drivers/STM32G4xx_HAL_Driver/Src/stm32g4xx_hal_rcc.c **** /** @defgroup RCC_Exported_Functions_Group2 Peripheral Control functions
 946:Drivers/STM32G4xx_HAL_Driver/Src/stm32g4xx_hal_rcc.c ****  *  @brief   RCC clocks control functions
 947:Drivers/STM32G4xx_HAL_Driver/Src/stm32g4xx_hal_rcc.c ****  *
 948:Drivers/STM32G4xx_HAL_Driver/Src/stm32g4xx_hal_rcc.c **** @verbatim
 949:Drivers/STM32G4xx_HAL_Driver/Src/stm32g4xx_hal_rcc.c ****  ===============================================================================
 950:Drivers/STM32G4xx_HAL_Driver/Src/stm32g4xx_hal_rcc.c ****                       ##### Peripheral Control functions #####
 951:Drivers/STM32G4xx_HAL_Driver/Src/stm32g4xx_hal_rcc.c ****  ===============================================================================
 952:Drivers/STM32G4xx_HAL_Driver/Src/stm32g4xx_hal_rcc.c ****     [..]
 953:Drivers/STM32G4xx_HAL_Driver/Src/stm32g4xx_hal_rcc.c ****     This subsection provides a set of functions allowing to:
 954:Drivers/STM32G4xx_HAL_Driver/Src/stm32g4xx_hal_rcc.c **** 
 955:Drivers/STM32G4xx_HAL_Driver/Src/stm32g4xx_hal_rcc.c ****     (+) Output clock to MCO pin.
 956:Drivers/STM32G4xx_HAL_Driver/Src/stm32g4xx_hal_rcc.c ****     (+) Retrieve current clock frequencies.
 957:Drivers/STM32G4xx_HAL_Driver/Src/stm32g4xx_hal_rcc.c ****     (+) Enable the Clock Security System.
 958:Drivers/STM32G4xx_HAL_Driver/Src/stm32g4xx_hal_rcc.c **** 
 959:Drivers/STM32G4xx_HAL_Driver/Src/stm32g4xx_hal_rcc.c **** @endverbatim
 960:Drivers/STM32G4xx_HAL_Driver/Src/stm32g4xx_hal_rcc.c ****   * @{
 961:Drivers/STM32G4xx_HAL_Driver/Src/stm32g4xx_hal_rcc.c ****   */
 962:Drivers/STM32G4xx_HAL_Driver/Src/stm32g4xx_hal_rcc.c **** 
 963:Drivers/STM32G4xx_HAL_Driver/Src/stm32g4xx_hal_rcc.c **** /**
 964:Drivers/STM32G4xx_HAL_Driver/Src/stm32g4xx_hal_rcc.c ****   * @brief  Select the clock source to output on MCO pin(PA8).
 965:Drivers/STM32G4xx_HAL_Driver/Src/stm32g4xx_hal_rcc.c ****   * @note   PA8 should be configured in alternate function mode.
 966:Drivers/STM32G4xx_HAL_Driver/Src/stm32g4xx_hal_rcc.c ****   * @param  RCC_MCOx  specifies the output direction for the clock source.
 967:Drivers/STM32G4xx_HAL_Driver/Src/stm32g4xx_hal_rcc.c ****   *          For STM32G4xx family this parameter can have only one value:
 968:Drivers/STM32G4xx_HAL_Driver/Src/stm32g4xx_hal_rcc.c ****   *            @arg @ref RCC_MCO1  Clock source to output on MCO1 pin(PA8).
 969:Drivers/STM32G4xx_HAL_Driver/Src/stm32g4xx_hal_rcc.c ****   * @param  RCC_MCOSource  specifies the clock source to output.
 970:Drivers/STM32G4xx_HAL_Driver/Src/stm32g4xx_hal_rcc.c ****   *          This parameter can be one of the following values:
 971:Drivers/STM32G4xx_HAL_Driver/Src/stm32g4xx_hal_rcc.c ****   *            @arg @ref RCC_MCO1SOURCE_NOCLOCK  MCO output disabled, no clock on MCO
 972:Drivers/STM32G4xx_HAL_Driver/Src/stm32g4xx_hal_rcc.c ****   *            @arg @ref RCC_MCO1SOURCE_SYSCLK  system  clock selected as MCO source
 973:Drivers/STM32G4xx_HAL_Driver/Src/stm32g4xx_hal_rcc.c ****   *            @arg @ref RCC_MCO1SOURCE_HSI  HSI clock selected as MCO source
 974:Drivers/STM32G4xx_HAL_Driver/Src/stm32g4xx_hal_rcc.c ****   *            @arg @ref RCC_MCO1SOURCE_HSE  HSE clock selected as MCO sourcee
 975:Drivers/STM32G4xx_HAL_Driver/Src/stm32g4xx_hal_rcc.c ****   *            @arg @ref RCC_MCO1SOURCE_PLLCLK  main PLL clock selected as MCO source
 976:Drivers/STM32G4xx_HAL_Driver/Src/stm32g4xx_hal_rcc.c ****   *            @arg @ref RCC_MCO1SOURCE_LSI  LSI clock selected as MCO source
 977:Drivers/STM32G4xx_HAL_Driver/Src/stm32g4xx_hal_rcc.c ****   *            @arg @ref RCC_MCO1SOURCE_LSE  LSE clock selected as MCO source
 978:Drivers/STM32G4xx_HAL_Driver/Src/stm32g4xx_hal_rcc.c ****   *            @arg @ref RCC_MCO1SOURCE_HSI48  HSI48 clock selected as MCO source for devices with 
 979:Drivers/STM32G4xx_HAL_Driver/Src/stm32g4xx_hal_rcc.c ****   * @param  RCC_MCODiv  specifies the MCO prescaler.
 980:Drivers/STM32G4xx_HAL_Driver/Src/stm32g4xx_hal_rcc.c ****   *          This parameter can be one of the following values:
 981:Drivers/STM32G4xx_HAL_Driver/Src/stm32g4xx_hal_rcc.c ****   *            @arg @ref RCC_MCODIV_1  no division applied to MCO clock
 982:Drivers/STM32G4xx_HAL_Driver/Src/stm32g4xx_hal_rcc.c ****   *            @arg @ref RCC_MCODIV_2  division by 2 applied to MCO clock
 983:Drivers/STM32G4xx_HAL_Driver/Src/stm32g4xx_hal_rcc.c ****   *            @arg @ref RCC_MCODIV_4  division by 4 applied to MCO clock
 984:Drivers/STM32G4xx_HAL_Driver/Src/stm32g4xx_hal_rcc.c ****   *            @arg @ref RCC_MCODIV_8  division by 8 applied to MCO clock
 985:Drivers/STM32G4xx_HAL_Driver/Src/stm32g4xx_hal_rcc.c ****   *            @arg @ref RCC_MCODIV_16  division by 16 applied to MCO clock
 986:Drivers/STM32G4xx_HAL_Driver/Src/stm32g4xx_hal_rcc.c ****   * @retval None
 987:Drivers/STM32G4xx_HAL_Driver/Src/stm32g4xx_hal_rcc.c ****   */
 988:Drivers/STM32G4xx_HAL_Driver/Src/stm32g4xx_hal_rcc.c **** void HAL_RCC_MCOConfig(uint32_t RCC_MCOx, uint32_t RCC_MCOSource, uint32_t RCC_MCODiv)
 989:Drivers/STM32G4xx_HAL_Driver/Src/stm32g4xx_hal_rcc.c **** {
 990:Drivers/STM32G4xx_HAL_Driver/Src/stm32g4xx_hal_rcc.c ****   GPIO_InitTypeDef GPIO_InitStruct;
 991:Drivers/STM32G4xx_HAL_Driver/Src/stm32g4xx_hal_rcc.c **** 
 992:Drivers/STM32G4xx_HAL_Driver/Src/stm32g4xx_hal_rcc.c ****   /* Check the parameters */
 993:Drivers/STM32G4xx_HAL_Driver/Src/stm32g4xx_hal_rcc.c ****   assert_param(IS_RCC_MCO(RCC_MCOx));
 994:Drivers/STM32G4xx_HAL_Driver/Src/stm32g4xx_hal_rcc.c ****   assert_param(IS_RCC_MCODIV(RCC_MCODiv));
 995:Drivers/STM32G4xx_HAL_Driver/Src/stm32g4xx_hal_rcc.c ****   assert_param(IS_RCC_MCO1SOURCE(RCC_MCOSource));
 996:Drivers/STM32G4xx_HAL_Driver/Src/stm32g4xx_hal_rcc.c **** 
 997:Drivers/STM32G4xx_HAL_Driver/Src/stm32g4xx_hal_rcc.c ****   /* Prevent unused argument(s) compilation warning if no assert_param check */
 998:Drivers/STM32G4xx_HAL_Driver/Src/stm32g4xx_hal_rcc.c ****   UNUSED(RCC_MCOx);
 999:Drivers/STM32G4xx_HAL_Driver/Src/stm32g4xx_hal_rcc.c **** 
1000:Drivers/STM32G4xx_HAL_Driver/Src/stm32g4xx_hal_rcc.c ****   /* MCO Clock Enable */
ARM GAS  /tmp/ccz2x4IP.s 			page 19


1001:Drivers/STM32G4xx_HAL_Driver/Src/stm32g4xx_hal_rcc.c ****   MCO1_CLK_ENABLE();
1002:Drivers/STM32G4xx_HAL_Driver/Src/stm32g4xx_hal_rcc.c **** 
1003:Drivers/STM32G4xx_HAL_Driver/Src/stm32g4xx_hal_rcc.c ****   /* Configure the MCO1 pin in alternate function mode */
1004:Drivers/STM32G4xx_HAL_Driver/Src/stm32g4xx_hal_rcc.c ****   GPIO_InitStruct.Pin = MCO1_PIN;
1005:Drivers/STM32G4xx_HAL_Driver/Src/stm32g4xx_hal_rcc.c ****   GPIO_InitStruct.Mode = GPIO_MODE_AF_PP;
1006:Drivers/STM32G4xx_HAL_Driver/Src/stm32g4xx_hal_rcc.c ****   GPIO_InitStruct.Speed = GPIO_SPEED_FREQ_VERY_HIGH;
1007:Drivers/STM32G4xx_HAL_Driver/Src/stm32g4xx_hal_rcc.c ****   GPIO_InitStruct.Pull = GPIO_NOPULL;
1008:Drivers/STM32G4xx_HAL_Driver/Src/stm32g4xx_hal_rcc.c ****   GPIO_InitStruct.Alternate = GPIO_AF0_MCO;
1009:Drivers/STM32G4xx_HAL_Driver/Src/stm32g4xx_hal_rcc.c ****   HAL_GPIO_Init(MCO1_GPIO_PORT, &GPIO_InitStruct);
1010:Drivers/STM32G4xx_HAL_Driver/Src/stm32g4xx_hal_rcc.c **** 
1011:Drivers/STM32G4xx_HAL_Driver/Src/stm32g4xx_hal_rcc.c ****   /* Mask MCOSEL[] and MCOPRE[] bits then set MCO1 clock source and prescaler */
1012:Drivers/STM32G4xx_HAL_Driver/Src/stm32g4xx_hal_rcc.c ****   MODIFY_REG(RCC->CFGR, (RCC_CFGR_MCOSEL | RCC_CFGR_MCOPRE), (RCC_MCOSource | RCC_MCODiv));
1013:Drivers/STM32G4xx_HAL_Driver/Src/stm32g4xx_hal_rcc.c **** }
1014:Drivers/STM32G4xx_HAL_Driver/Src/stm32g4xx_hal_rcc.c **** 
1015:Drivers/STM32G4xx_HAL_Driver/Src/stm32g4xx_hal_rcc.c **** /**
1016:Drivers/STM32G4xx_HAL_Driver/Src/stm32g4xx_hal_rcc.c ****   * @brief  Return the SYSCLK frequency.
1017:Drivers/STM32G4xx_HAL_Driver/Src/stm32g4xx_hal_rcc.c ****   *
1018:Drivers/STM32G4xx_HAL_Driver/Src/stm32g4xx_hal_rcc.c ****   * @note   The system frequency computed by this function is not the real
1019:Drivers/STM32G4xx_HAL_Driver/Src/stm32g4xx_hal_rcc.c ****   *         frequency in the chip. It is calculated based on the predefined
1020:Drivers/STM32G4xx_HAL_Driver/Src/stm32g4xx_hal_rcc.c ****   *         constant and the selected clock source:
1021:Drivers/STM32G4xx_HAL_Driver/Src/stm32g4xx_hal_rcc.c ****   * @note     If SYSCLK source is HSI, function returns values based on HSI_VALUE(*)
1022:Drivers/STM32G4xx_HAL_Driver/Src/stm32g4xx_hal_rcc.c ****   * @note     If SYSCLK source is HSE, function returns values based on HSE_VALUE(**)
1023:Drivers/STM32G4xx_HAL_Driver/Src/stm32g4xx_hal_rcc.c ****   * @note     If SYSCLK source is PLL, function returns values based on HSE_VALUE(**),
1024:Drivers/STM32G4xx_HAL_Driver/Src/stm32g4xx_hal_rcc.c ****   *           HSI_VALUE(*) Value multiplied/divided by the PLL factors.
1025:Drivers/STM32G4xx_HAL_Driver/Src/stm32g4xx_hal_rcc.c ****   * @note     (*) HSI_VALUE is a constant defined in stm32g4xx_hal_conf.h file (default value
1026:Drivers/STM32G4xx_HAL_Driver/Src/stm32g4xx_hal_rcc.c ****   *               16 MHz) but the real value may vary depending on the variations
1027:Drivers/STM32G4xx_HAL_Driver/Src/stm32g4xx_hal_rcc.c ****   *               in voltage and temperature.
1028:Drivers/STM32G4xx_HAL_Driver/Src/stm32g4xx_hal_rcc.c ****   * @note     (**) HSE_VALUE is a constant defined in stm32g4xx_hal_conf.h file (default value
1029:Drivers/STM32G4xx_HAL_Driver/Src/stm32g4xx_hal_rcc.c ****   *                8 MHz), user has to ensure that HSE_VALUE is same as the real
1030:Drivers/STM32G4xx_HAL_Driver/Src/stm32g4xx_hal_rcc.c ****   *                frequency of the crystal used. Otherwise, this function may
1031:Drivers/STM32G4xx_HAL_Driver/Src/stm32g4xx_hal_rcc.c ****   *                have wrong result.
1032:Drivers/STM32G4xx_HAL_Driver/Src/stm32g4xx_hal_rcc.c ****   *
1033:Drivers/STM32G4xx_HAL_Driver/Src/stm32g4xx_hal_rcc.c ****   * @note   The result of this function could be not correct when using fractional
1034:Drivers/STM32G4xx_HAL_Driver/Src/stm32g4xx_hal_rcc.c ****   *         value for HSE crystal.
1035:Drivers/STM32G4xx_HAL_Driver/Src/stm32g4xx_hal_rcc.c ****   *
1036:Drivers/STM32G4xx_HAL_Driver/Src/stm32g4xx_hal_rcc.c ****   * @note   This function can be used by the user application to compute the
1037:Drivers/STM32G4xx_HAL_Driver/Src/stm32g4xx_hal_rcc.c ****   *         baudrate for the communication peripherals or configure other parameters.
1038:Drivers/STM32G4xx_HAL_Driver/Src/stm32g4xx_hal_rcc.c ****   *
1039:Drivers/STM32G4xx_HAL_Driver/Src/stm32g4xx_hal_rcc.c ****   * @note   Each time SYSCLK changes, this function must be called to update the
1040:Drivers/STM32G4xx_HAL_Driver/Src/stm32g4xx_hal_rcc.c ****   *         right SYSCLK value. Otherwise, any configuration based on this function will be incorre
1041:Drivers/STM32G4xx_HAL_Driver/Src/stm32g4xx_hal_rcc.c ****   *
1042:Drivers/STM32G4xx_HAL_Driver/Src/stm32g4xx_hal_rcc.c ****   *
1043:Drivers/STM32G4xx_HAL_Driver/Src/stm32g4xx_hal_rcc.c ****   * @retval SYSCLK frequency
1044:Drivers/STM32G4xx_HAL_Driver/Src/stm32g4xx_hal_rcc.c ****   */
1045:Drivers/STM32G4xx_HAL_Driver/Src/stm32g4xx_hal_rcc.c **** uint32_t HAL_RCC_GetSysClockFreq(void)
1046:Drivers/STM32G4xx_HAL_Driver/Src/stm32g4xx_hal_rcc.c **** {
1047:Drivers/STM32G4xx_HAL_Driver/Src/stm32g4xx_hal_rcc.c ****   uint32_t pllvco, pllsource, pllr, pllm;
1048:Drivers/STM32G4xx_HAL_Driver/Src/stm32g4xx_hal_rcc.c ****   uint32_t sysclockfreq;
1049:Drivers/STM32G4xx_HAL_Driver/Src/stm32g4xx_hal_rcc.c **** 
1050:Drivers/STM32G4xx_HAL_Driver/Src/stm32g4xx_hal_rcc.c ****   if (__HAL_RCC_GET_SYSCLK_SOURCE() == RCC_CFGR_SWS_HSI)
1051:Drivers/STM32G4xx_HAL_Driver/Src/stm32g4xx_hal_rcc.c ****   {
1052:Drivers/STM32G4xx_HAL_Driver/Src/stm32g4xx_hal_rcc.c ****     /* HSI used as system clock source */
1053:Drivers/STM32G4xx_HAL_Driver/Src/stm32g4xx_hal_rcc.c ****     sysclockfreq = HSI_VALUE;
1054:Drivers/STM32G4xx_HAL_Driver/Src/stm32g4xx_hal_rcc.c ****   }
1055:Drivers/STM32G4xx_HAL_Driver/Src/stm32g4xx_hal_rcc.c ****   else if (__HAL_RCC_GET_SYSCLK_SOURCE() == RCC_CFGR_SWS_HSE)
1056:Drivers/STM32G4xx_HAL_Driver/Src/stm32g4xx_hal_rcc.c ****   {
1057:Drivers/STM32G4xx_HAL_Driver/Src/stm32g4xx_hal_rcc.c ****     /* HSE used as system clock source */
ARM GAS  /tmp/ccz2x4IP.s 			page 20


1058:Drivers/STM32G4xx_HAL_Driver/Src/stm32g4xx_hal_rcc.c ****     sysclockfreq = HSE_VALUE;
1059:Drivers/STM32G4xx_HAL_Driver/Src/stm32g4xx_hal_rcc.c ****   }
1060:Drivers/STM32G4xx_HAL_Driver/Src/stm32g4xx_hal_rcc.c ****   else if (__HAL_RCC_GET_SYSCLK_SOURCE() == RCC_CFGR_SWS_PLL)
1061:Drivers/STM32G4xx_HAL_Driver/Src/stm32g4xx_hal_rcc.c ****   {
1062:Drivers/STM32G4xx_HAL_Driver/Src/stm32g4xx_hal_rcc.c ****     /* PLL used as system clock  source */
1063:Drivers/STM32G4xx_HAL_Driver/Src/stm32g4xx_hal_rcc.c **** 
1064:Drivers/STM32G4xx_HAL_Driver/Src/stm32g4xx_hal_rcc.c ****     /* PLL_VCO = ((HSE_VALUE or HSI_VALUE)/ PLLM) * PLLN
1065:Drivers/STM32G4xx_HAL_Driver/Src/stm32g4xx_hal_rcc.c ****     SYSCLK = PLL_VCO / PLLR
1066:Drivers/STM32G4xx_HAL_Driver/Src/stm32g4xx_hal_rcc.c ****     */
1067:Drivers/STM32G4xx_HAL_Driver/Src/stm32g4xx_hal_rcc.c ****     pllsource = READ_BIT(RCC->PLLCFGR, RCC_PLLCFGR_PLLSRC);
1068:Drivers/STM32G4xx_HAL_Driver/Src/stm32g4xx_hal_rcc.c ****     pllm = (READ_BIT(RCC->PLLCFGR, RCC_PLLCFGR_PLLM) >> RCC_PLLCFGR_PLLM_Pos) + 1U ;
1069:Drivers/STM32G4xx_HAL_Driver/Src/stm32g4xx_hal_rcc.c **** 
1070:Drivers/STM32G4xx_HAL_Driver/Src/stm32g4xx_hal_rcc.c ****     switch (pllsource)
1071:Drivers/STM32G4xx_HAL_Driver/Src/stm32g4xx_hal_rcc.c ****     {
1072:Drivers/STM32G4xx_HAL_Driver/Src/stm32g4xx_hal_rcc.c ****     case RCC_PLLSOURCE_HSE:  /* HSE used as PLL clock source */
1073:Drivers/STM32G4xx_HAL_Driver/Src/stm32g4xx_hal_rcc.c ****       pllvco = (HSE_VALUE / pllm) * (READ_BIT(RCC->PLLCFGR, RCC_PLLCFGR_PLLN) >> RCC_PLLCFGR_PLLN_P
1074:Drivers/STM32G4xx_HAL_Driver/Src/stm32g4xx_hal_rcc.c ****       break;
1075:Drivers/STM32G4xx_HAL_Driver/Src/stm32g4xx_hal_rcc.c **** 
1076:Drivers/STM32G4xx_HAL_Driver/Src/stm32g4xx_hal_rcc.c ****     case RCC_PLLSOURCE_HSI:  /* HSI used as PLL clock source */
1077:Drivers/STM32G4xx_HAL_Driver/Src/stm32g4xx_hal_rcc.c ****     default:
1078:Drivers/STM32G4xx_HAL_Driver/Src/stm32g4xx_hal_rcc.c ****       pllvco = (HSI_VALUE / pllm) * (READ_BIT(RCC->PLLCFGR, RCC_PLLCFGR_PLLN) >> RCC_PLLCFGR_PLLN_P
1079:Drivers/STM32G4xx_HAL_Driver/Src/stm32g4xx_hal_rcc.c ****       break;
1080:Drivers/STM32G4xx_HAL_Driver/Src/stm32g4xx_hal_rcc.c ****     }
1081:Drivers/STM32G4xx_HAL_Driver/Src/stm32g4xx_hal_rcc.c ****     pllr = ((READ_BIT(RCC->PLLCFGR, RCC_PLLCFGR_PLLR) >> RCC_PLLCFGR_PLLR_Pos) + 1U ) * 2U;
1082:Drivers/STM32G4xx_HAL_Driver/Src/stm32g4xx_hal_rcc.c ****     sysclockfreq = pllvco/pllr;
1083:Drivers/STM32G4xx_HAL_Driver/Src/stm32g4xx_hal_rcc.c ****   }
1084:Drivers/STM32G4xx_HAL_Driver/Src/stm32g4xx_hal_rcc.c ****   else
1085:Drivers/STM32G4xx_HAL_Driver/Src/stm32g4xx_hal_rcc.c ****   {
1086:Drivers/STM32G4xx_HAL_Driver/Src/stm32g4xx_hal_rcc.c ****     sysclockfreq = 0U;
1087:Drivers/STM32G4xx_HAL_Driver/Src/stm32g4xx_hal_rcc.c ****   }
1088:Drivers/STM32G4xx_HAL_Driver/Src/stm32g4xx_hal_rcc.c **** 
1089:Drivers/STM32G4xx_HAL_Driver/Src/stm32g4xx_hal_rcc.c ****   return sysclockfreq;
1090:Drivers/STM32G4xx_HAL_Driver/Src/stm32g4xx_hal_rcc.c **** }
1091:Drivers/STM32G4xx_HAL_Driver/Src/stm32g4xx_hal_rcc.c **** 
1092:Drivers/STM32G4xx_HAL_Driver/Src/stm32g4xx_hal_rcc.c **** /**
1093:Drivers/STM32G4xx_HAL_Driver/Src/stm32g4xx_hal_rcc.c ****   * @brief  Return the HCLK frequency.
1094:Drivers/STM32G4xx_HAL_Driver/Src/stm32g4xx_hal_rcc.c ****   * @note   Each time HCLK changes, this function must be called to update the
1095:Drivers/STM32G4xx_HAL_Driver/Src/stm32g4xx_hal_rcc.c ****   *         right HCLK value. Otherwise, any configuration based on this function will be incorrect
1096:Drivers/STM32G4xx_HAL_Driver/Src/stm32g4xx_hal_rcc.c ****   *
1097:Drivers/STM32G4xx_HAL_Driver/Src/stm32g4xx_hal_rcc.c ****   * @note   The SystemCoreClock CMSIS variable is used to store System Clock Frequency.
1098:Drivers/STM32G4xx_HAL_Driver/Src/stm32g4xx_hal_rcc.c ****   * @retval HCLK frequency in Hz
1099:Drivers/STM32G4xx_HAL_Driver/Src/stm32g4xx_hal_rcc.c ****   */
1100:Drivers/STM32G4xx_HAL_Driver/Src/stm32g4xx_hal_rcc.c **** uint32_t HAL_RCC_GetHCLKFreq(void)
1101:Drivers/STM32G4xx_HAL_Driver/Src/stm32g4xx_hal_rcc.c **** {
1102:Drivers/STM32G4xx_HAL_Driver/Src/stm32g4xx_hal_rcc.c ****   return SystemCoreClock;
1103:Drivers/STM32G4xx_HAL_Driver/Src/stm32g4xx_hal_rcc.c **** }
1104:Drivers/STM32G4xx_HAL_Driver/Src/stm32g4xx_hal_rcc.c **** 
1105:Drivers/STM32G4xx_HAL_Driver/Src/stm32g4xx_hal_rcc.c **** /**
1106:Drivers/STM32G4xx_HAL_Driver/Src/stm32g4xx_hal_rcc.c ****   * @brief  Return the PCLK1 frequency.
1107:Drivers/STM32G4xx_HAL_Driver/Src/stm32g4xx_hal_rcc.c ****   * @note   Each time PCLK1 changes, this function must be called to update the
1108:Drivers/STM32G4xx_HAL_Driver/Src/stm32g4xx_hal_rcc.c ****   *         right PCLK1 value. Otherwise, any configuration based on this function will be incorrec
1109:Drivers/STM32G4xx_HAL_Driver/Src/stm32g4xx_hal_rcc.c ****   * @retval PCLK1 frequency in Hz
1110:Drivers/STM32G4xx_HAL_Driver/Src/stm32g4xx_hal_rcc.c ****   */
1111:Drivers/STM32G4xx_HAL_Driver/Src/stm32g4xx_hal_rcc.c **** uint32_t HAL_RCC_GetPCLK1Freq(void)
1112:Drivers/STM32G4xx_HAL_Driver/Src/stm32g4xx_hal_rcc.c **** {
1113:Drivers/STM32G4xx_HAL_Driver/Src/stm32g4xx_hal_rcc.c ****   /* Get HCLK source and Compute PCLK1 frequency ---------------------------*/
1114:Drivers/STM32G4xx_HAL_Driver/Src/stm32g4xx_hal_rcc.c ****   return (HAL_RCC_GetHCLKFreq() >> (APBPrescTable[READ_BIT(RCC->CFGR, RCC_CFGR_PPRE1) >> RCC_CFGR_P
ARM GAS  /tmp/ccz2x4IP.s 			page 21


1115:Drivers/STM32G4xx_HAL_Driver/Src/stm32g4xx_hal_rcc.c **** }
1116:Drivers/STM32G4xx_HAL_Driver/Src/stm32g4xx_hal_rcc.c **** 
1117:Drivers/STM32G4xx_HAL_Driver/Src/stm32g4xx_hal_rcc.c **** /**
1118:Drivers/STM32G4xx_HAL_Driver/Src/stm32g4xx_hal_rcc.c ****   * @brief  Return the PCLK2 frequency.
1119:Drivers/STM32G4xx_HAL_Driver/Src/stm32g4xx_hal_rcc.c ****   * @note   Each time PCLK2 changes, this function must be called to update the
1120:Drivers/STM32G4xx_HAL_Driver/Src/stm32g4xx_hal_rcc.c ****   *         right PCLK2 value. Otherwise, any configuration based on this function will be incorrec
1121:Drivers/STM32G4xx_HAL_Driver/Src/stm32g4xx_hal_rcc.c ****   * @retval PCLK2 frequency in Hz
1122:Drivers/STM32G4xx_HAL_Driver/Src/stm32g4xx_hal_rcc.c ****   */
1123:Drivers/STM32G4xx_HAL_Driver/Src/stm32g4xx_hal_rcc.c **** uint32_t HAL_RCC_GetPCLK2Freq(void)
1124:Drivers/STM32G4xx_HAL_Driver/Src/stm32g4xx_hal_rcc.c **** {
1125:Drivers/STM32G4xx_HAL_Driver/Src/stm32g4xx_hal_rcc.c ****   /* Get HCLK source and Compute PCLK2 frequency ---------------------------*/
1126:Drivers/STM32G4xx_HAL_Driver/Src/stm32g4xx_hal_rcc.c ****   return (HAL_RCC_GetHCLKFreq()>> (APBPrescTable[READ_BIT(RCC->CFGR, RCC_CFGR_PPRE2) >> RCC_CFGR_PP
1127:Drivers/STM32G4xx_HAL_Driver/Src/stm32g4xx_hal_rcc.c **** }
1128:Drivers/STM32G4xx_HAL_Driver/Src/stm32g4xx_hal_rcc.c **** 
1129:Drivers/STM32G4xx_HAL_Driver/Src/stm32g4xx_hal_rcc.c **** /**
1130:Drivers/STM32G4xx_HAL_Driver/Src/stm32g4xx_hal_rcc.c ****   * @brief  Configure the RCC_OscInitStruct according to the internal
1131:Drivers/STM32G4xx_HAL_Driver/Src/stm32g4xx_hal_rcc.c ****   *         RCC configuration registers.
1132:Drivers/STM32G4xx_HAL_Driver/Src/stm32g4xx_hal_rcc.c ****   * @param  RCC_OscInitStruct  pointer to an RCC_OscInitTypeDef structure that
1133:Drivers/STM32G4xx_HAL_Driver/Src/stm32g4xx_hal_rcc.c ****   *         will be configured.
1134:Drivers/STM32G4xx_HAL_Driver/Src/stm32g4xx_hal_rcc.c ****   * @retval None
1135:Drivers/STM32G4xx_HAL_Driver/Src/stm32g4xx_hal_rcc.c ****   */
1136:Drivers/STM32G4xx_HAL_Driver/Src/stm32g4xx_hal_rcc.c **** void HAL_RCC_GetOscConfig(RCC_OscInitTypeDef  *RCC_OscInitStruct)
1137:Drivers/STM32G4xx_HAL_Driver/Src/stm32g4xx_hal_rcc.c **** {
1138:Drivers/STM32G4xx_HAL_Driver/Src/stm32g4xx_hal_rcc.c ****   /* Check the parameters */
1139:Drivers/STM32G4xx_HAL_Driver/Src/stm32g4xx_hal_rcc.c ****   assert_param(RCC_OscInitStruct != (void *)NULL);
1140:Drivers/STM32G4xx_HAL_Driver/Src/stm32g4xx_hal_rcc.c **** 
1141:Drivers/STM32G4xx_HAL_Driver/Src/stm32g4xx_hal_rcc.c ****   /* Set all possible values for the Oscillator type parameter ---------------*/
1142:Drivers/STM32G4xx_HAL_Driver/Src/stm32g4xx_hal_rcc.c ****   RCC_OscInitStruct->OscillatorType = RCC_OSCILLATORTYPE_HSE | RCC_OSCILLATORTYPE_HSI | \
1143:Drivers/STM32G4xx_HAL_Driver/Src/stm32g4xx_hal_rcc.c ****                                       RCC_OSCILLATORTYPE_LSE | RCC_OSCILLATORTYPE_LSI | RCC_OSCILLA
1144:Drivers/STM32G4xx_HAL_Driver/Src/stm32g4xx_hal_rcc.c **** 
1145:Drivers/STM32G4xx_HAL_Driver/Src/stm32g4xx_hal_rcc.c ****   /* Get the HSE configuration -----------------------------------------------*/
1146:Drivers/STM32G4xx_HAL_Driver/Src/stm32g4xx_hal_rcc.c ****   if(READ_BIT(RCC->CR, RCC_CR_HSEBYP) == RCC_CR_HSEBYP)
1147:Drivers/STM32G4xx_HAL_Driver/Src/stm32g4xx_hal_rcc.c ****   {
1148:Drivers/STM32G4xx_HAL_Driver/Src/stm32g4xx_hal_rcc.c ****     RCC_OscInitStruct->HSEState = RCC_HSE_BYPASS;
1149:Drivers/STM32G4xx_HAL_Driver/Src/stm32g4xx_hal_rcc.c ****   }
1150:Drivers/STM32G4xx_HAL_Driver/Src/stm32g4xx_hal_rcc.c ****   else if(READ_BIT(RCC->CR, RCC_CR_HSEON) == RCC_CR_HSEON)
1151:Drivers/STM32G4xx_HAL_Driver/Src/stm32g4xx_hal_rcc.c ****   {
1152:Drivers/STM32G4xx_HAL_Driver/Src/stm32g4xx_hal_rcc.c ****     RCC_OscInitStruct->HSEState = RCC_HSE_ON;
1153:Drivers/STM32G4xx_HAL_Driver/Src/stm32g4xx_hal_rcc.c ****   }
1154:Drivers/STM32G4xx_HAL_Driver/Src/stm32g4xx_hal_rcc.c ****   else
1155:Drivers/STM32G4xx_HAL_Driver/Src/stm32g4xx_hal_rcc.c ****   {
1156:Drivers/STM32G4xx_HAL_Driver/Src/stm32g4xx_hal_rcc.c ****     RCC_OscInitStruct->HSEState = RCC_HSE_OFF;
1157:Drivers/STM32G4xx_HAL_Driver/Src/stm32g4xx_hal_rcc.c ****   }
1158:Drivers/STM32G4xx_HAL_Driver/Src/stm32g4xx_hal_rcc.c **** 
1159:Drivers/STM32G4xx_HAL_Driver/Src/stm32g4xx_hal_rcc.c ****   /* Get the HSI configuration -----------------------------------------------*/
1160:Drivers/STM32G4xx_HAL_Driver/Src/stm32g4xx_hal_rcc.c ****   if(READ_BIT(RCC->CR, RCC_CR_HSION) == RCC_CR_HSION)
1161:Drivers/STM32G4xx_HAL_Driver/Src/stm32g4xx_hal_rcc.c ****   {
1162:Drivers/STM32G4xx_HAL_Driver/Src/stm32g4xx_hal_rcc.c ****     RCC_OscInitStruct->HSIState = RCC_HSI_ON;
1163:Drivers/STM32G4xx_HAL_Driver/Src/stm32g4xx_hal_rcc.c ****   }
1164:Drivers/STM32G4xx_HAL_Driver/Src/stm32g4xx_hal_rcc.c ****   else
1165:Drivers/STM32G4xx_HAL_Driver/Src/stm32g4xx_hal_rcc.c ****   {
1166:Drivers/STM32G4xx_HAL_Driver/Src/stm32g4xx_hal_rcc.c ****     RCC_OscInitStruct->HSIState = RCC_HSI_OFF;
1167:Drivers/STM32G4xx_HAL_Driver/Src/stm32g4xx_hal_rcc.c ****   }
1168:Drivers/STM32G4xx_HAL_Driver/Src/stm32g4xx_hal_rcc.c **** 
1169:Drivers/STM32G4xx_HAL_Driver/Src/stm32g4xx_hal_rcc.c ****   RCC_OscInitStruct->HSICalibrationValue = READ_BIT(RCC->ICSCR, RCC_ICSCR_HSITRIM) >> RCC_ICSCR_HSI
1170:Drivers/STM32G4xx_HAL_Driver/Src/stm32g4xx_hal_rcc.c **** 
1171:Drivers/STM32G4xx_HAL_Driver/Src/stm32g4xx_hal_rcc.c ****   /* Get the LSE configuration -----------------------------------------------*/
ARM GAS  /tmp/ccz2x4IP.s 			page 22


1172:Drivers/STM32G4xx_HAL_Driver/Src/stm32g4xx_hal_rcc.c ****   if(READ_BIT(RCC->BDCR, RCC_BDCR_LSEBYP) == RCC_BDCR_LSEBYP)
1173:Drivers/STM32G4xx_HAL_Driver/Src/stm32g4xx_hal_rcc.c ****   {
1174:Drivers/STM32G4xx_HAL_Driver/Src/stm32g4xx_hal_rcc.c ****     RCC_OscInitStruct->LSEState = RCC_LSE_BYPASS;
1175:Drivers/STM32G4xx_HAL_Driver/Src/stm32g4xx_hal_rcc.c ****   }
1176:Drivers/STM32G4xx_HAL_Driver/Src/stm32g4xx_hal_rcc.c ****   else if(READ_BIT(RCC->BDCR, RCC_BDCR_LSEON) == RCC_BDCR_LSEON)
1177:Drivers/STM32G4xx_HAL_Driver/Src/stm32g4xx_hal_rcc.c ****   {
1178:Drivers/STM32G4xx_HAL_Driver/Src/stm32g4xx_hal_rcc.c ****     RCC_OscInitStruct->LSEState = RCC_LSE_ON;
1179:Drivers/STM32G4xx_HAL_Driver/Src/stm32g4xx_hal_rcc.c ****   }
1180:Drivers/STM32G4xx_HAL_Driver/Src/stm32g4xx_hal_rcc.c ****   else
1181:Drivers/STM32G4xx_HAL_Driver/Src/stm32g4xx_hal_rcc.c ****   {
1182:Drivers/STM32G4xx_HAL_Driver/Src/stm32g4xx_hal_rcc.c ****     RCC_OscInitStruct->LSEState = RCC_LSE_OFF;
1183:Drivers/STM32G4xx_HAL_Driver/Src/stm32g4xx_hal_rcc.c ****   }
1184:Drivers/STM32G4xx_HAL_Driver/Src/stm32g4xx_hal_rcc.c **** 
1185:Drivers/STM32G4xx_HAL_Driver/Src/stm32g4xx_hal_rcc.c ****   /* Get the LSI configuration -----------------------------------------------*/
1186:Drivers/STM32G4xx_HAL_Driver/Src/stm32g4xx_hal_rcc.c ****   if(READ_BIT(RCC->CSR, RCC_CSR_LSION) == RCC_CSR_LSION)
1187:Drivers/STM32G4xx_HAL_Driver/Src/stm32g4xx_hal_rcc.c ****   {
1188:Drivers/STM32G4xx_HAL_Driver/Src/stm32g4xx_hal_rcc.c ****     RCC_OscInitStruct->LSIState = RCC_LSI_ON;
1189:Drivers/STM32G4xx_HAL_Driver/Src/stm32g4xx_hal_rcc.c ****   }
1190:Drivers/STM32G4xx_HAL_Driver/Src/stm32g4xx_hal_rcc.c ****   else
1191:Drivers/STM32G4xx_HAL_Driver/Src/stm32g4xx_hal_rcc.c ****   {
1192:Drivers/STM32G4xx_HAL_Driver/Src/stm32g4xx_hal_rcc.c ****     RCC_OscInitStruct->LSIState = RCC_LSI_OFF;
1193:Drivers/STM32G4xx_HAL_Driver/Src/stm32g4xx_hal_rcc.c ****   }
1194:Drivers/STM32G4xx_HAL_Driver/Src/stm32g4xx_hal_rcc.c **** 
1195:Drivers/STM32G4xx_HAL_Driver/Src/stm32g4xx_hal_rcc.c ****   /* Get the HSI48 configuration ---------------------------------------------*/
1196:Drivers/STM32G4xx_HAL_Driver/Src/stm32g4xx_hal_rcc.c ****   if(READ_BIT(RCC->CRRCR, RCC_CRRCR_HSI48ON) == RCC_CRRCR_HSI48ON)
1197:Drivers/STM32G4xx_HAL_Driver/Src/stm32g4xx_hal_rcc.c ****   {
1198:Drivers/STM32G4xx_HAL_Driver/Src/stm32g4xx_hal_rcc.c ****     RCC_OscInitStruct->HSI48State = RCC_HSI48_ON;
1199:Drivers/STM32G4xx_HAL_Driver/Src/stm32g4xx_hal_rcc.c ****   }
1200:Drivers/STM32G4xx_HAL_Driver/Src/stm32g4xx_hal_rcc.c ****   else
1201:Drivers/STM32G4xx_HAL_Driver/Src/stm32g4xx_hal_rcc.c ****   {
1202:Drivers/STM32G4xx_HAL_Driver/Src/stm32g4xx_hal_rcc.c ****     RCC_OscInitStruct->HSI48State = RCC_HSI48_OFF;
1203:Drivers/STM32G4xx_HAL_Driver/Src/stm32g4xx_hal_rcc.c ****   }
1204:Drivers/STM32G4xx_HAL_Driver/Src/stm32g4xx_hal_rcc.c **** 
1205:Drivers/STM32G4xx_HAL_Driver/Src/stm32g4xx_hal_rcc.c ****   /* Get the PLL configuration -----------------------------------------------*/
1206:Drivers/STM32G4xx_HAL_Driver/Src/stm32g4xx_hal_rcc.c ****   if(READ_BIT(RCC->CR, RCC_CR_PLLON) == RCC_CR_PLLON)
1207:Drivers/STM32G4xx_HAL_Driver/Src/stm32g4xx_hal_rcc.c ****   {
1208:Drivers/STM32G4xx_HAL_Driver/Src/stm32g4xx_hal_rcc.c ****     RCC_OscInitStruct->PLL.PLLState = RCC_PLL_ON;
1209:Drivers/STM32G4xx_HAL_Driver/Src/stm32g4xx_hal_rcc.c ****   }
1210:Drivers/STM32G4xx_HAL_Driver/Src/stm32g4xx_hal_rcc.c ****   else
1211:Drivers/STM32G4xx_HAL_Driver/Src/stm32g4xx_hal_rcc.c ****   {
1212:Drivers/STM32G4xx_HAL_Driver/Src/stm32g4xx_hal_rcc.c ****     RCC_OscInitStruct->PLL.PLLState = RCC_PLL_OFF;
1213:Drivers/STM32G4xx_HAL_Driver/Src/stm32g4xx_hal_rcc.c ****   }
1214:Drivers/STM32G4xx_HAL_Driver/Src/stm32g4xx_hal_rcc.c ****   RCC_OscInitStruct->PLL.PLLSource = READ_BIT(RCC->PLLCFGR, RCC_PLLCFGR_PLLSRC);
1215:Drivers/STM32G4xx_HAL_Driver/Src/stm32g4xx_hal_rcc.c ****   RCC_OscInitStruct->PLL.PLLM = (READ_BIT(RCC->PLLCFGR, RCC_PLLCFGR_PLLM) >> RCC_PLLCFGR_PLLM_Pos) 
1216:Drivers/STM32G4xx_HAL_Driver/Src/stm32g4xx_hal_rcc.c ****   RCC_OscInitStruct->PLL.PLLN = READ_BIT(RCC->PLLCFGR, RCC_PLLCFGR_PLLN) >> RCC_PLLCFGR_PLLN_Pos;
1217:Drivers/STM32G4xx_HAL_Driver/Src/stm32g4xx_hal_rcc.c ****   RCC_OscInitStruct->PLL.PLLQ = (((READ_BIT(RCC->PLLCFGR, RCC_PLLCFGR_PLLQ) >> RCC_PLLCFGR_PLLQ_Pos
1218:Drivers/STM32G4xx_HAL_Driver/Src/stm32g4xx_hal_rcc.c ****   RCC_OscInitStruct->PLL.PLLR = (((READ_BIT(RCC->PLLCFGR, RCC_PLLCFGR_PLLR) >> RCC_PLLCFGR_PLLR_Pos
1219:Drivers/STM32G4xx_HAL_Driver/Src/stm32g4xx_hal_rcc.c ****   RCC_OscInitStruct->PLL.PLLP = READ_BIT(RCC->PLLCFGR, RCC_PLLCFGR_PLLPDIV) >> RCC_PLLCFGR_PLLPDIV_
1220:Drivers/STM32G4xx_HAL_Driver/Src/stm32g4xx_hal_rcc.c **** }
1221:Drivers/STM32G4xx_HAL_Driver/Src/stm32g4xx_hal_rcc.c **** 
1222:Drivers/STM32G4xx_HAL_Driver/Src/stm32g4xx_hal_rcc.c **** /**
1223:Drivers/STM32G4xx_HAL_Driver/Src/stm32g4xx_hal_rcc.c ****   * @brief  Configure the RCC_ClkInitStruct according to the internal
1224:Drivers/STM32G4xx_HAL_Driver/Src/stm32g4xx_hal_rcc.c ****   *         RCC configuration registers.
1225:Drivers/STM32G4xx_HAL_Driver/Src/stm32g4xx_hal_rcc.c ****   * @param  RCC_ClkInitStruct  pointer to an RCC_ClkInitTypeDef structure that
1226:Drivers/STM32G4xx_HAL_Driver/Src/stm32g4xx_hal_rcc.c ****   *         will be configured.
1227:Drivers/STM32G4xx_HAL_Driver/Src/stm32g4xx_hal_rcc.c ****   * @param  pFLatency  Pointer on the Flash Latency.
1228:Drivers/STM32G4xx_HAL_Driver/Src/stm32g4xx_hal_rcc.c ****   * @retval None
ARM GAS  /tmp/ccz2x4IP.s 			page 23


1229:Drivers/STM32G4xx_HAL_Driver/Src/stm32g4xx_hal_rcc.c ****   */
1230:Drivers/STM32G4xx_HAL_Driver/Src/stm32g4xx_hal_rcc.c **** void HAL_RCC_GetClockConfig(RCC_ClkInitTypeDef  *RCC_ClkInitStruct, uint32_t *pFLatency)
1231:Drivers/STM32G4xx_HAL_Driver/Src/stm32g4xx_hal_rcc.c **** {
1232:Drivers/STM32G4xx_HAL_Driver/Src/stm32g4xx_hal_rcc.c ****   /* Check the parameters */
1233:Drivers/STM32G4xx_HAL_Driver/Src/stm32g4xx_hal_rcc.c ****   assert_param(RCC_ClkInitStruct != (void  *)NULL);
1234:Drivers/STM32G4xx_HAL_Driver/Src/stm32g4xx_hal_rcc.c ****   assert_param(pFLatency != (void *)NULL);
1235:Drivers/STM32G4xx_HAL_Driver/Src/stm32g4xx_hal_rcc.c **** 
1236:Drivers/STM32G4xx_HAL_Driver/Src/stm32g4xx_hal_rcc.c ****   /* Set all possible values for the Clock type parameter --------------------*/
1237:Drivers/STM32G4xx_HAL_Driver/Src/stm32g4xx_hal_rcc.c ****   RCC_ClkInitStruct->ClockType = RCC_CLOCKTYPE_SYSCLK | RCC_CLOCKTYPE_HCLK | RCC_CLOCKTYPE_PCLK1 | 
1238:Drivers/STM32G4xx_HAL_Driver/Src/stm32g4xx_hal_rcc.c **** 
1239:Drivers/STM32G4xx_HAL_Driver/Src/stm32g4xx_hal_rcc.c ****   /* Get the SYSCLK configuration --------------------------------------------*/
1240:Drivers/STM32G4xx_HAL_Driver/Src/stm32g4xx_hal_rcc.c ****   RCC_ClkInitStruct->SYSCLKSource = READ_BIT(RCC->CFGR, RCC_CFGR_SW);
1241:Drivers/STM32G4xx_HAL_Driver/Src/stm32g4xx_hal_rcc.c **** 
1242:Drivers/STM32G4xx_HAL_Driver/Src/stm32g4xx_hal_rcc.c ****   /* Get the HCLK configuration ----------------------------------------------*/
1243:Drivers/STM32G4xx_HAL_Driver/Src/stm32g4xx_hal_rcc.c ****   RCC_ClkInitStruct->AHBCLKDivider = READ_BIT(RCC->CFGR, RCC_CFGR_HPRE);
1244:Drivers/STM32G4xx_HAL_Driver/Src/stm32g4xx_hal_rcc.c **** 
1245:Drivers/STM32G4xx_HAL_Driver/Src/stm32g4xx_hal_rcc.c ****   /* Get the APB1 configuration ----------------------------------------------*/
1246:Drivers/STM32G4xx_HAL_Driver/Src/stm32g4xx_hal_rcc.c ****   RCC_ClkInitStruct->APB1CLKDivider = READ_BIT(RCC->CFGR, RCC_CFGR_PPRE1);
1247:Drivers/STM32G4xx_HAL_Driver/Src/stm32g4xx_hal_rcc.c **** 
1248:Drivers/STM32G4xx_HAL_Driver/Src/stm32g4xx_hal_rcc.c ****   /* Get the APB2 configuration ----------------------------------------------*/
1249:Drivers/STM32G4xx_HAL_Driver/Src/stm32g4xx_hal_rcc.c ****   RCC_ClkInitStruct->APB2CLKDivider = (READ_BIT(RCC->CFGR, RCC_CFGR_PPRE2) >> 3U);
1250:Drivers/STM32G4xx_HAL_Driver/Src/stm32g4xx_hal_rcc.c **** 
1251:Drivers/STM32G4xx_HAL_Driver/Src/stm32g4xx_hal_rcc.c ****   /* Get the Flash Wait State (Latency) configuration ------------------------*/
1252:Drivers/STM32G4xx_HAL_Driver/Src/stm32g4xx_hal_rcc.c ****   *pFLatency = __HAL_FLASH_GET_LATENCY();
1253:Drivers/STM32G4xx_HAL_Driver/Src/stm32g4xx_hal_rcc.c **** }
1254:Drivers/STM32G4xx_HAL_Driver/Src/stm32g4xx_hal_rcc.c **** 
1255:Drivers/STM32G4xx_HAL_Driver/Src/stm32g4xx_hal_rcc.c **** /**
1256:Drivers/STM32G4xx_HAL_Driver/Src/stm32g4xx_hal_rcc.c ****   * @brief  Enable the Clock Security System.
1257:Drivers/STM32G4xx_HAL_Driver/Src/stm32g4xx_hal_rcc.c ****   * @note   If a failure is detected on the HSE oscillator clock, this oscillator
1258:Drivers/STM32G4xx_HAL_Driver/Src/stm32g4xx_hal_rcc.c ****   *         is automatically disabled and an interrupt is generated to inform the
1259:Drivers/STM32G4xx_HAL_Driver/Src/stm32g4xx_hal_rcc.c ****   *         software about the failure (Clock Security System Interrupt, CSSI),
1260:Drivers/STM32G4xx_HAL_Driver/Src/stm32g4xx_hal_rcc.c ****   *         allowing the MCU to perform rescue operations. The CSSI is linked to
1261:Drivers/STM32G4xx_HAL_Driver/Src/stm32g4xx_hal_rcc.c ****   *         the Cortex-M4 NMI (Non-Maskable Interrupt) exception vector.
1262:Drivers/STM32G4xx_HAL_Driver/Src/stm32g4xx_hal_rcc.c ****   * @note   The Clock Security System can only be cleared by reset.
1263:Drivers/STM32G4xx_HAL_Driver/Src/stm32g4xx_hal_rcc.c ****   * @retval None
1264:Drivers/STM32G4xx_HAL_Driver/Src/stm32g4xx_hal_rcc.c ****   */
1265:Drivers/STM32G4xx_HAL_Driver/Src/stm32g4xx_hal_rcc.c **** void HAL_RCC_EnableCSS(void)
1266:Drivers/STM32G4xx_HAL_Driver/Src/stm32g4xx_hal_rcc.c **** {
1267:Drivers/STM32G4xx_HAL_Driver/Src/stm32g4xx_hal_rcc.c ****   SET_BIT(RCC->CR, RCC_CR_CSSON) ;
1268:Drivers/STM32G4xx_HAL_Driver/Src/stm32g4xx_hal_rcc.c **** }
1269:Drivers/STM32G4xx_HAL_Driver/Src/stm32g4xx_hal_rcc.c **** 
1270:Drivers/STM32G4xx_HAL_Driver/Src/stm32g4xx_hal_rcc.c **** /**
1271:Drivers/STM32G4xx_HAL_Driver/Src/stm32g4xx_hal_rcc.c ****   * @brief  Enable the LSE Clock Security System.
1272:Drivers/STM32G4xx_HAL_Driver/Src/stm32g4xx_hal_rcc.c ****   * @note   If a failure is detected on the external 32 kHz oscillator,
1273:Drivers/STM32G4xx_HAL_Driver/Src/stm32g4xx_hal_rcc.c ****   *         the LSE clock is no longer supplied to the RTC but no hardware action
1274:Drivers/STM32G4xx_HAL_Driver/Src/stm32g4xx_hal_rcc.c ****   *         is made to the registers. If enabled, an interrupt will be generated
1275:Drivers/STM32G4xx_HAL_Driver/Src/stm32g4xx_hal_rcc.c ****   *         and handle through @ref RCCEx_EXTI_LINE_LSECSS
1276:Drivers/STM32G4xx_HAL_Driver/Src/stm32g4xx_hal_rcc.c ****   * @note   The Clock Security System can only be cleared by reset or after a LSE failure detection
1277:Drivers/STM32G4xx_HAL_Driver/Src/stm32g4xx_hal_rcc.c ****   * @retval None
1278:Drivers/STM32G4xx_HAL_Driver/Src/stm32g4xx_hal_rcc.c ****   */
1279:Drivers/STM32G4xx_HAL_Driver/Src/stm32g4xx_hal_rcc.c **** void HAL_RCC_EnableLSECSS(void)
1280:Drivers/STM32G4xx_HAL_Driver/Src/stm32g4xx_hal_rcc.c **** {
1281:Drivers/STM32G4xx_HAL_Driver/Src/stm32g4xx_hal_rcc.c ****   SET_BIT(RCC->BDCR, RCC_BDCR_LSECSSON) ;
1282:Drivers/STM32G4xx_HAL_Driver/Src/stm32g4xx_hal_rcc.c **** }
1283:Drivers/STM32G4xx_HAL_Driver/Src/stm32g4xx_hal_rcc.c **** 
1284:Drivers/STM32G4xx_HAL_Driver/Src/stm32g4xx_hal_rcc.c **** /**
1285:Drivers/STM32G4xx_HAL_Driver/Src/stm32g4xx_hal_rcc.c ****   * @brief  Disable the LSE Clock Security System.
ARM GAS  /tmp/ccz2x4IP.s 			page 24


1286:Drivers/STM32G4xx_HAL_Driver/Src/stm32g4xx_hal_rcc.c ****   * @note   After LSE failure detection, the software must disable LSECSSON
1287:Drivers/STM32G4xx_HAL_Driver/Src/stm32g4xx_hal_rcc.c ****   * @note   The Clock Security System can only be cleared by reset otherwise.
1288:Drivers/STM32G4xx_HAL_Driver/Src/stm32g4xx_hal_rcc.c ****   * @retval None
1289:Drivers/STM32G4xx_HAL_Driver/Src/stm32g4xx_hal_rcc.c ****   */
1290:Drivers/STM32G4xx_HAL_Driver/Src/stm32g4xx_hal_rcc.c **** void HAL_RCC_DisableLSECSS(void)
1291:Drivers/STM32G4xx_HAL_Driver/Src/stm32g4xx_hal_rcc.c **** {
1292:Drivers/STM32G4xx_HAL_Driver/Src/stm32g4xx_hal_rcc.c ****   CLEAR_BIT(RCC->BDCR, RCC_BDCR_LSECSSON) ;
1293:Drivers/STM32G4xx_HAL_Driver/Src/stm32g4xx_hal_rcc.c **** }
1294:Drivers/STM32G4xx_HAL_Driver/Src/stm32g4xx_hal_rcc.c **** 
1295:Drivers/STM32G4xx_HAL_Driver/Src/stm32g4xx_hal_rcc.c **** /**
1296:Drivers/STM32G4xx_HAL_Driver/Src/stm32g4xx_hal_rcc.c ****   * @brief Handle the RCC Clock Security System interrupt request.
1297:Drivers/STM32G4xx_HAL_Driver/Src/stm32g4xx_hal_rcc.c ****   * @note This API should be called under the NMI_Handler().
1298:Drivers/STM32G4xx_HAL_Driver/Src/stm32g4xx_hal_rcc.c ****   * @retval None
1299:Drivers/STM32G4xx_HAL_Driver/Src/stm32g4xx_hal_rcc.c ****   */
1300:Drivers/STM32G4xx_HAL_Driver/Src/stm32g4xx_hal_rcc.c **** void HAL_RCC_NMI_IRQHandler(void)
1301:Drivers/STM32G4xx_HAL_Driver/Src/stm32g4xx_hal_rcc.c **** {
1302:Drivers/STM32G4xx_HAL_Driver/Src/stm32g4xx_hal_rcc.c ****   /* Check RCC CSSF interrupt flag  */
1303:Drivers/STM32G4xx_HAL_Driver/Src/stm32g4xx_hal_rcc.c ****   if(__HAL_RCC_GET_IT(RCC_IT_CSS))
1304:Drivers/STM32G4xx_HAL_Driver/Src/stm32g4xx_hal_rcc.c ****   {
1305:Drivers/STM32G4xx_HAL_Driver/Src/stm32g4xx_hal_rcc.c ****     /* RCC Clock Security System interrupt user callback */
1306:Drivers/STM32G4xx_HAL_Driver/Src/stm32g4xx_hal_rcc.c ****     HAL_RCC_CSSCallback();
1307:Drivers/STM32G4xx_HAL_Driver/Src/stm32g4xx_hal_rcc.c **** 
1308:Drivers/STM32G4xx_HAL_Driver/Src/stm32g4xx_hal_rcc.c ****     /* Clear RCC CSS pending bit */
1309:Drivers/STM32G4xx_HAL_Driver/Src/stm32g4xx_hal_rcc.c ****     __HAL_RCC_CLEAR_IT(RCC_IT_CSS);
1310:Drivers/STM32G4xx_HAL_Driver/Src/stm32g4xx_hal_rcc.c ****   }
1311:Drivers/STM32G4xx_HAL_Driver/Src/stm32g4xx_hal_rcc.c **** }
1312:Drivers/STM32G4xx_HAL_Driver/Src/stm32g4xx_hal_rcc.c **** 
1313:Drivers/STM32G4xx_HAL_Driver/Src/stm32g4xx_hal_rcc.c **** /**
1314:Drivers/STM32G4xx_HAL_Driver/Src/stm32g4xx_hal_rcc.c ****   * @brief  RCC Clock Security System interrupt callback.
1315:Drivers/STM32G4xx_HAL_Driver/Src/stm32g4xx_hal_rcc.c ****   * @retval none
1316:Drivers/STM32G4xx_HAL_Driver/Src/stm32g4xx_hal_rcc.c ****   */
1317:Drivers/STM32G4xx_HAL_Driver/Src/stm32g4xx_hal_rcc.c **** __weak void HAL_RCC_CSSCallback(void)
1318:Drivers/STM32G4xx_HAL_Driver/Src/stm32g4xx_hal_rcc.c **** {
1319:Drivers/STM32G4xx_HAL_Driver/Src/stm32g4xx_hal_rcc.c ****   /* NOTE : This function should not be modified, when the callback is needed,
1320:Drivers/STM32G4xx_HAL_Driver/Src/stm32g4xx_hal_rcc.c ****             the HAL_RCC_CSSCallback should be implemented in the user file
1321:Drivers/STM32G4xx_HAL_Driver/Src/stm32g4xx_hal_rcc.c ****    */
1322:Drivers/STM32G4xx_HAL_Driver/Src/stm32g4xx_hal_rcc.c **** }
1323:Drivers/STM32G4xx_HAL_Driver/Src/stm32g4xx_hal_rcc.c **** 
1324:Drivers/STM32G4xx_HAL_Driver/Src/stm32g4xx_hal_rcc.c **** /**
1325:Drivers/STM32G4xx_HAL_Driver/Src/stm32g4xx_hal_rcc.c ****   * @}
1326:Drivers/STM32G4xx_HAL_Driver/Src/stm32g4xx_hal_rcc.c ****   */
1327:Drivers/STM32G4xx_HAL_Driver/Src/stm32g4xx_hal_rcc.c **** 
1328:Drivers/STM32G4xx_HAL_Driver/Src/stm32g4xx_hal_rcc.c **** /**
1329:Drivers/STM32G4xx_HAL_Driver/Src/stm32g4xx_hal_rcc.c ****   * @}
1330:Drivers/STM32G4xx_HAL_Driver/Src/stm32g4xx_hal_rcc.c ****   */
1331:Drivers/STM32G4xx_HAL_Driver/Src/stm32g4xx_hal_rcc.c **** 
1332:Drivers/STM32G4xx_HAL_Driver/Src/stm32g4xx_hal_rcc.c **** /* Private function prototypes -----------------------------------------------*/
1333:Drivers/STM32G4xx_HAL_Driver/Src/stm32g4xx_hal_rcc.c **** /** @addtogroup RCC_Private_Functions
1334:Drivers/STM32G4xx_HAL_Driver/Src/stm32g4xx_hal_rcc.c ****   * @{
1335:Drivers/STM32G4xx_HAL_Driver/Src/stm32g4xx_hal_rcc.c ****   */
1336:Drivers/STM32G4xx_HAL_Driver/Src/stm32g4xx_hal_rcc.c **** 
1337:Drivers/STM32G4xx_HAL_Driver/Src/stm32g4xx_hal_rcc.c **** /**
1338:Drivers/STM32G4xx_HAL_Driver/Src/stm32g4xx_hal_rcc.c ****   * @brief  Compute SYSCLK frequency based on PLL SYSCLK source.
1339:Drivers/STM32G4xx_HAL_Driver/Src/stm32g4xx_hal_rcc.c ****   * @retval SYSCLK frequency
1340:Drivers/STM32G4xx_HAL_Driver/Src/stm32g4xx_hal_rcc.c ****   */
1341:Drivers/STM32G4xx_HAL_Driver/Src/stm32g4xx_hal_rcc.c **** static uint32_t RCC_GetSysClockFreqFromPLLSource(void)
1342:Drivers/STM32G4xx_HAL_Driver/Src/stm32g4xx_hal_rcc.c **** {
ARM GAS  /tmp/ccz2x4IP.s 			page 25


  28              		.loc 1 1342 1 view -0
  29              		.cfi_startproc
  30              		@ args = 0, pretend = 0, frame = 0
  31              		@ frame_needed = 0, uses_anonymous_args = 0
  32              		@ link register save eliminated.
1343:Drivers/STM32G4xx_HAL_Driver/Src/stm32g4xx_hal_rcc.c ****   uint32_t pllvco, pllsource, pllr, pllm;
  33              		.loc 1 1343 3 view .LVU1
1344:Drivers/STM32G4xx_HAL_Driver/Src/stm32g4xx_hal_rcc.c ****   uint32_t sysclockfreq;
  34              		.loc 1 1344 3 view .LVU2
1345:Drivers/STM32G4xx_HAL_Driver/Src/stm32g4xx_hal_rcc.c **** 
1346:Drivers/STM32G4xx_HAL_Driver/Src/stm32g4xx_hal_rcc.c ****   /* PLL_VCO = (HSE_VALUE or HSI_VALUE/ PLLM) * PLLN
1347:Drivers/STM32G4xx_HAL_Driver/Src/stm32g4xx_hal_rcc.c ****      SYSCLK = PLL_VCO / PLLR
1348:Drivers/STM32G4xx_HAL_Driver/Src/stm32g4xx_hal_rcc.c ****    */
1349:Drivers/STM32G4xx_HAL_Driver/Src/stm32g4xx_hal_rcc.c ****   pllsource = READ_BIT(RCC->PLLCFGR, RCC_PLLCFGR_PLLSRC);
  35              		.loc 1 1349 3 view .LVU3
  36              		.loc 1 1349 15 is_stmt 0 view .LVU4
  37 0000 124A     		ldr	r2, .L5
  38 0002 D368     		ldr	r3, [r2, #12]
  39              		.loc 1 1349 13 view .LVU5
  40 0004 03F00303 		and	r3, r3, #3
  41              	.LVL0:
1350:Drivers/STM32G4xx_HAL_Driver/Src/stm32g4xx_hal_rcc.c ****   pllm = (READ_BIT(RCC->PLLCFGR, RCC_PLLCFGR_PLLM) >> RCC_PLLCFGR_PLLM_Pos) + 1U ;
  42              		.loc 1 1350 3 is_stmt 1 view .LVU6
  43              		.loc 1 1350 11 is_stmt 0 view .LVU7
  44 0008 D068     		ldr	r0, [r2, #12]
  45              		.loc 1 1350 52 view .LVU8
  46 000a C0F30310 		ubfx	r0, r0, #4, #4
  47              		.loc 1 1350 8 view .LVU9
  48 000e 0130     		adds	r0, r0, #1
  49              	.LVL1:
1351:Drivers/STM32G4xx_HAL_Driver/Src/stm32g4xx_hal_rcc.c **** 
1352:Drivers/STM32G4xx_HAL_Driver/Src/stm32g4xx_hal_rcc.c ****   switch (pllsource)
  50              		.loc 1 1352 3 is_stmt 1 view .LVU10
  51 0010 032B     		cmp	r3, #3
  52 0012 11D0     		beq	.L4
1353:Drivers/STM32G4xx_HAL_Driver/Src/stm32g4xx_hal_rcc.c ****   {
1354:Drivers/STM32G4xx_HAL_Driver/Src/stm32g4xx_hal_rcc.c ****   case RCC_PLLSOURCE_HSE:  /* HSE used as PLL clock source */
1355:Drivers/STM32G4xx_HAL_Driver/Src/stm32g4xx_hal_rcc.c ****     pllvco = (HSE_VALUE / pllm) * (READ_BIT(RCC->PLLCFGR, RCC_PLLCFGR_PLLN) >> RCC_PLLCFGR_PLLN_Pos
1356:Drivers/STM32G4xx_HAL_Driver/Src/stm32g4xx_hal_rcc.c ****     break;
1357:Drivers/STM32G4xx_HAL_Driver/Src/stm32g4xx_hal_rcc.c **** 
1358:Drivers/STM32G4xx_HAL_Driver/Src/stm32g4xx_hal_rcc.c ****   case RCC_PLLSOURCE_HSI:  /* HSI used as PLL clock source */
1359:Drivers/STM32G4xx_HAL_Driver/Src/stm32g4xx_hal_rcc.c ****   default:
1360:Drivers/STM32G4xx_HAL_Driver/Src/stm32g4xx_hal_rcc.c ****     pllvco = (HSI_VALUE / pllm) * (READ_BIT(RCC->PLLCFGR, RCC_PLLCFGR_PLLN) >> RCC_PLLCFGR_PLLN_Pos
  53              		.loc 1 1360 5 view .LVU11
  54              		.loc 1 1360 25 is_stmt 0 view .LVU12
  55 0014 0E4B     		ldr	r3, .L5+4
  56              	.LVL2:
  57              		.loc 1 1360 25 view .LVU13
  58 0016 B3FBF0F3 		udiv	r3, r3, r0
  59              		.loc 1 1360 36 view .LVU14
  60 001a 0C4A     		ldr	r2, .L5
  61 001c D068     		ldr	r0, [r2, #12]
  62              	.LVL3:
  63              		.loc 1 1360 77 view .LVU15
  64 001e C0F30620 		ubfx	r0, r0, #8, #7
  65              		.loc 1 1360 12 view .LVU16
  66 0022 00FB03F0 		mul	r0, r0, r3
ARM GAS  /tmp/ccz2x4IP.s 			page 26


  67              	.LVL4:
1361:Drivers/STM32G4xx_HAL_Driver/Src/stm32g4xx_hal_rcc.c ****     break;
  68              		.loc 1 1361 5 is_stmt 1 view .LVU17
  69              	.L3:
1362:Drivers/STM32G4xx_HAL_Driver/Src/stm32g4xx_hal_rcc.c ****   }
1363:Drivers/STM32G4xx_HAL_Driver/Src/stm32g4xx_hal_rcc.c **** 
1364:Drivers/STM32G4xx_HAL_Driver/Src/stm32g4xx_hal_rcc.c ****   pllr = ((READ_BIT(RCC->PLLCFGR, RCC_PLLCFGR_PLLR) >> RCC_PLLCFGR_PLLR_Pos) + 1U ) * 2U;
  70              		.loc 1 1364 3 view .LVU18
  71              		.loc 1 1364 12 is_stmt 0 view .LVU19
  72 0026 094B     		ldr	r3, .L5
  73 0028 DB68     		ldr	r3, [r3, #12]
  74              		.loc 1 1364 53 view .LVU20
  75 002a C3F34163 		ubfx	r3, r3, #25, #2
  76              		.loc 1 1364 78 view .LVU21
  77 002e 0133     		adds	r3, r3, #1
  78              		.loc 1 1364 8 view .LVU22
  79 0030 5B00     		lsls	r3, r3, #1
  80              	.LVL5:
1365:Drivers/STM32G4xx_HAL_Driver/Src/stm32g4xx_hal_rcc.c ****   sysclockfreq = pllvco/pllr;
  81              		.loc 1 1365 3 is_stmt 1 view .LVU23
1366:Drivers/STM32G4xx_HAL_Driver/Src/stm32g4xx_hal_rcc.c **** 
1367:Drivers/STM32G4xx_HAL_Driver/Src/stm32g4xx_hal_rcc.c ****   return sysclockfreq;
  82              		.loc 1 1367 3 view .LVU24
1368:Drivers/STM32G4xx_HAL_Driver/Src/stm32g4xx_hal_rcc.c **** }
  83              		.loc 1 1368 1 is_stmt 0 view .LVU25
  84 0032 B0FBF3F0 		udiv	r0, r0, r3
  85              	.LVL6:
  86              		.loc 1 1368 1 view .LVU26
  87 0036 7047     		bx	lr
  88              	.LVL7:
  89              	.L4:
1355:Drivers/STM32G4xx_HAL_Driver/Src/stm32g4xx_hal_rcc.c ****     break;
  90              		.loc 1 1355 5 is_stmt 1 view .LVU27
1355:Drivers/STM32G4xx_HAL_Driver/Src/stm32g4xx_hal_rcc.c ****     break;
  91              		.loc 1 1355 25 is_stmt 0 view .LVU28
  92 0038 064B     		ldr	r3, .L5+8
  93              	.LVL8:
1355:Drivers/STM32G4xx_HAL_Driver/Src/stm32g4xx_hal_rcc.c ****     break;
  94              		.loc 1 1355 25 view .LVU29
  95 003a B3FBF0F3 		udiv	r3, r3, r0
1355:Drivers/STM32G4xx_HAL_Driver/Src/stm32g4xx_hal_rcc.c ****     break;
  96              		.loc 1 1355 36 view .LVU30
  97 003e D068     		ldr	r0, [r2, #12]
  98              	.LVL9:
1355:Drivers/STM32G4xx_HAL_Driver/Src/stm32g4xx_hal_rcc.c ****     break;
  99              		.loc 1 1355 77 view .LVU31
 100 0040 C0F30620 		ubfx	r0, r0, #8, #7
1355:Drivers/STM32G4xx_HAL_Driver/Src/stm32g4xx_hal_rcc.c ****     break;
 101              		.loc 1 1355 12 view .LVU32
 102 0044 00FB03F0 		mul	r0, r0, r3
 103              	.LVL10:
1356:Drivers/STM32G4xx_HAL_Driver/Src/stm32g4xx_hal_rcc.c **** 
 104              		.loc 1 1356 5 is_stmt 1 view .LVU33
 105 0048 EDE7     		b	.L3
 106              	.L6:
 107 004a 00BF     		.align	2
 108              	.L5:
ARM GAS  /tmp/ccz2x4IP.s 			page 27


 109 004c 00100240 		.word	1073876992
 110 0050 0024F400 		.word	16000000
 111 0054 00366E01 		.word	24000000
 112              		.cfi_endproc
 113              	.LFE147:
 115              		.section	.text.HAL_RCC_DeInit,"ax",%progbits
 116              		.align	1
 117              		.global	HAL_RCC_DeInit
 118              		.syntax unified
 119              		.thumb
 120              		.thumb_func
 121              		.fpu fpv4-sp-d16
 123              	HAL_RCC_DeInit:
 124              	.LFB132:
 218:Drivers/STM32G4xx_HAL_Driver/Src/stm32g4xx_hal_rcc.c ****   uint32_t tickstart;
 125              		.loc 1 218 1 view -0
 126              		.cfi_startproc
 127              		@ args = 0, pretend = 0, frame = 0
 128              		@ frame_needed = 0, uses_anonymous_args = 0
 129 0000 38B5     		push	{r3, r4, r5, lr}
 130              	.LCFI0:
 131              		.cfi_def_cfa_offset 16
 132              		.cfi_offset 3, -16
 133              		.cfi_offset 4, -12
 134              		.cfi_offset 5, -8
 135              		.cfi_offset 14, -4
 219:Drivers/STM32G4xx_HAL_Driver/Src/stm32g4xx_hal_rcc.c **** 
 136              		.loc 1 219 3 view .LVU35
 222:Drivers/STM32G4xx_HAL_Driver/Src/stm32g4xx_hal_rcc.c **** 
 137              		.loc 1 222 3 view .LVU36
 222:Drivers/STM32G4xx_HAL_Driver/Src/stm32g4xx_hal_rcc.c **** 
 138              		.loc 1 222 15 is_stmt 0 view .LVU37
 139 0002 FFF7FEFF 		bl	HAL_GetTick
 140              	.LVL11:
 141 0006 0446     		mov	r4, r0
 142              	.LVL12:
 225:Drivers/STM32G4xx_HAL_Driver/Src/stm32g4xx_hal_rcc.c **** 
 143              		.loc 1 225 3 is_stmt 1 view .LVU38
 144 0008 2C4A     		ldr	r2, .L24
 145 000a 1368     		ldr	r3, [r2]
 146 000c 43F48073 		orr	r3, r3, #256
 147 0010 1360     		str	r3, [r2]
 228:Drivers/STM32G4xx_HAL_Driver/Src/stm32g4xx_hal_rcc.c ****   {
 148              		.loc 1 228 3 view .LVU39
 149              	.LVL13:
 150              	.L8:
 228:Drivers/STM32G4xx_HAL_Driver/Src/stm32g4xx_hal_rcc.c ****   {
 151              		.loc 1 228 9 view .LVU40
 228:Drivers/STM32G4xx_HAL_Driver/Src/stm32g4xx_hal_rcc.c ****   {
 152              		.loc 1 228 10 is_stmt 0 view .LVU41
 153 0012 2A4B     		ldr	r3, .L24
 154 0014 1B68     		ldr	r3, [r3]
 228:Drivers/STM32G4xx_HAL_Driver/Src/stm32g4xx_hal_rcc.c ****   {
 155              		.loc 1 228 9 view .LVU42
 156 0016 13F4806F 		tst	r3, #1024
 157 001a 07D1     		bne	.L20
 230:Drivers/STM32G4xx_HAL_Driver/Src/stm32g4xx_hal_rcc.c ****     {
ARM GAS  /tmp/ccz2x4IP.s 			page 28


 158              		.loc 1 230 5 is_stmt 1 view .LVU43
 230:Drivers/STM32G4xx_HAL_Driver/Src/stm32g4xx_hal_rcc.c ****     {
 159              		.loc 1 230 10 is_stmt 0 view .LVU44
 160 001c FFF7FEFF 		bl	HAL_GetTick
 161              	.LVL14:
 230:Drivers/STM32G4xx_HAL_Driver/Src/stm32g4xx_hal_rcc.c ****     {
 162              		.loc 1 230 24 view .LVU45
 163 0020 001B     		subs	r0, r0, r4
 230:Drivers/STM32G4xx_HAL_Driver/Src/stm32g4xx_hal_rcc.c ****     {
 164              		.loc 1 230 8 view .LVU46
 165 0022 0228     		cmp	r0, #2
 166 0024 F5D9     		bls	.L8
 232:Drivers/STM32G4xx_HAL_Driver/Src/stm32g4xx_hal_rcc.c ****     }
 167              		.loc 1 232 14 view .LVU47
 168 0026 0324     		movs	r4, #3
 169              	.LVL15:
 170              	.L9:
 294:Drivers/STM32G4xx_HAL_Driver/Src/stm32g4xx_hal_rcc.c **** 
 171              		.loc 1 294 1 view .LVU48
 172 0028 2046     		mov	r0, r4
 173 002a 38BD     		pop	{r3, r4, r5, pc}
 174              	.LVL16:
 175              	.L20:
 237:Drivers/STM32G4xx_HAL_Driver/Src/stm32g4xx_hal_rcc.c **** 
 176              		.loc 1 237 3 is_stmt 1 view .LVU49
 177 002c 234D     		ldr	r5, .L24
 178 002e 6B68     		ldr	r3, [r5, #4]
 179 0030 43F08043 		orr	r3, r3, #1073741824
 180 0034 6B60     		str	r3, [r5, #4]
 240:Drivers/STM32G4xx_HAL_Driver/Src/stm32g4xx_hal_rcc.c **** 
 181              		.loc 1 240 3 view .LVU50
 240:Drivers/STM32G4xx_HAL_Driver/Src/stm32g4xx_hal_rcc.c **** 
 182              		.loc 1 240 15 is_stmt 0 view .LVU51
 183 0036 FFF7FEFF 		bl	HAL_GetTick
 184              	.LVL17:
 185 003a 0446     		mov	r4, r0
 186              	.LVL18:
 243:Drivers/STM32G4xx_HAL_Driver/Src/stm32g4xx_hal_rcc.c **** 
 187              		.loc 1 243 3 is_stmt 1 view .LVU52
 243:Drivers/STM32G4xx_HAL_Driver/Src/stm32g4xx_hal_rcc.c **** 
 188              		.loc 1 243 13 is_stmt 0 view .LVU53
 189 003c 0123     		movs	r3, #1
 190 003e AB60     		str	r3, [r5, #8]
 246:Drivers/STM32G4xx_HAL_Driver/Src/stm32g4xx_hal_rcc.c ****   {
 191              		.loc 1 246 3 is_stmt 1 view .LVU54
 192              	.LVL19:
 193              	.L11:
 246:Drivers/STM32G4xx_HAL_Driver/Src/stm32g4xx_hal_rcc.c ****   {
 194              		.loc 1 246 9 view .LVU55
 246:Drivers/STM32G4xx_HAL_Driver/Src/stm32g4xx_hal_rcc.c ****   {
 195              		.loc 1 246 10 is_stmt 0 view .LVU56
 196 0040 1E4B     		ldr	r3, .L24
 197 0042 9B68     		ldr	r3, [r3, #8]
 198 0044 03F00C03 		and	r3, r3, #12
 246:Drivers/STM32G4xx_HAL_Driver/Src/stm32g4xx_hal_rcc.c ****   {
 199              		.loc 1 246 9 view .LVU57
 200 0048 042B     		cmp	r3, #4
ARM GAS  /tmp/ccz2x4IP.s 			page 29


 201 004a 08D0     		beq	.L21
 248:Drivers/STM32G4xx_HAL_Driver/Src/stm32g4xx_hal_rcc.c ****     {
 202              		.loc 1 248 5 is_stmt 1 view .LVU58
 248:Drivers/STM32G4xx_HAL_Driver/Src/stm32g4xx_hal_rcc.c ****     {
 203              		.loc 1 248 10 is_stmt 0 view .LVU59
 204 004c FFF7FEFF 		bl	HAL_GetTick
 205              	.LVL20:
 248:Drivers/STM32G4xx_HAL_Driver/Src/stm32g4xx_hal_rcc.c ****     {
 206              		.loc 1 248 24 view .LVU60
 207 0050 001B     		subs	r0, r0, r4
 248:Drivers/STM32G4xx_HAL_Driver/Src/stm32g4xx_hal_rcc.c ****     {
 208              		.loc 1 248 8 view .LVU61
 209 0052 41F28833 		movw	r3, #5000
 210 0056 9842     		cmp	r0, r3
 211 0058 F2D9     		bls	.L11
 250:Drivers/STM32G4xx_HAL_Driver/Src/stm32g4xx_hal_rcc.c ****     }
 212              		.loc 1 250 14 view .LVU62
 213 005a 0324     		movs	r4, #3
 214              	.LVL21:
 250:Drivers/STM32G4xx_HAL_Driver/Src/stm32g4xx_hal_rcc.c ****     }
 215              		.loc 1 250 14 view .LVU63
 216 005c E4E7     		b	.L9
 217              	.LVL22:
 218              	.L21:
 255:Drivers/STM32G4xx_HAL_Driver/Src/stm32g4xx_hal_rcc.c **** 
 219              		.loc 1 255 3 is_stmt 1 view .LVU64
 255:Drivers/STM32G4xx_HAL_Driver/Src/stm32g4xx_hal_rcc.c **** 
 220              		.loc 1 255 19 is_stmt 0 view .LVU65
 221 005e 184B     		ldr	r3, .L24+4
 222 0060 184A     		ldr	r2, .L24+8
 223 0062 1A60     		str	r2, [r3]
 258:Drivers/STM32G4xx_HAL_Driver/Src/stm32g4xx_hal_rcc.c ****   {
 224              		.loc 1 258 3 is_stmt 1 view .LVU66
 258:Drivers/STM32G4xx_HAL_Driver/Src/stm32g4xx_hal_rcc.c ****   {
 225              		.loc 1 258 7 is_stmt 0 view .LVU67
 226 0064 184B     		ldr	r3, .L24+12
 227 0066 1868     		ldr	r0, [r3]
 228 0068 FFF7FEFF 		bl	HAL_InitTick
 229              	.LVL23:
 258:Drivers/STM32G4xx_HAL_Driver/Src/stm32g4xx_hal_rcc.c ****   {
 230              		.loc 1 258 6 view .LVU68
 231 006c 0446     		mov	r4, r0
 232              	.LVL24:
 258:Drivers/STM32G4xx_HAL_Driver/Src/stm32g4xx_hal_rcc.c ****   {
 233              		.loc 1 258 6 view .LVU69
 234 006e 08B1     		cbz	r0, .L22
 260:Drivers/STM32G4xx_HAL_Driver/Src/stm32g4xx_hal_rcc.c ****   }
 235              		.loc 1 260 12 view .LVU70
 236 0070 0124     		movs	r4, #1
 237 0072 D9E7     		b	.L9
 238              	.L22:
 264:Drivers/STM32G4xx_HAL_Driver/Src/stm32g4xx_hal_rcc.c **** 
 239              		.loc 1 264 3 is_stmt 1 view .LVU71
 264:Drivers/STM32G4xx_HAL_Driver/Src/stm32g4xx_hal_rcc.c **** 
 240              		.loc 1 264 11 is_stmt 0 view .LVU72
 241 0074 114B     		ldr	r3, .L24
 242 0076 4FF48072 		mov	r2, #256
ARM GAS  /tmp/ccz2x4IP.s 			page 30


 243 007a 1A60     		str	r2, [r3]
 267:Drivers/STM32G4xx_HAL_Driver/Src/stm32g4xx_hal_rcc.c **** 
 244              		.loc 1 267 3 is_stmt 1 view .LVU73
 267:Drivers/STM32G4xx_HAL_Driver/Src/stm32g4xx_hal_rcc.c **** 
 245              		.loc 1 267 11 is_stmt 0 view .LVU74
 246 007c 1A60     		str	r2, [r3]
 270:Drivers/STM32G4xx_HAL_Driver/Src/stm32g4xx_hal_rcc.c **** 
 247              		.loc 1 270 3 is_stmt 1 view .LVU75
 270:Drivers/STM32G4xx_HAL_Driver/Src/stm32g4xx_hal_rcc.c **** 
 248              		.loc 1 270 15 is_stmt 0 view .LVU76
 249 007e FFF7FEFF 		bl	HAL_GetTick
 250              	.LVL25:
 251 0082 0546     		mov	r5, r0
 252              	.LVL26:
 273:Drivers/STM32G4xx_HAL_Driver/Src/stm32g4xx_hal_rcc.c ****   {
 253              		.loc 1 273 3 is_stmt 1 view .LVU77
 254              	.L13:
 273:Drivers/STM32G4xx_HAL_Driver/Src/stm32g4xx_hal_rcc.c ****   {
 255              		.loc 1 273 9 view .LVU78
 273:Drivers/STM32G4xx_HAL_Driver/Src/stm32g4xx_hal_rcc.c ****   {
 256              		.loc 1 273 10 is_stmt 0 view .LVU79
 257 0084 0D4B     		ldr	r3, .L24
 258 0086 1B68     		ldr	r3, [r3]
 273:Drivers/STM32G4xx_HAL_Driver/Src/stm32g4xx_hal_rcc.c ****   {
 259              		.loc 1 273 9 view .LVU80
 260 0088 13F0007F 		tst	r3, #33554432
 261 008c 06D0     		beq	.L23
 275:Drivers/STM32G4xx_HAL_Driver/Src/stm32g4xx_hal_rcc.c ****     {
 262              		.loc 1 275 5 is_stmt 1 view .LVU81
 275:Drivers/STM32G4xx_HAL_Driver/Src/stm32g4xx_hal_rcc.c ****     {
 263              		.loc 1 275 10 is_stmt 0 view .LVU82
 264 008e FFF7FEFF 		bl	HAL_GetTick
 265              	.LVL27:
 275:Drivers/STM32G4xx_HAL_Driver/Src/stm32g4xx_hal_rcc.c ****     {
 266              		.loc 1 275 24 view .LVU83
 267 0092 401B     		subs	r0, r0, r5
 275:Drivers/STM32G4xx_HAL_Driver/Src/stm32g4xx_hal_rcc.c ****     {
 268              		.loc 1 275 8 view .LVU84
 269 0094 0228     		cmp	r0, #2
 270 0096 F5D9     		bls	.L13
 277:Drivers/STM32G4xx_HAL_Driver/Src/stm32g4xx_hal_rcc.c ****     }
 271              		.loc 1 277 14 view .LVU85
 272 0098 0324     		movs	r4, #3
 273 009a C5E7     		b	.L9
 274              	.L23:
 282:Drivers/STM32G4xx_HAL_Driver/Src/stm32g4xx_hal_rcc.c **** 
 275              		.loc 1 282 3 is_stmt 1 view .LVU86
 282:Drivers/STM32G4xx_HAL_Driver/Src/stm32g4xx_hal_rcc.c **** 
 276              		.loc 1 282 16 is_stmt 0 view .LVU87
 277 009c 074B     		ldr	r3, .L24
 278 009e 4FF48052 		mov	r2, #4096
 279 00a2 DA60     		str	r2, [r3, #12]
 285:Drivers/STM32G4xx_HAL_Driver/Src/stm32g4xx_hal_rcc.c **** 
 280              		.loc 1 285 3 is_stmt 1 view .LVU88
 281 00a4 0022     		movs	r2, #0
 282 00a6 9A61     		str	r2, [r3, #24]
 288:Drivers/STM32G4xx_HAL_Driver/Src/stm32g4xx_hal_rcc.c **** 
ARM GAS  /tmp/ccz2x4IP.s 			page 31


 283              		.loc 1 288 3 view .LVU89
 284 00a8 4FF0FF32 		mov	r2, #-1
 285 00ac 1A62     		str	r2, [r3, #32]
 291:Drivers/STM32G4xx_HAL_Driver/Src/stm32g4xx_hal_rcc.c **** 
 286              		.loc 1 291 3 view .LVU90
 287 00ae D3F89420 		ldr	r2, [r3, #148]
 288 00b2 42F40002 		orr	r2, r2, #8388608
 289 00b6 C3F89420 		str	r2, [r3, #148]
 293:Drivers/STM32G4xx_HAL_Driver/Src/stm32g4xx_hal_rcc.c **** }
 290              		.loc 1 293 3 view .LVU91
 293:Drivers/STM32G4xx_HAL_Driver/Src/stm32g4xx_hal_rcc.c **** }
 291              		.loc 1 293 10 is_stmt 0 view .LVU92
 292 00ba B5E7     		b	.L9
 293              	.L25:
 294              		.align	2
 295              	.L24:
 296 00bc 00100240 		.word	1073876992
 297 00c0 00000000 		.word	SystemCoreClock
 298 00c4 0024F400 		.word	16000000
 299 00c8 00000000 		.word	uwTickPrio
 300              		.cfi_endproc
 301              	.LFE132:
 303              		.section	.rodata.HAL_RCC_OscConfig.str1.4,"aMS",%progbits,1
 304              		.align	2
 305              	.LC0:
 306 0000 44726976 		.ascii	"Drivers/STM32G4xx_HAL_Driver/Src/stm32g4xx_hal_rcc."
 306      6572732F 
 306      53544D33 
 306      32473478 
 306      785F4841 
 307 0033 6300     		.ascii	"c\000"
 308              		.section	.text.HAL_RCC_OscConfig,"ax",%progbits
 309              		.align	1
 310              		.global	HAL_RCC_OscConfig
 311              		.syntax unified
 312              		.thumb
 313              		.thumb_func
 314              		.fpu fpv4-sp-d16
 316              	HAL_RCC_OscConfig:
 317              	.LVL28:
 318              	.LFB133:
 311:Drivers/STM32G4xx_HAL_Driver/Src/stm32g4xx_hal_rcc.c ****   uint32_t tickstart;
 319              		.loc 1 311 1 is_stmt 1 view -0
 320              		.cfi_startproc
 321              		@ args = 0, pretend = 0, frame = 8
 322              		@ frame_needed = 0, uses_anonymous_args = 0
 312:Drivers/STM32G4xx_HAL_Driver/Src/stm32g4xx_hal_rcc.c ****   uint32_t temp_sysclksrc;
 323              		.loc 1 312 3 view .LVU94
 313:Drivers/STM32G4xx_HAL_Driver/Src/stm32g4xx_hal_rcc.c ****   uint32_t temp_pllckcfg;
 324              		.loc 1 313 3 view .LVU95
 314:Drivers/STM32G4xx_HAL_Driver/Src/stm32g4xx_hal_rcc.c **** 
 325              		.loc 1 314 3 view .LVU96
 317:Drivers/STM32G4xx_HAL_Driver/Src/stm32g4xx_hal_rcc.c ****   {
 326              		.loc 1 317 3 view .LVU97
 317:Drivers/STM32G4xx_HAL_Driver/Src/stm32g4xx_hal_rcc.c ****   {
 327              		.loc 1 317 6 is_stmt 0 view .LVU98
 328 0000 0028     		cmp	r0, #0
ARM GAS  /tmp/ccz2x4IP.s 			page 32


 329 0002 00F0FF82 		beq	.L98
 311:Drivers/STM32G4xx_HAL_Driver/Src/stm32g4xx_hal_rcc.c ****   uint32_t tickstart;
 330              		.loc 1 311 1 view .LVU99
 331 0006 70B5     		push	{r4, r5, r6, lr}
 332              	.LCFI1:
 333              		.cfi_def_cfa_offset 16
 334              		.cfi_offset 4, -16
 335              		.cfi_offset 5, -12
 336              		.cfi_offset 6, -8
 337              		.cfi_offset 14, -4
 338 0008 82B0     		sub	sp, sp, #8
 339              	.LCFI2:
 340              		.cfi_def_cfa_offset 24
 341 000a 0446     		mov	r4, r0
 323:Drivers/STM32G4xx_HAL_Driver/Src/stm32g4xx_hal_rcc.c **** 
 342              		.loc 1 323 3 is_stmt 1 view .LVU100
 343 000c 0368     		ldr	r3, [r0]
 344 000e 13B1     		cbz	r3, .L28
 323:Drivers/STM32G4xx_HAL_Driver/Src/stm32g4xx_hal_rcc.c **** 
 345              		.loc 1 323 3 is_stmt 0 discriminator 1 view .LVU101
 346 0010 13F02F0F 		tst	r3, #47
 347 0014 38D0     		beq	.L129
 348              	.LVL29:
 349              	.L28:
 326:Drivers/STM32G4xx_HAL_Driver/Src/stm32g4xx_hal_rcc.c ****   {
 350              		.loc 1 326 3 is_stmt 1 view .LVU102
 326:Drivers/STM32G4xx_HAL_Driver/Src/stm32g4xx_hal_rcc.c ****   {
 351              		.loc 1 326 26 is_stmt 0 view .LVU103
 352 0016 2368     		ldr	r3, [r4]
 326:Drivers/STM32G4xx_HAL_Driver/Src/stm32g4xx_hal_rcc.c ****   {
 353              		.loc 1 326 6 view .LVU104
 354 0018 13F0010F 		tst	r3, #1
 355 001c 4BD0     		beq	.L29
 329:Drivers/STM32G4xx_HAL_Driver/Src/stm32g4xx_hal_rcc.c **** 
 356              		.loc 1 329 5 is_stmt 1 view .LVU105
 357 001e 6368     		ldr	r3, [r4, #4]
 358 0020 2BB1     		cbz	r3, .L30
 329:Drivers/STM32G4xx_HAL_Driver/Src/stm32g4xx_hal_rcc.c **** 
 359              		.loc 1 329 5 is_stmt 0 discriminator 1 view .LVU106
 360 0022 B3F5803F 		cmp	r3, #65536
 361 0026 02D0     		beq	.L30
 329:Drivers/STM32G4xx_HAL_Driver/Src/stm32g4xx_hal_rcc.c **** 
 362              		.loc 1 329 5 discriminator 2 view .LVU107
 363 0028 B3F5A02F 		cmp	r3, #327680
 364 002c 32D1     		bne	.L130
 365              	.L30:
 331:Drivers/STM32G4xx_HAL_Driver/Src/stm32g4xx_hal_rcc.c ****     temp_pllckcfg = __HAL_RCC_GET_PLL_OSCSOURCE();
 366              		.loc 1 331 5 is_stmt 1 view .LVU108
 331:Drivers/STM32G4xx_HAL_Driver/Src/stm32g4xx_hal_rcc.c ****     temp_pllckcfg = __HAL_RCC_GET_PLL_OSCSOURCE();
 367              		.loc 1 331 22 is_stmt 0 view .LVU109
 368 002e B24A     		ldr	r2, .L157
 369 0030 9368     		ldr	r3, [r2, #8]
 331:Drivers/STM32G4xx_HAL_Driver/Src/stm32g4xx_hal_rcc.c ****     temp_pllckcfg = __HAL_RCC_GET_PLL_OSCSOURCE();
 370              		.loc 1 331 20 view .LVU110
 371 0032 03F00C03 		and	r3, r3, #12
 372              	.LVL30:
 332:Drivers/STM32G4xx_HAL_Driver/Src/stm32g4xx_hal_rcc.c **** 
ARM GAS  /tmp/ccz2x4IP.s 			page 33


 373              		.loc 1 332 5 is_stmt 1 view .LVU111
 332:Drivers/STM32G4xx_HAL_Driver/Src/stm32g4xx_hal_rcc.c **** 
 374              		.loc 1 332 21 is_stmt 0 view .LVU112
 375 0036 D268     		ldr	r2, [r2, #12]
 332:Drivers/STM32G4xx_HAL_Driver/Src/stm32g4xx_hal_rcc.c **** 
 376              		.loc 1 332 19 view .LVU113
 377 0038 02F00302 		and	r2, r2, #3
 378              	.LVL31:
 335:Drivers/STM32G4xx_HAL_Driver/Src/stm32g4xx_hal_rcc.c ****     {
 379              		.loc 1 335 5 is_stmt 1 view .LVU114
 335:Drivers/STM32G4xx_HAL_Driver/Src/stm32g4xx_hal_rcc.c ****     {
 380              		.loc 1 335 8 is_stmt 0 view .LVU115
 381 003c 0C2B     		cmp	r3, #12
 382 003e 2FD0     		beq	.L131
 383              	.L31:
 335:Drivers/STM32G4xx_HAL_Driver/Src/stm32g4xx_hal_rcc.c ****     {
 384              		.loc 1 335 88 discriminator 3 view .LVU116
 385 0040 082B     		cmp	r3, #8
 386 0042 2FD0     		beq	.L32
 345:Drivers/STM32G4xx_HAL_Driver/Src/stm32g4xx_hal_rcc.c **** 
 387              		.loc 1 345 7 is_stmt 1 view .LVU117
 345:Drivers/STM32G4xx_HAL_Driver/Src/stm32g4xx_hal_rcc.c **** 
 388              		.loc 1 345 7 view .LVU118
 389 0044 6368     		ldr	r3, [r4, #4]
 390              	.LVL32:
 345:Drivers/STM32G4xx_HAL_Driver/Src/stm32g4xx_hal_rcc.c **** 
 391              		.loc 1 345 7 is_stmt 0 view .LVU119
 392 0046 B3F5803F 		cmp	r3, #65536
 393 004a 63D0     		beq	.L132
 345:Drivers/STM32G4xx_HAL_Driver/Src/stm32g4xx_hal_rcc.c **** 
 394              		.loc 1 345 7 is_stmt 1 discriminator 2 view .LVU120
 395 004c B3F5A02F 		cmp	r3, #327680
 396 0050 66D0     		beq	.L133
 345:Drivers/STM32G4xx_HAL_Driver/Src/stm32g4xx_hal_rcc.c **** 
 397              		.loc 1 345 7 discriminator 5 view .LVU121
 398 0052 A94B     		ldr	r3, .L157
 399 0054 1A68     		ldr	r2, [r3]
 400              	.LVL33:
 345:Drivers/STM32G4xx_HAL_Driver/Src/stm32g4xx_hal_rcc.c **** 
 401              		.loc 1 345 7 is_stmt 0 discriminator 5 view .LVU122
 402 0056 22F48032 		bic	r2, r2, #65536
 403 005a 1A60     		str	r2, [r3]
 345:Drivers/STM32G4xx_HAL_Driver/Src/stm32g4xx_hal_rcc.c **** 
 404              		.loc 1 345 7 is_stmt 1 discriminator 5 view .LVU123
 405 005c 1A68     		ldr	r2, [r3]
 406 005e 22F48022 		bic	r2, r2, #262144
 407 0062 1A60     		str	r2, [r3]
 408              	.L35:
 345:Drivers/STM32G4xx_HAL_Driver/Src/stm32g4xx_hal_rcc.c **** 
 409              		.loc 1 345 7 discriminator 7 view .LVU124
 348:Drivers/STM32G4xx_HAL_Driver/Src/stm32g4xx_hal_rcc.c ****       {
 410              		.loc 1 348 7 discriminator 7 view .LVU125
 348:Drivers/STM32G4xx_HAL_Driver/Src/stm32g4xx_hal_rcc.c ****       {
 411              		.loc 1 348 28 is_stmt 0 discriminator 7 view .LVU126
 412 0064 6368     		ldr	r3, [r4, #4]
 348:Drivers/STM32G4xx_HAL_Driver/Src/stm32g4xx_hal_rcc.c ****       {
 413              		.loc 1 348 10 discriminator 7 view .LVU127
ARM GAS  /tmp/ccz2x4IP.s 			page 34


 414 0066 002B     		cmp	r3, #0
 415 0068 67D0     		beq	.L37
 351:Drivers/STM32G4xx_HAL_Driver/Src/stm32g4xx_hal_rcc.c **** 
 416              		.loc 1 351 9 is_stmt 1 view .LVU128
 351:Drivers/STM32G4xx_HAL_Driver/Src/stm32g4xx_hal_rcc.c **** 
 417              		.loc 1 351 21 is_stmt 0 view .LVU129
 418 006a FFF7FEFF 		bl	HAL_GetTick
 419              	.LVL34:
 420 006e 0546     		mov	r5, r0
 421              	.LVL35:
 354:Drivers/STM32G4xx_HAL_Driver/Src/stm32g4xx_hal_rcc.c ****         {
 422              		.loc 1 354 9 is_stmt 1 view .LVU130
 423              	.L38:
 354:Drivers/STM32G4xx_HAL_Driver/Src/stm32g4xx_hal_rcc.c ****         {
 424              		.loc 1 354 15 view .LVU131
 354:Drivers/STM32G4xx_HAL_Driver/Src/stm32g4xx_hal_rcc.c ****         {
 425              		.loc 1 354 16 is_stmt 0 view .LVU132
 426 0070 A14B     		ldr	r3, .L157
 427 0072 1B68     		ldr	r3, [r3]
 354:Drivers/STM32G4xx_HAL_Driver/Src/stm32g4xx_hal_rcc.c ****         {
 428              		.loc 1 354 15 view .LVU133
 429 0074 13F4003F 		tst	r3, #131072
 430 0078 1DD1     		bne	.L29
 356:Drivers/STM32G4xx_HAL_Driver/Src/stm32g4xx_hal_rcc.c ****           {
 431              		.loc 1 356 11 is_stmt 1 view .LVU134
 356:Drivers/STM32G4xx_HAL_Driver/Src/stm32g4xx_hal_rcc.c ****           {
 432              		.loc 1 356 16 is_stmt 0 view .LVU135
 433 007a FFF7FEFF 		bl	HAL_GetTick
 434              	.LVL36:
 356:Drivers/STM32G4xx_HAL_Driver/Src/stm32g4xx_hal_rcc.c ****           {
 435              		.loc 1 356 30 view .LVU136
 436 007e 401B     		subs	r0, r0, r5
 356:Drivers/STM32G4xx_HAL_Driver/Src/stm32g4xx_hal_rcc.c ****           {
 437              		.loc 1 356 14 view .LVU137
 438 0080 6428     		cmp	r0, #100
 439 0082 F5D9     		bls	.L38
 358:Drivers/STM32G4xx_HAL_Driver/Src/stm32g4xx_hal_rcc.c ****           }
 440              		.loc 1 358 20 view .LVU138
 441 0084 0320     		movs	r0, #3
 442 0086 C6E2     		b	.L27
 443              	.LVL37:
 444              	.L129:
 323:Drivers/STM32G4xx_HAL_Driver/Src/stm32g4xx_hal_rcc.c **** 
 445              		.loc 1 323 3 discriminator 2 view .LVU139
 446 0088 40F24311 		movw	r1, #323
 447 008c 9B48     		ldr	r0, .L157+4
 448              	.LVL38:
 323:Drivers/STM32G4xx_HAL_Driver/Src/stm32g4xx_hal_rcc.c **** 
 449              		.loc 1 323 3 discriminator 2 view .LVU140
 450 008e FFF7FEFF 		bl	assert_failed
 451              	.LVL39:
 452 0092 C0E7     		b	.L28
 453              	.L130:
 329:Drivers/STM32G4xx_HAL_Driver/Src/stm32g4xx_hal_rcc.c **** 
 454              		.loc 1 329 5 discriminator 3 view .LVU141
 455 0094 40F24911 		movw	r1, #329
 456 0098 9848     		ldr	r0, .L157+4
ARM GAS  /tmp/ccz2x4IP.s 			page 35


 457 009a FFF7FEFF 		bl	assert_failed
 458              	.LVL40:
 459 009e C6E7     		b	.L30
 460              	.LVL41:
 461              	.L131:
 335:Drivers/STM32G4xx_HAL_Driver/Src/stm32g4xx_hal_rcc.c ****     {
 462              		.loc 1 335 47 discriminator 1 view .LVU142
 463 00a0 032A     		cmp	r2, #3
 464 00a2 CDD1     		bne	.L31
 465              	.L32:
 337:Drivers/STM32G4xx_HAL_Driver/Src/stm32g4xx_hal_rcc.c ****       {
 466              		.loc 1 337 7 is_stmt 1 view .LVU143
 337:Drivers/STM32G4xx_HAL_Driver/Src/stm32g4xx_hal_rcc.c ****       {
 467              		.loc 1 337 12 is_stmt 0 view .LVU144
 468 00a4 944B     		ldr	r3, .L157
 469              	.LVL42:
 337:Drivers/STM32G4xx_HAL_Driver/Src/stm32g4xx_hal_rcc.c ****       {
 470              		.loc 1 337 12 view .LVU145
 471 00a6 1B68     		ldr	r3, [r3]
 337:Drivers/STM32G4xx_HAL_Driver/Src/stm32g4xx_hal_rcc.c ****       {
 472              		.loc 1 337 10 view .LVU146
 473 00a8 13F4003F 		tst	r3, #131072
 474 00ac 03D0     		beq	.L29
 337:Drivers/STM32G4xx_HAL_Driver/Src/stm32g4xx_hal_rcc.c ****       {
 475              		.loc 1 337 73 discriminator 1 view .LVU147
 476 00ae 6368     		ldr	r3, [r4, #4]
 337:Drivers/STM32G4xx_HAL_Driver/Src/stm32g4xx_hal_rcc.c ****       {
 477              		.loc 1 337 52 discriminator 1 view .LVU148
 478 00b0 002B     		cmp	r3, #0
 479 00b2 00F0A982 		beq	.L134
 480              	.LVL43:
 481              	.L29:
 379:Drivers/STM32G4xx_HAL_Driver/Src/stm32g4xx_hal_rcc.c ****   {
 482              		.loc 1 379 3 is_stmt 1 view .LVU149
 379:Drivers/STM32G4xx_HAL_Driver/Src/stm32g4xx_hal_rcc.c ****   {
 483              		.loc 1 379 26 is_stmt 0 view .LVU150
 484 00b6 2368     		ldr	r3, [r4]
 379:Drivers/STM32G4xx_HAL_Driver/Src/stm32g4xx_hal_rcc.c ****   {
 485              		.loc 1 379 6 view .LVU151
 486 00b8 13F0020F 		tst	r3, #2
 487 00bc 72D0     		beq	.L42
 382:Drivers/STM32G4xx_HAL_Driver/Src/stm32g4xx_hal_rcc.c ****     assert_param(IS_RCC_HSI_CALIBRATION_VALUE(RCC_OscInitStruct->HSICalibrationValue));
 488              		.loc 1 382 5 is_stmt 1 view .LVU152
 489 00be E368     		ldr	r3, [r4, #12]
 490 00c0 13B1     		cbz	r3, .L43
 382:Drivers/STM32G4xx_HAL_Driver/Src/stm32g4xx_hal_rcc.c ****     assert_param(IS_RCC_HSI_CALIBRATION_VALUE(RCC_OscInitStruct->HSICalibrationValue));
 491              		.loc 1 382 5 is_stmt 0 discriminator 1 view .LVU153
 492 00c2 B3F5807F 		cmp	r3, #256
 493 00c6 47D1     		bne	.L135
 494              	.L43:
 383:Drivers/STM32G4xx_HAL_Driver/Src/stm32g4xx_hal_rcc.c **** 
 495              		.loc 1 383 5 is_stmt 1 view .LVU154
 496 00c8 2369     		ldr	r3, [r4, #16]
 497 00ca 7F2B     		cmp	r3, #127
 498 00cc 4AD8     		bhi	.L136
 499              	.L44:
 386:Drivers/STM32G4xx_HAL_Driver/Src/stm32g4xx_hal_rcc.c ****     temp_pllckcfg = __HAL_RCC_GET_PLL_OSCSOURCE();
ARM GAS  /tmp/ccz2x4IP.s 			page 36


 500              		.loc 1 386 5 view .LVU155
 386:Drivers/STM32G4xx_HAL_Driver/Src/stm32g4xx_hal_rcc.c ****     temp_pllckcfg = __HAL_RCC_GET_PLL_OSCSOURCE();
 501              		.loc 1 386 22 is_stmt 0 view .LVU156
 502 00ce 8A4A     		ldr	r2, .L157
 503 00d0 9368     		ldr	r3, [r2, #8]
 386:Drivers/STM32G4xx_HAL_Driver/Src/stm32g4xx_hal_rcc.c ****     temp_pllckcfg = __HAL_RCC_GET_PLL_OSCSOURCE();
 504              		.loc 1 386 20 view .LVU157
 505 00d2 03F00C03 		and	r3, r3, #12
 506              	.LVL44:
 387:Drivers/STM32G4xx_HAL_Driver/Src/stm32g4xx_hal_rcc.c ****     if (((temp_sysclksrc == RCC_CFGR_SWS_PLL) && (temp_pllckcfg == RCC_PLLSOURCE_HSI)) || (temp_sys
 507              		.loc 1 387 5 is_stmt 1 view .LVU158
 387:Drivers/STM32G4xx_HAL_Driver/Src/stm32g4xx_hal_rcc.c ****     if (((temp_sysclksrc == RCC_CFGR_SWS_PLL) && (temp_pllckcfg == RCC_PLLSOURCE_HSI)) || (temp_sys
 508              		.loc 1 387 21 is_stmt 0 view .LVU159
 509 00d6 D268     		ldr	r2, [r2, #12]
 387:Drivers/STM32G4xx_HAL_Driver/Src/stm32g4xx_hal_rcc.c ****     if (((temp_sysclksrc == RCC_CFGR_SWS_PLL) && (temp_pllckcfg == RCC_PLLSOURCE_HSI)) || (temp_sys
 510              		.loc 1 387 19 view .LVU160
 511 00d8 02F00302 		and	r2, r2, #3
 512              	.LVL45:
 388:Drivers/STM32G4xx_HAL_Driver/Src/stm32g4xx_hal_rcc.c ****     {
 513              		.loc 1 388 5 is_stmt 1 view .LVU161
 388:Drivers/STM32G4xx_HAL_Driver/Src/stm32g4xx_hal_rcc.c ****     {
 514              		.loc 1 388 8 is_stmt 0 view .LVU162
 515 00dc 0C2B     		cmp	r3, #12
 516 00de 47D0     		beq	.L137
 517              	.L45:
 388:Drivers/STM32G4xx_HAL_Driver/Src/stm32g4xx_hal_rcc.c ****     {
 518              		.loc 1 388 88 discriminator 3 view .LVU163
 519 00e0 042B     		cmp	r3, #4
 520 00e2 47D0     		beq	.L46
 411:Drivers/STM32G4xx_HAL_Driver/Src/stm32g4xx_hal_rcc.c ****       {
 521              		.loc 1 411 7 is_stmt 1 view .LVU164
 411:Drivers/STM32G4xx_HAL_Driver/Src/stm32g4xx_hal_rcc.c ****       {
 522              		.loc 1 411 28 is_stmt 0 view .LVU165
 523 00e4 E368     		ldr	r3, [r4, #12]
 524              	.LVL46:
 411:Drivers/STM32G4xx_HAL_Driver/Src/stm32g4xx_hal_rcc.c ****       {
 525              		.loc 1 411 10 view .LVU166
 526 00e6 002B     		cmp	r3, #0
 527 00e8 00F08680 		beq	.L49
 414:Drivers/STM32G4xx_HAL_Driver/Src/stm32g4xx_hal_rcc.c **** 
 528              		.loc 1 414 9 is_stmt 1 view .LVU167
 529 00ec 824A     		ldr	r2, .L157
 530              	.LVL47:
 414:Drivers/STM32G4xx_HAL_Driver/Src/stm32g4xx_hal_rcc.c **** 
 531              		.loc 1 414 9 is_stmt 0 view .LVU168
 532 00ee 1368     		ldr	r3, [r2]
 533 00f0 43F48073 		orr	r3, r3, #256
 534 00f4 1360     		str	r3, [r2]
 417:Drivers/STM32G4xx_HAL_Driver/Src/stm32g4xx_hal_rcc.c **** 
 535              		.loc 1 417 9 is_stmt 1 view .LVU169
 417:Drivers/STM32G4xx_HAL_Driver/Src/stm32g4xx_hal_rcc.c **** 
 536              		.loc 1 417 21 is_stmt 0 view .LVU170
 537 00f6 FFF7FEFF 		bl	HAL_GetTick
 538              	.LVL48:
 539 00fa 0546     		mov	r5, r0
 540              	.LVL49:
 420:Drivers/STM32G4xx_HAL_Driver/Src/stm32g4xx_hal_rcc.c ****         {
ARM GAS  /tmp/ccz2x4IP.s 			page 37


 541              		.loc 1 420 9 is_stmt 1 view .LVU171
 542              	.L50:
 420:Drivers/STM32G4xx_HAL_Driver/Src/stm32g4xx_hal_rcc.c ****         {
 543              		.loc 1 420 15 view .LVU172
 420:Drivers/STM32G4xx_HAL_Driver/Src/stm32g4xx_hal_rcc.c ****         {
 544              		.loc 1 420 16 is_stmt 0 view .LVU173
 545 00fc 7E4B     		ldr	r3, .L157
 546 00fe 1B68     		ldr	r3, [r3]
 420:Drivers/STM32G4xx_HAL_Driver/Src/stm32g4xx_hal_rcc.c ****         {
 547              		.loc 1 420 15 view .LVU174
 548 0100 13F4806F 		tst	r3, #1024
 549 0104 6FD1     		bne	.L138
 422:Drivers/STM32G4xx_HAL_Driver/Src/stm32g4xx_hal_rcc.c ****           {
 550              		.loc 1 422 11 is_stmt 1 view .LVU175
 422:Drivers/STM32G4xx_HAL_Driver/Src/stm32g4xx_hal_rcc.c ****           {
 551              		.loc 1 422 16 is_stmt 0 view .LVU176
 552 0106 FFF7FEFF 		bl	HAL_GetTick
 553              	.LVL50:
 422:Drivers/STM32G4xx_HAL_Driver/Src/stm32g4xx_hal_rcc.c ****           {
 554              		.loc 1 422 30 view .LVU177
 555 010a 401B     		subs	r0, r0, r5
 422:Drivers/STM32G4xx_HAL_Driver/Src/stm32g4xx_hal_rcc.c ****           {
 556              		.loc 1 422 14 view .LVU178
 557 010c 0228     		cmp	r0, #2
 558 010e F5D9     		bls	.L50
 424:Drivers/STM32G4xx_HAL_Driver/Src/stm32g4xx_hal_rcc.c ****           }
 559              		.loc 1 424 20 view .LVU179
 560 0110 0320     		movs	r0, #3
 561 0112 80E2     		b	.L27
 562              	.LVL51:
 563              	.L132:
 345:Drivers/STM32G4xx_HAL_Driver/Src/stm32g4xx_hal_rcc.c **** 
 564              		.loc 1 345 7 is_stmt 1 discriminator 1 view .LVU180
 565 0114 784A     		ldr	r2, .L157
 566              	.LVL52:
 345:Drivers/STM32G4xx_HAL_Driver/Src/stm32g4xx_hal_rcc.c **** 
 567              		.loc 1 345 7 is_stmt 0 discriminator 1 view .LVU181
 568 0116 1368     		ldr	r3, [r2]
 569 0118 43F48033 		orr	r3, r3, #65536
 570 011c 1360     		str	r3, [r2]
 571 011e A1E7     		b	.L35
 572              	.LVL53:
 573              	.L133:
 345:Drivers/STM32G4xx_HAL_Driver/Src/stm32g4xx_hal_rcc.c **** 
 574              		.loc 1 345 7 is_stmt 1 discriminator 4 view .LVU182
 575 0120 03F18043 		add	r3, r3, #1073741824
 576 0124 A3F53C33 		sub	r3, r3, #192512
 577 0128 1A68     		ldr	r2, [r3]
 578              	.LVL54:
 345:Drivers/STM32G4xx_HAL_Driver/Src/stm32g4xx_hal_rcc.c **** 
 579              		.loc 1 345 7 is_stmt 0 discriminator 4 view .LVU183
 580 012a 42F48022 		orr	r2, r2, #262144
 581 012e 1A60     		str	r2, [r3]
 345:Drivers/STM32G4xx_HAL_Driver/Src/stm32g4xx_hal_rcc.c **** 
 582              		.loc 1 345 7 is_stmt 1 discriminator 4 view .LVU184
 583 0130 1A68     		ldr	r2, [r3]
 584 0132 42F48032 		orr	r2, r2, #65536
ARM GAS  /tmp/ccz2x4IP.s 			page 38


 585 0136 1A60     		str	r2, [r3]
 586 0138 94E7     		b	.L35
 587              	.L37:
 365:Drivers/STM32G4xx_HAL_Driver/Src/stm32g4xx_hal_rcc.c **** 
 588              		.loc 1 365 9 view .LVU185
 365:Drivers/STM32G4xx_HAL_Driver/Src/stm32g4xx_hal_rcc.c **** 
 589              		.loc 1 365 21 is_stmt 0 view .LVU186
 590 013a FFF7FEFF 		bl	HAL_GetTick
 591              	.LVL55:
 592 013e 0546     		mov	r5, r0
 593              	.LVL56:
 368:Drivers/STM32G4xx_HAL_Driver/Src/stm32g4xx_hal_rcc.c ****         {
 594              		.loc 1 368 9 is_stmt 1 view .LVU187
 595              	.L40:
 368:Drivers/STM32G4xx_HAL_Driver/Src/stm32g4xx_hal_rcc.c ****         {
 596              		.loc 1 368 15 view .LVU188
 368:Drivers/STM32G4xx_HAL_Driver/Src/stm32g4xx_hal_rcc.c ****         {
 597              		.loc 1 368 16 is_stmt 0 view .LVU189
 598 0140 6D4B     		ldr	r3, .L157
 599 0142 1B68     		ldr	r3, [r3]
 368:Drivers/STM32G4xx_HAL_Driver/Src/stm32g4xx_hal_rcc.c ****         {
 600              		.loc 1 368 15 view .LVU190
 601 0144 13F4003F 		tst	r3, #131072
 602 0148 B5D0     		beq	.L29
 370:Drivers/STM32G4xx_HAL_Driver/Src/stm32g4xx_hal_rcc.c ****           {
 603              		.loc 1 370 11 is_stmt 1 view .LVU191
 370:Drivers/STM32G4xx_HAL_Driver/Src/stm32g4xx_hal_rcc.c ****           {
 604              		.loc 1 370 16 is_stmt 0 view .LVU192
 605 014a FFF7FEFF 		bl	HAL_GetTick
 606              	.LVL57:
 370:Drivers/STM32G4xx_HAL_Driver/Src/stm32g4xx_hal_rcc.c ****           {
 607              		.loc 1 370 30 view .LVU193
 608 014e 401B     		subs	r0, r0, r5
 370:Drivers/STM32G4xx_HAL_Driver/Src/stm32g4xx_hal_rcc.c ****           {
 609              		.loc 1 370 14 view .LVU194
 610 0150 6428     		cmp	r0, #100
 611 0152 F5D9     		bls	.L40
 372:Drivers/STM32G4xx_HAL_Driver/Src/stm32g4xx_hal_rcc.c ****           }
 612              		.loc 1 372 20 view .LVU195
 613 0154 0320     		movs	r0, #3
 614 0156 5EE2     		b	.L27
 615              	.LVL58:
 616              	.L135:
 382:Drivers/STM32G4xx_HAL_Driver/Src/stm32g4xx_hal_rcc.c ****     assert_param(IS_RCC_HSI_CALIBRATION_VALUE(RCC_OscInitStruct->HSICalibrationValue));
 617              		.loc 1 382 5 discriminator 2 view .LVU196
 618 0158 4FF4BF71 		mov	r1, #382
 619 015c 6748     		ldr	r0, .L157+4
 620 015e FFF7FEFF 		bl	assert_failed
 621              	.LVL59:
 622 0162 B1E7     		b	.L43
 623              	.L136:
 383:Drivers/STM32G4xx_HAL_Driver/Src/stm32g4xx_hal_rcc.c **** 
 624              		.loc 1 383 5 discriminator 1 view .LVU197
 625 0164 40F27F11 		movw	r1, #383
 626 0168 6448     		ldr	r0, .L157+4
 627 016a FFF7FEFF 		bl	assert_failed
 628              	.LVL60:
ARM GAS  /tmp/ccz2x4IP.s 			page 39


 629 016e AEE7     		b	.L44
 630              	.LVL61:
 631              	.L137:
 388:Drivers/STM32G4xx_HAL_Driver/Src/stm32g4xx_hal_rcc.c ****     {
 632              		.loc 1 388 47 discriminator 1 view .LVU198
 633 0170 022A     		cmp	r2, #2
 634 0172 B5D1     		bne	.L45
 635              	.L46:
 391:Drivers/STM32G4xx_HAL_Driver/Src/stm32g4xx_hal_rcc.c ****       {
 636              		.loc 1 391 7 is_stmt 1 view .LVU199
 391:Drivers/STM32G4xx_HAL_Driver/Src/stm32g4xx_hal_rcc.c ****       {
 637              		.loc 1 391 12 is_stmt 0 view .LVU200
 638 0174 604B     		ldr	r3, .L157
 639              	.LVL62:
 391:Drivers/STM32G4xx_HAL_Driver/Src/stm32g4xx_hal_rcc.c ****       {
 640              		.loc 1 391 12 view .LVU201
 641 0176 1B68     		ldr	r3, [r3]
 391:Drivers/STM32G4xx_HAL_Driver/Src/stm32g4xx_hal_rcc.c ****       {
 642              		.loc 1 391 10 view .LVU202
 643 0178 13F4806F 		tst	r3, #1024
 644 017c 03D0     		beq	.L48
 391:Drivers/STM32G4xx_HAL_Driver/Src/stm32g4xx_hal_rcc.c ****       {
 645              		.loc 1 391 73 discriminator 1 view .LVU203
 646 017e E368     		ldr	r3, [r4, #12]
 391:Drivers/STM32G4xx_HAL_Driver/Src/stm32g4xx_hal_rcc.c ****       {
 647              		.loc 1 391 52 discriminator 1 view .LVU204
 648 0180 002B     		cmp	r3, #0
 649 0182 00F04382 		beq	.L102
 650              	.L48:
 399:Drivers/STM32G4xx_HAL_Driver/Src/stm32g4xx_hal_rcc.c **** 
 651              		.loc 1 399 9 is_stmt 1 view .LVU205
 652 0186 5C4A     		ldr	r2, .L157
 653              	.LVL63:
 399:Drivers/STM32G4xx_HAL_Driver/Src/stm32g4xx_hal_rcc.c **** 
 654              		.loc 1 399 9 is_stmt 0 view .LVU206
 655 0188 5368     		ldr	r3, [r2, #4]
 656 018a 23F0FE43 		bic	r3, r3, #2130706432
 657 018e 2169     		ldr	r1, [r4, #16]
 658 0190 43EA0163 		orr	r3, r3, r1, lsl #24
 659 0194 5360     		str	r3, [r2, #4]
 402:Drivers/STM32G4xx_HAL_Driver/Src/stm32g4xx_hal_rcc.c ****         {
 660              		.loc 1 402 9 is_stmt 1 view .LVU207
 402:Drivers/STM32G4xx_HAL_Driver/Src/stm32g4xx_hal_rcc.c ****         {
 661              		.loc 1 402 13 is_stmt 0 view .LVU208
 662 0196 5A4B     		ldr	r3, .L157+8
 663 0198 1868     		ldr	r0, [r3]
 664 019a FFF7FEFF 		bl	HAL_InitTick
 665              	.LVL64:
 402:Drivers/STM32G4xx_HAL_Driver/Src/stm32g4xx_hal_rcc.c ****         {
 666              		.loc 1 402 12 view .LVU209
 667 019e 0028     		cmp	r0, #0
 668 01a0 40F03682 		bne	.L139
 669              	.L42:
 451:Drivers/STM32G4xx_HAL_Driver/Src/stm32g4xx_hal_rcc.c ****   {
 670              		.loc 1 451 3 is_stmt 1 view .LVU210
 451:Drivers/STM32G4xx_HAL_Driver/Src/stm32g4xx_hal_rcc.c ****   {
 671              		.loc 1 451 26 is_stmt 0 view .LVU211
ARM GAS  /tmp/ccz2x4IP.s 			page 40


 672 01a4 2368     		ldr	r3, [r4]
 451:Drivers/STM32G4xx_HAL_Driver/Src/stm32g4xx_hal_rcc.c ****   {
 673              		.loc 1 451 6 view .LVU212
 674 01a6 13F0080F 		tst	r3, #8
 675 01aa 56D0     		beq	.L54
 454:Drivers/STM32G4xx_HAL_Driver/Src/stm32g4xx_hal_rcc.c **** 
 676              		.loc 1 454 5 is_stmt 1 view .LVU213
 677 01ac 6369     		ldr	r3, [r4, #20]
 678 01ae 012B     		cmp	r3, #1
 679 01b0 36D8     		bhi	.L140
 680              	.L55:
 457:Drivers/STM32G4xx_HAL_Driver/Src/stm32g4xx_hal_rcc.c ****     {
 681              		.loc 1 457 5 view .LVU214
 457:Drivers/STM32G4xx_HAL_Driver/Src/stm32g4xx_hal_rcc.c ****     {
 682              		.loc 1 457 25 is_stmt 0 view .LVU215
 683 01b2 6369     		ldr	r3, [r4, #20]
 457:Drivers/STM32G4xx_HAL_Driver/Src/stm32g4xx_hal_rcc.c ****     {
 684              		.loc 1 457 7 view .LVU216
 685 01b4 002B     		cmp	r3, #0
 686 01b6 39D0     		beq	.L56
 460:Drivers/STM32G4xx_HAL_Driver/Src/stm32g4xx_hal_rcc.c **** 
 687              		.loc 1 460 7 is_stmt 1 view .LVU217
 688 01b8 4F4A     		ldr	r2, .L157
 689 01ba D2F89430 		ldr	r3, [r2, #148]
 690 01be 43F00103 		orr	r3, r3, #1
 691 01c2 C2F89430 		str	r3, [r2, #148]
 463:Drivers/STM32G4xx_HAL_Driver/Src/stm32g4xx_hal_rcc.c **** 
 692              		.loc 1 463 7 view .LVU218
 463:Drivers/STM32G4xx_HAL_Driver/Src/stm32g4xx_hal_rcc.c **** 
 693              		.loc 1 463 19 is_stmt 0 view .LVU219
 694 01c6 FFF7FEFF 		bl	HAL_GetTick
 695              	.LVL65:
 696 01ca 0546     		mov	r5, r0
 697              	.LVL66:
 466:Drivers/STM32G4xx_HAL_Driver/Src/stm32g4xx_hal_rcc.c ****       {
 698              		.loc 1 466 7 is_stmt 1 view .LVU220
 699              	.L57:
 466:Drivers/STM32G4xx_HAL_Driver/Src/stm32g4xx_hal_rcc.c ****       {
 700              		.loc 1 466 13 view .LVU221
 466:Drivers/STM32G4xx_HAL_Driver/Src/stm32g4xx_hal_rcc.c ****       {
 701              		.loc 1 466 14 is_stmt 0 view .LVU222
 702 01cc 4A4B     		ldr	r3, .L157
 703 01ce D3F89430 		ldr	r3, [r3, #148]
 466:Drivers/STM32G4xx_HAL_Driver/Src/stm32g4xx_hal_rcc.c ****       {
 704              		.loc 1 466 13 view .LVU223
 705 01d2 13F0020F 		tst	r3, #2
 706 01d6 40D1     		bne	.L54
 468:Drivers/STM32G4xx_HAL_Driver/Src/stm32g4xx_hal_rcc.c ****         {
 707              		.loc 1 468 9 is_stmt 1 view .LVU224
 468:Drivers/STM32G4xx_HAL_Driver/Src/stm32g4xx_hal_rcc.c ****         {
 708              		.loc 1 468 14 is_stmt 0 view .LVU225
 709 01d8 FFF7FEFF 		bl	HAL_GetTick
 710              	.LVL67:
 468:Drivers/STM32G4xx_HAL_Driver/Src/stm32g4xx_hal_rcc.c ****         {
 711              		.loc 1 468 28 view .LVU226
 712 01dc 401B     		subs	r0, r0, r5
 468:Drivers/STM32G4xx_HAL_Driver/Src/stm32g4xx_hal_rcc.c ****         {
ARM GAS  /tmp/ccz2x4IP.s 			page 41


 713              		.loc 1 468 12 view .LVU227
 714 01de 0228     		cmp	r0, #2
 715 01e0 F4D9     		bls	.L57
 470:Drivers/STM32G4xx_HAL_Driver/Src/stm32g4xx_hal_rcc.c ****         }
 716              		.loc 1 470 18 view .LVU228
 717 01e2 0320     		movs	r0, #3
 718 01e4 17E2     		b	.L27
 719              	.L138:
 429:Drivers/STM32G4xx_HAL_Driver/Src/stm32g4xx_hal_rcc.c ****       }
 720              		.loc 1 429 9 is_stmt 1 view .LVU229
 721 01e6 444A     		ldr	r2, .L157
 722 01e8 5368     		ldr	r3, [r2, #4]
 723 01ea 23F0FE43 		bic	r3, r3, #2130706432
 724 01ee 2169     		ldr	r1, [r4, #16]
 725 01f0 43EA0163 		orr	r3, r3, r1, lsl #24
 726 01f4 5360     		str	r3, [r2, #4]
 727 01f6 D5E7     		b	.L42
 728              	.LVL68:
 729              	.L49:
 434:Drivers/STM32G4xx_HAL_Driver/Src/stm32g4xx_hal_rcc.c **** 
 730              		.loc 1 434 9 view .LVU230
 731 01f8 3F4A     		ldr	r2, .L157
 732              	.LVL69:
 434:Drivers/STM32G4xx_HAL_Driver/Src/stm32g4xx_hal_rcc.c **** 
 733              		.loc 1 434 9 is_stmt 0 view .LVU231
 734 01fa 1368     		ldr	r3, [r2]
 735 01fc 23F48073 		bic	r3, r3, #256
 736 0200 1360     		str	r3, [r2]
 437:Drivers/STM32G4xx_HAL_Driver/Src/stm32g4xx_hal_rcc.c **** 
 737              		.loc 1 437 9 is_stmt 1 view .LVU232
 437:Drivers/STM32G4xx_HAL_Driver/Src/stm32g4xx_hal_rcc.c **** 
 738              		.loc 1 437 21 is_stmt 0 view .LVU233
 739 0202 FFF7FEFF 		bl	HAL_GetTick
 740              	.LVL70:
 741 0206 0546     		mov	r5, r0
 742              	.LVL71:
 440:Drivers/STM32G4xx_HAL_Driver/Src/stm32g4xx_hal_rcc.c ****         {
 743              		.loc 1 440 9 is_stmt 1 view .LVU234
 744              	.L52:
 440:Drivers/STM32G4xx_HAL_Driver/Src/stm32g4xx_hal_rcc.c ****         {
 745              		.loc 1 440 15 view .LVU235
 440:Drivers/STM32G4xx_HAL_Driver/Src/stm32g4xx_hal_rcc.c ****         {
 746              		.loc 1 440 16 is_stmt 0 view .LVU236
 747 0208 3B4B     		ldr	r3, .L157
 748 020a 1B68     		ldr	r3, [r3]
 440:Drivers/STM32G4xx_HAL_Driver/Src/stm32g4xx_hal_rcc.c ****         {
 749              		.loc 1 440 15 view .LVU237
 750 020c 13F4806F 		tst	r3, #1024
 751 0210 C8D0     		beq	.L42
 442:Drivers/STM32G4xx_HAL_Driver/Src/stm32g4xx_hal_rcc.c ****           {
 752              		.loc 1 442 11 is_stmt 1 view .LVU238
 442:Drivers/STM32G4xx_HAL_Driver/Src/stm32g4xx_hal_rcc.c ****           {
 753              		.loc 1 442 16 is_stmt 0 view .LVU239
 754 0212 FFF7FEFF 		bl	HAL_GetTick
 755              	.LVL72:
 442:Drivers/STM32G4xx_HAL_Driver/Src/stm32g4xx_hal_rcc.c ****           {
 756              		.loc 1 442 30 view .LVU240
ARM GAS  /tmp/ccz2x4IP.s 			page 42


 757 0216 401B     		subs	r0, r0, r5
 442:Drivers/STM32G4xx_HAL_Driver/Src/stm32g4xx_hal_rcc.c ****           {
 758              		.loc 1 442 14 view .LVU241
 759 0218 0228     		cmp	r0, #2
 760 021a F5D9     		bls	.L52
 444:Drivers/STM32G4xx_HAL_Driver/Src/stm32g4xx_hal_rcc.c ****           }
 761              		.loc 1 444 20 view .LVU242
 762 021c 0320     		movs	r0, #3
 763 021e FAE1     		b	.L27
 764              	.LVL73:
 765              	.L140:
 454:Drivers/STM32G4xx_HAL_Driver/Src/stm32g4xx_hal_rcc.c **** 
 766              		.loc 1 454 5 discriminator 1 view .LVU243
 767 0220 4FF4E371 		mov	r1, #454
 768 0224 3548     		ldr	r0, .L157+4
 769 0226 FFF7FEFF 		bl	assert_failed
 770              	.LVL74:
 771 022a C2E7     		b	.L55
 772              	.L56:
 477:Drivers/STM32G4xx_HAL_Driver/Src/stm32g4xx_hal_rcc.c **** 
 773              		.loc 1 477 7 is_stmt 1 view .LVU244
 774 022c 324A     		ldr	r2, .L157
 775 022e D2F89430 		ldr	r3, [r2, #148]
 776 0232 23F00103 		bic	r3, r3, #1
 777 0236 C2F89430 		str	r3, [r2, #148]
 480:Drivers/STM32G4xx_HAL_Driver/Src/stm32g4xx_hal_rcc.c **** 
 778              		.loc 1 480 7 view .LVU245
 480:Drivers/STM32G4xx_HAL_Driver/Src/stm32g4xx_hal_rcc.c **** 
 779              		.loc 1 480 19 is_stmt 0 view .LVU246
 780 023a FFF7FEFF 		bl	HAL_GetTick
 781              	.LVL75:
 782 023e 0546     		mov	r5, r0
 783              	.LVL76:
 483:Drivers/STM32G4xx_HAL_Driver/Src/stm32g4xx_hal_rcc.c ****       {
 784              		.loc 1 483 7 is_stmt 1 view .LVU247
 785              	.L59:
 483:Drivers/STM32G4xx_HAL_Driver/Src/stm32g4xx_hal_rcc.c ****       {
 786              		.loc 1 483 12 view .LVU248
 483:Drivers/STM32G4xx_HAL_Driver/Src/stm32g4xx_hal_rcc.c ****       {
 787              		.loc 1 483 13 is_stmt 0 view .LVU249
 788 0240 2D4B     		ldr	r3, .L157
 789 0242 D3F89430 		ldr	r3, [r3, #148]
 483:Drivers/STM32G4xx_HAL_Driver/Src/stm32g4xx_hal_rcc.c ****       {
 790              		.loc 1 483 12 view .LVU250
 791 0246 13F0020F 		tst	r3, #2
 792 024a 06D0     		beq	.L54
 485:Drivers/STM32G4xx_HAL_Driver/Src/stm32g4xx_hal_rcc.c ****         {
 793              		.loc 1 485 9 is_stmt 1 view .LVU251
 485:Drivers/STM32G4xx_HAL_Driver/Src/stm32g4xx_hal_rcc.c ****         {
 794              		.loc 1 485 13 is_stmt 0 view .LVU252
 795 024c FFF7FEFF 		bl	HAL_GetTick
 796              	.LVL77:
 485:Drivers/STM32G4xx_HAL_Driver/Src/stm32g4xx_hal_rcc.c ****         {
 797              		.loc 1 485 27 view .LVU253
 798 0250 401B     		subs	r0, r0, r5
 485:Drivers/STM32G4xx_HAL_Driver/Src/stm32g4xx_hal_rcc.c ****         {
 799              		.loc 1 485 11 view .LVU254
ARM GAS  /tmp/ccz2x4IP.s 			page 43


 800 0252 0228     		cmp	r0, #2
 801 0254 F4D9     		bls	.L59
 487:Drivers/STM32G4xx_HAL_Driver/Src/stm32g4xx_hal_rcc.c ****         }
 802              		.loc 1 487 18 view .LVU255
 803 0256 0320     		movs	r0, #3
 804 0258 DDE1     		b	.L27
 805              	.LVL78:
 806              	.L54:
 493:Drivers/STM32G4xx_HAL_Driver/Src/stm32g4xx_hal_rcc.c ****   {
 807              		.loc 1 493 3 is_stmt 1 view .LVU256
 493:Drivers/STM32G4xx_HAL_Driver/Src/stm32g4xx_hal_rcc.c ****   {
 808              		.loc 1 493 26 is_stmt 0 view .LVU257
 809 025a 2368     		ldr	r3, [r4]
 493:Drivers/STM32G4xx_HAL_Driver/Src/stm32g4xx_hal_rcc.c ****   {
 810              		.loc 1 493 6 view .LVU258
 811 025c 13F0040F 		tst	r3, #4
 812 0260 00F08F80 		beq	.L61
 813              	.LBB2:
 495:Drivers/STM32G4xx_HAL_Driver/Src/stm32g4xx_hal_rcc.c **** 
 814              		.loc 1 495 5 is_stmt 1 view .LVU259
 815              	.LVL79:
 498:Drivers/STM32G4xx_HAL_Driver/Src/stm32g4xx_hal_rcc.c **** 
 816              		.loc 1 498 5 view .LVU260
 817 0264 A368     		ldr	r3, [r4, #8]
 818 0266 012B     		cmp	r3, #1
 819 0268 01D9     		bls	.L62
 498:Drivers/STM32G4xx_HAL_Driver/Src/stm32g4xx_hal_rcc.c **** 
 820              		.loc 1 498 5 is_stmt 0 discriminator 1 view .LVU261
 821 026a 052B     		cmp	r3, #5
 822 026c 3BD1     		bne	.L141
 823              	.L62:
 502:Drivers/STM32G4xx_HAL_Driver/Src/stm32g4xx_hal_rcc.c ****     {
 824              		.loc 1 502 5 is_stmt 1 view .LVU262
 502:Drivers/STM32G4xx_HAL_Driver/Src/stm32g4xx_hal_rcc.c ****     {
 825              		.loc 1 502 9 is_stmt 0 view .LVU263
 826 026e 224B     		ldr	r3, .L157
 827 0270 9B6D     		ldr	r3, [r3, #88]
 502:Drivers/STM32G4xx_HAL_Driver/Src/stm32g4xx_hal_rcc.c ****     {
 828              		.loc 1 502 41 view .LVU264
 829 0272 13F0805F 		tst	r3, #268435456
 830 0276 3CD1     		bne	.L108
 504:Drivers/STM32G4xx_HAL_Driver/Src/stm32g4xx_hal_rcc.c ****       pwrclkchanged = SET;
 831              		.loc 1 504 7 is_stmt 1 view .LVU265
 832              	.LBB3:
 504:Drivers/STM32G4xx_HAL_Driver/Src/stm32g4xx_hal_rcc.c ****       pwrclkchanged = SET;
 833              		.loc 1 504 7 view .LVU266
 504:Drivers/STM32G4xx_HAL_Driver/Src/stm32g4xx_hal_rcc.c ****       pwrclkchanged = SET;
 834              		.loc 1 504 7 view .LVU267
 835 0278 1F4B     		ldr	r3, .L157
 836 027a 9A6D     		ldr	r2, [r3, #88]
 837 027c 42F08052 		orr	r2, r2, #268435456
 838 0280 9A65     		str	r2, [r3, #88]
 504:Drivers/STM32G4xx_HAL_Driver/Src/stm32g4xx_hal_rcc.c ****       pwrclkchanged = SET;
 839              		.loc 1 504 7 view .LVU268
 840 0282 9B6D     		ldr	r3, [r3, #88]
 841 0284 03F08053 		and	r3, r3, #268435456
 842 0288 0193     		str	r3, [sp, #4]
ARM GAS  /tmp/ccz2x4IP.s 			page 44


 504:Drivers/STM32G4xx_HAL_Driver/Src/stm32g4xx_hal_rcc.c ****       pwrclkchanged = SET;
 843              		.loc 1 504 7 view .LVU269
 844 028a 019B     		ldr	r3, [sp, #4]
 845              	.LBE3:
 504:Drivers/STM32G4xx_HAL_Driver/Src/stm32g4xx_hal_rcc.c ****       pwrclkchanged = SET;
 846              		.loc 1 504 7 view .LVU270
 505:Drivers/STM32G4xx_HAL_Driver/Src/stm32g4xx_hal_rcc.c ****     }
 847              		.loc 1 505 7 view .LVU271
 848              	.LVL80:
 505:Drivers/STM32G4xx_HAL_Driver/Src/stm32g4xx_hal_rcc.c ****     }
 849              		.loc 1 505 21 is_stmt 0 view .LVU272
 850 028c 0125     		movs	r5, #1
 851              	.LVL81:
 852              	.L63:
 508:Drivers/STM32G4xx_HAL_Driver/Src/stm32g4xx_hal_rcc.c ****     {
 853              		.loc 1 508 5 is_stmt 1 view .LVU273
 508:Drivers/STM32G4xx_HAL_Driver/Src/stm32g4xx_hal_rcc.c ****     {
 854              		.loc 1 508 9 is_stmt 0 view .LVU274
 855 028e 1D4B     		ldr	r3, .L157+12
 856 0290 1B68     		ldr	r3, [r3]
 508:Drivers/STM32G4xx_HAL_Driver/Src/stm32g4xx_hal_rcc.c ****     {
 857              		.loc 1 508 8 view .LVU275
 858 0292 13F4807F 		tst	r3, #256
 859 0296 37D0     		beq	.L142
 860              	.L64:
 526:Drivers/STM32G4xx_HAL_Driver/Src/stm32g4xx_hal_rcc.c **** 
 861              		.loc 1 526 5 is_stmt 1 view .LVU276
 526:Drivers/STM32G4xx_HAL_Driver/Src/stm32g4xx_hal_rcc.c **** 
 862              		.loc 1 526 5 view .LVU277
 863 0298 A368     		ldr	r3, [r4, #8]
 864 029a 012B     		cmp	r3, #1
 865 029c 48D0     		beq	.L143
 526:Drivers/STM32G4xx_HAL_Driver/Src/stm32g4xx_hal_rcc.c **** 
 866              		.loc 1 526 5 discriminator 2 view .LVU278
 867 029e 052B     		cmp	r3, #5
 868 02a0 4ED0     		beq	.L144
 526:Drivers/STM32G4xx_HAL_Driver/Src/stm32g4xx_hal_rcc.c **** 
 869              		.loc 1 526 5 discriminator 5 view .LVU279
 870 02a2 154B     		ldr	r3, .L157
 871 02a4 D3F89020 		ldr	r2, [r3, #144]
 872 02a8 22F00102 		bic	r2, r2, #1
 873 02ac C3F89020 		str	r2, [r3, #144]
 526:Drivers/STM32G4xx_HAL_Driver/Src/stm32g4xx_hal_rcc.c **** 
 874              		.loc 1 526 5 discriminator 5 view .LVU280
 875 02b0 D3F89020 		ldr	r2, [r3, #144]
 876 02b4 22F00402 		bic	r2, r2, #4
 877 02b8 C3F89020 		str	r2, [r3, #144]
 878              	.L68:
 526:Drivers/STM32G4xx_HAL_Driver/Src/stm32g4xx_hal_rcc.c **** 
 879              		.loc 1 526 5 discriminator 7 view .LVU281
 529:Drivers/STM32G4xx_HAL_Driver/Src/stm32g4xx_hal_rcc.c ****     {
 880              		.loc 1 529 5 discriminator 7 view .LVU282
 529:Drivers/STM32G4xx_HAL_Driver/Src/stm32g4xx_hal_rcc.c ****     {
 881              		.loc 1 529 26 is_stmt 0 discriminator 7 view .LVU283
 882 02bc A368     		ldr	r3, [r4, #8]
 529:Drivers/STM32G4xx_HAL_Driver/Src/stm32g4xx_hal_rcc.c ****     {
 883              		.loc 1 529 8 discriminator 7 view .LVU284
ARM GAS  /tmp/ccz2x4IP.s 			page 45


 884 02be 002B     		cmp	r3, #0
 885 02c0 4CD0     		beq	.L70
 532:Drivers/STM32G4xx_HAL_Driver/Src/stm32g4xx_hal_rcc.c **** 
 886              		.loc 1 532 7 is_stmt 1 view .LVU285
 532:Drivers/STM32G4xx_HAL_Driver/Src/stm32g4xx_hal_rcc.c **** 
 887              		.loc 1 532 19 is_stmt 0 view .LVU286
 888 02c2 FFF7FEFF 		bl	HAL_GetTick
 889              	.LVL82:
 890 02c6 0646     		mov	r6, r0
 891              	.LVL83:
 535:Drivers/STM32G4xx_HAL_Driver/Src/stm32g4xx_hal_rcc.c ****       {
 892              		.loc 1 535 7 is_stmt 1 view .LVU287
 893              	.L71:
 535:Drivers/STM32G4xx_HAL_Driver/Src/stm32g4xx_hal_rcc.c ****       {
 894              		.loc 1 535 13 view .LVU288
 535:Drivers/STM32G4xx_HAL_Driver/Src/stm32g4xx_hal_rcc.c ****       {
 895              		.loc 1 535 14 is_stmt 0 view .LVU289
 896 02c8 0B4B     		ldr	r3, .L157
 897 02ca D3F89030 		ldr	r3, [r3, #144]
 535:Drivers/STM32G4xx_HAL_Driver/Src/stm32g4xx_hal_rcc.c ****       {
 898              		.loc 1 535 13 view .LVU290
 899 02ce 13F0020F 		tst	r3, #2
 900 02d2 55D1     		bne	.L73
 537:Drivers/STM32G4xx_HAL_Driver/Src/stm32g4xx_hal_rcc.c ****         {
 901              		.loc 1 537 9 is_stmt 1 view .LVU291
 537:Drivers/STM32G4xx_HAL_Driver/Src/stm32g4xx_hal_rcc.c ****         {
 902              		.loc 1 537 13 is_stmt 0 view .LVU292
 903 02d4 FFF7FEFF 		bl	HAL_GetTick
 904              	.LVL84:
 537:Drivers/STM32G4xx_HAL_Driver/Src/stm32g4xx_hal_rcc.c ****         {
 905              		.loc 1 537 27 view .LVU293
 906 02d8 801B     		subs	r0, r0, r6
 537:Drivers/STM32G4xx_HAL_Driver/Src/stm32g4xx_hal_rcc.c ****         {
 907              		.loc 1 537 11 view .LVU294
 908 02da 41F28833 		movw	r3, #5000
 909 02de 9842     		cmp	r0, r3
 910 02e0 F2D9     		bls	.L71
 539:Drivers/STM32G4xx_HAL_Driver/Src/stm32g4xx_hal_rcc.c ****         }
 911              		.loc 1 539 18 view .LVU295
 912 02e2 0320     		movs	r0, #3
 913 02e4 97E1     		b	.L27
 914              	.LVL85:
 915              	.L141:
 498:Drivers/STM32G4xx_HAL_Driver/Src/stm32g4xx_hal_rcc.c **** 
 916              		.loc 1 498 5 discriminator 2 view .LVU296
 917 02e6 4FF4F971 		mov	r1, #498
 918 02ea 0448     		ldr	r0, .L157+4
 919 02ec FFF7FEFF 		bl	assert_failed
 920              	.LVL86:
 921 02f0 BDE7     		b	.L62
 922              	.L108:
 495:Drivers/STM32G4xx_HAL_Driver/Src/stm32g4xx_hal_rcc.c **** 
 923              		.loc 1 495 22 view .LVU297
 924 02f2 0025     		movs	r5, #0
 925 02f4 CBE7     		b	.L63
 926              	.L158:
 927 02f6 00BF     		.align	2
ARM GAS  /tmp/ccz2x4IP.s 			page 46


 928              	.L157:
 929 02f8 00100240 		.word	1073876992
 930 02fc 00000000 		.word	.LC0
 931 0300 00000000 		.word	uwTickPrio
 932 0304 00700040 		.word	1073770496
 933              	.LVL87:
 934              	.L142:
 511:Drivers/STM32G4xx_HAL_Driver/Src/stm32g4xx_hal_rcc.c **** 
 935              		.loc 1 511 7 is_stmt 1 view .LVU298
 936 0308 A34A     		ldr	r2, .L159
 937 030a 1368     		ldr	r3, [r2]
 938 030c 43F48073 		orr	r3, r3, #256
 939 0310 1360     		str	r3, [r2]
 514:Drivers/STM32G4xx_HAL_Driver/Src/stm32g4xx_hal_rcc.c **** 
 940              		.loc 1 514 7 view .LVU299
 514:Drivers/STM32G4xx_HAL_Driver/Src/stm32g4xx_hal_rcc.c **** 
 941              		.loc 1 514 19 is_stmt 0 view .LVU300
 942 0312 FFF7FEFF 		bl	HAL_GetTick
 943              	.LVL88:
 944 0316 0646     		mov	r6, r0
 945              	.LVL89:
 516:Drivers/STM32G4xx_HAL_Driver/Src/stm32g4xx_hal_rcc.c ****       {
 946              		.loc 1 516 7 is_stmt 1 view .LVU301
 947              	.L65:
 516:Drivers/STM32G4xx_HAL_Driver/Src/stm32g4xx_hal_rcc.c ****       {
 948              		.loc 1 516 13 view .LVU302
 516:Drivers/STM32G4xx_HAL_Driver/Src/stm32g4xx_hal_rcc.c ****       {
 949              		.loc 1 516 14 is_stmt 0 view .LVU303
 950 0318 9F4B     		ldr	r3, .L159
 951 031a 1B68     		ldr	r3, [r3]
 516:Drivers/STM32G4xx_HAL_Driver/Src/stm32g4xx_hal_rcc.c ****       {
 952              		.loc 1 516 13 view .LVU304
 953 031c 13F4807F 		tst	r3, #256
 954 0320 BAD1     		bne	.L64
 518:Drivers/STM32G4xx_HAL_Driver/Src/stm32g4xx_hal_rcc.c ****         {
 955              		.loc 1 518 9 is_stmt 1 view .LVU305
 518:Drivers/STM32G4xx_HAL_Driver/Src/stm32g4xx_hal_rcc.c ****         {
 956              		.loc 1 518 14 is_stmt 0 view .LVU306
 957 0322 FFF7FEFF 		bl	HAL_GetTick
 958              	.LVL90:
 518:Drivers/STM32G4xx_HAL_Driver/Src/stm32g4xx_hal_rcc.c ****         {
 959              		.loc 1 518 28 view .LVU307
 960 0326 801B     		subs	r0, r0, r6
 518:Drivers/STM32G4xx_HAL_Driver/Src/stm32g4xx_hal_rcc.c ****         {
 961              		.loc 1 518 12 view .LVU308
 962 0328 0228     		cmp	r0, #2
 963 032a F5D9     		bls	.L65
 520:Drivers/STM32G4xx_HAL_Driver/Src/stm32g4xx_hal_rcc.c ****         }
 964              		.loc 1 520 18 view .LVU309
 965 032c 0320     		movs	r0, #3
 966 032e 72E1     		b	.L27
 967              	.LVL91:
 968              	.L143:
 526:Drivers/STM32G4xx_HAL_Driver/Src/stm32g4xx_hal_rcc.c **** 
 969              		.loc 1 526 5 is_stmt 1 discriminator 1 view .LVU310
 970 0330 9A4A     		ldr	r2, .L159+4
 971 0332 D2F89030 		ldr	r3, [r2, #144]
ARM GAS  /tmp/ccz2x4IP.s 			page 47


 972 0336 43F00103 		orr	r3, r3, #1
 973 033a C2F89030 		str	r3, [r2, #144]
 974 033e BDE7     		b	.L68
 975              	.L144:
 526:Drivers/STM32G4xx_HAL_Driver/Src/stm32g4xx_hal_rcc.c **** 
 976              		.loc 1 526 5 discriminator 4 view .LVU311
 977 0340 964B     		ldr	r3, .L159+4
 978 0342 D3F89020 		ldr	r2, [r3, #144]
 979 0346 42F00402 		orr	r2, r2, #4
 980 034a C3F89020 		str	r2, [r3, #144]
 526:Drivers/STM32G4xx_HAL_Driver/Src/stm32g4xx_hal_rcc.c **** 
 981              		.loc 1 526 5 discriminator 4 view .LVU312
 982 034e D3F89020 		ldr	r2, [r3, #144]
 983 0352 42F00102 		orr	r2, r2, #1
 984 0356 C3F89020 		str	r2, [r3, #144]
 985 035a AFE7     		b	.L68
 986              	.L70:
 546:Drivers/STM32G4xx_HAL_Driver/Src/stm32g4xx_hal_rcc.c **** 
 987              		.loc 1 546 7 view .LVU313
 546:Drivers/STM32G4xx_HAL_Driver/Src/stm32g4xx_hal_rcc.c **** 
 988              		.loc 1 546 19 is_stmt 0 view .LVU314
 989 035c FFF7FEFF 		bl	HAL_GetTick
 990              	.LVL92:
 991 0360 0646     		mov	r6, r0
 992              	.LVL93:
 549:Drivers/STM32G4xx_HAL_Driver/Src/stm32g4xx_hal_rcc.c ****       {
 993              		.loc 1 549 7 is_stmt 1 view .LVU315
 994              	.L74:
 549:Drivers/STM32G4xx_HAL_Driver/Src/stm32g4xx_hal_rcc.c ****       {
 995              		.loc 1 549 13 view .LVU316
 549:Drivers/STM32G4xx_HAL_Driver/Src/stm32g4xx_hal_rcc.c ****       {
 996              		.loc 1 549 14 is_stmt 0 view .LVU317
 997 0362 8E4B     		ldr	r3, .L159+4
 998 0364 D3F89030 		ldr	r3, [r3, #144]
 549:Drivers/STM32G4xx_HAL_Driver/Src/stm32g4xx_hal_rcc.c ****       {
 999              		.loc 1 549 13 view .LVU318
 1000 0368 13F0020F 		tst	r3, #2
 1001 036c 08D0     		beq	.L73
 551:Drivers/STM32G4xx_HAL_Driver/Src/stm32g4xx_hal_rcc.c ****         {
 1002              		.loc 1 551 9 is_stmt 1 view .LVU319
 551:Drivers/STM32G4xx_HAL_Driver/Src/stm32g4xx_hal_rcc.c ****         {
 1003              		.loc 1 551 13 is_stmt 0 view .LVU320
 1004 036e FFF7FEFF 		bl	HAL_GetTick
 1005              	.LVL94:
 551:Drivers/STM32G4xx_HAL_Driver/Src/stm32g4xx_hal_rcc.c ****         {
 1006              		.loc 1 551 27 view .LVU321
 1007 0372 801B     		subs	r0, r0, r6
 551:Drivers/STM32G4xx_HAL_Driver/Src/stm32g4xx_hal_rcc.c ****         {
 1008              		.loc 1 551 11 view .LVU322
 1009 0374 41F28833 		movw	r3, #5000
 1010 0378 9842     		cmp	r0, r3
 1011 037a F2D9     		bls	.L74
 553:Drivers/STM32G4xx_HAL_Driver/Src/stm32g4xx_hal_rcc.c ****         }
 1012              		.loc 1 553 18 view .LVU323
 1013 037c 0320     		movs	r0, #3
 1014 037e 4AE1     		b	.L27
 1015              	.L73:
ARM GAS  /tmp/ccz2x4IP.s 			page 48


 559:Drivers/STM32G4xx_HAL_Driver/Src/stm32g4xx_hal_rcc.c ****     {
 1016              		.loc 1 559 5 is_stmt 1 view .LVU324
 559:Drivers/STM32G4xx_HAL_Driver/Src/stm32g4xx_hal_rcc.c ****     {
 1017              		.loc 1 559 8 is_stmt 0 view .LVU325
 1018 0380 FDB9     		cbnz	r5, .L145
 1019              	.LVL95:
 1020              	.L61:
 559:Drivers/STM32G4xx_HAL_Driver/Src/stm32g4xx_hal_rcc.c ****     {
 1021              		.loc 1 559 8 view .LVU326
 1022              	.LBE2:
 566:Drivers/STM32G4xx_HAL_Driver/Src/stm32g4xx_hal_rcc.c ****   {
 1023              		.loc 1 566 3 is_stmt 1 view .LVU327
 566:Drivers/STM32G4xx_HAL_Driver/Src/stm32g4xx_hal_rcc.c ****   {
 1024              		.loc 1 566 25 is_stmt 0 view .LVU328
 1025 0382 2368     		ldr	r3, [r4]
 566:Drivers/STM32G4xx_HAL_Driver/Src/stm32g4xx_hal_rcc.c ****   {
 1026              		.loc 1 566 5 view .LVU329
 1027 0384 13F0200F 		tst	r3, #32
 1028 0388 3ED0     		beq	.L76
 569:Drivers/STM32G4xx_HAL_Driver/Src/stm32g4xx_hal_rcc.c **** 
 1029              		.loc 1 569 5 is_stmt 1 view .LVU330
 1030 038a A369     		ldr	r3, [r4, #24]
 1031 038c 012B     		cmp	r3, #1
 1032 038e 1ED8     		bhi	.L146
 1033              	.L77:
 572:Drivers/STM32G4xx_HAL_Driver/Src/stm32g4xx_hal_rcc.c ****     {
 1034              		.loc 1 572 5 view .LVU331
 572:Drivers/STM32G4xx_HAL_Driver/Src/stm32g4xx_hal_rcc.c ****     {
 1035              		.loc 1 572 25 is_stmt 0 view .LVU332
 1036 0390 A369     		ldr	r3, [r4, #24]
 572:Drivers/STM32G4xx_HAL_Driver/Src/stm32g4xx_hal_rcc.c ****     {
 1037              		.loc 1 572 7 view .LVU333
 1038 0392 13B3     		cbz	r3, .L78
 575:Drivers/STM32G4xx_HAL_Driver/Src/stm32g4xx_hal_rcc.c **** 
 1039              		.loc 1 575 7 is_stmt 1 view .LVU334
 1040 0394 814A     		ldr	r2, .L159+4
 1041 0396 D2F89830 		ldr	r3, [r2, #152]
 1042 039a 43F00103 		orr	r3, r3, #1
 1043 039e C2F89830 		str	r3, [r2, #152]
 578:Drivers/STM32G4xx_HAL_Driver/Src/stm32g4xx_hal_rcc.c **** 
 1044              		.loc 1 578 7 view .LVU335
 578:Drivers/STM32G4xx_HAL_Driver/Src/stm32g4xx_hal_rcc.c **** 
 1045              		.loc 1 578 19 is_stmt 0 view .LVU336
 1046 03a2 FFF7FEFF 		bl	HAL_GetTick
 1047              	.LVL96:
 1048 03a6 0546     		mov	r5, r0
 1049              	.LVL97:
 581:Drivers/STM32G4xx_HAL_Driver/Src/stm32g4xx_hal_rcc.c ****       {
 1050              		.loc 1 581 7 is_stmt 1 view .LVU337
 1051              	.L79:
 581:Drivers/STM32G4xx_HAL_Driver/Src/stm32g4xx_hal_rcc.c ****       {
 1052              		.loc 1 581 12 view .LVU338
 581:Drivers/STM32G4xx_HAL_Driver/Src/stm32g4xx_hal_rcc.c ****       {
 1053              		.loc 1 581 13 is_stmt 0 view .LVU339
 1054 03a8 7C4B     		ldr	r3, .L159+4
 1055 03aa D3F89830 		ldr	r3, [r3, #152]
 581:Drivers/STM32G4xx_HAL_Driver/Src/stm32g4xx_hal_rcc.c ****       {
ARM GAS  /tmp/ccz2x4IP.s 			page 49


 1056              		.loc 1 581 12 view .LVU340
 1057 03ae 13F0020F 		tst	r3, #2
 1058 03b2 29D1     		bne	.L76
 583:Drivers/STM32G4xx_HAL_Driver/Src/stm32g4xx_hal_rcc.c ****         {
 1059              		.loc 1 583 9 is_stmt 1 view .LVU341
 583:Drivers/STM32G4xx_HAL_Driver/Src/stm32g4xx_hal_rcc.c ****         {
 1060              		.loc 1 583 13 is_stmt 0 view .LVU342
 1061 03b4 FFF7FEFF 		bl	HAL_GetTick
 1062              	.LVL98:
 583:Drivers/STM32G4xx_HAL_Driver/Src/stm32g4xx_hal_rcc.c ****         {
 1063              		.loc 1 583 27 view .LVU343
 1064 03b8 401B     		subs	r0, r0, r5
 583:Drivers/STM32G4xx_HAL_Driver/Src/stm32g4xx_hal_rcc.c ****         {
 1065              		.loc 1 583 11 view .LVU344
 1066 03ba 0228     		cmp	r0, #2
 1067 03bc F4D9     		bls	.L79
 585:Drivers/STM32G4xx_HAL_Driver/Src/stm32g4xx_hal_rcc.c ****         }
 1068              		.loc 1 585 18 view .LVU345
 1069 03be 0320     		movs	r0, #3
 1070 03c0 29E1     		b	.L27
 1071              	.LVL99:
 1072              	.L145:
 1073              	.LBB4:
 561:Drivers/STM32G4xx_HAL_Driver/Src/stm32g4xx_hal_rcc.c ****     }
 1074              		.loc 1 561 7 is_stmt 1 view .LVU346
 1075 03c2 764A     		ldr	r2, .L159+4
 1076 03c4 936D     		ldr	r3, [r2, #88]
 1077 03c6 23F08053 		bic	r3, r3, #268435456
 1078 03ca 9365     		str	r3, [r2, #88]
 1079 03cc D9E7     		b	.L61
 1080              	.LVL100:
 1081              	.L146:
 561:Drivers/STM32G4xx_HAL_Driver/Src/stm32g4xx_hal_rcc.c ****     }
 1082              		.loc 1 561 7 is_stmt 0 view .LVU347
 1083              	.LBE4:
 569:Drivers/STM32G4xx_HAL_Driver/Src/stm32g4xx_hal_rcc.c **** 
 1084              		.loc 1 569 5 discriminator 1 view .LVU348
 1085 03ce 40F23921 		movw	r1, #569
 1086 03d2 7348     		ldr	r0, .L159+8
 1087 03d4 FFF7FEFF 		bl	assert_failed
 1088              	.LVL101:
 1089 03d8 DAE7     		b	.L77
 1090              	.L78:
 592:Drivers/STM32G4xx_HAL_Driver/Src/stm32g4xx_hal_rcc.c **** 
 1091              		.loc 1 592 7 is_stmt 1 view .LVU349
 1092 03da 704A     		ldr	r2, .L159+4
 1093 03dc D2F89830 		ldr	r3, [r2, #152]
 1094 03e0 23F00103 		bic	r3, r3, #1
 1095 03e4 C2F89830 		str	r3, [r2, #152]
 595:Drivers/STM32G4xx_HAL_Driver/Src/stm32g4xx_hal_rcc.c **** 
 1096              		.loc 1 595 7 view .LVU350
 595:Drivers/STM32G4xx_HAL_Driver/Src/stm32g4xx_hal_rcc.c **** 
 1097              		.loc 1 595 19 is_stmt 0 view .LVU351
 1098 03e8 FFF7FEFF 		bl	HAL_GetTick
 1099              	.LVL102:
 1100 03ec 0546     		mov	r5, r0
 1101              	.LVL103:
ARM GAS  /tmp/ccz2x4IP.s 			page 50


 598:Drivers/STM32G4xx_HAL_Driver/Src/stm32g4xx_hal_rcc.c ****       {
 1102              		.loc 1 598 7 is_stmt 1 view .LVU352
 1103              	.L81:
 598:Drivers/STM32G4xx_HAL_Driver/Src/stm32g4xx_hal_rcc.c ****       {
 1104              		.loc 1 598 12 view .LVU353
 598:Drivers/STM32G4xx_HAL_Driver/Src/stm32g4xx_hal_rcc.c ****       {
 1105              		.loc 1 598 13 is_stmt 0 view .LVU354
 1106 03ee 6B4B     		ldr	r3, .L159+4
 1107 03f0 D3F89830 		ldr	r3, [r3, #152]
 598:Drivers/STM32G4xx_HAL_Driver/Src/stm32g4xx_hal_rcc.c ****       {
 1108              		.loc 1 598 12 view .LVU355
 1109 03f4 13F0020F 		tst	r3, #2
 1110 03f8 06D0     		beq	.L76
 600:Drivers/STM32G4xx_HAL_Driver/Src/stm32g4xx_hal_rcc.c ****         {
 1111              		.loc 1 600 9 is_stmt 1 view .LVU356
 600:Drivers/STM32G4xx_HAL_Driver/Src/stm32g4xx_hal_rcc.c ****         {
 1112              		.loc 1 600 13 is_stmt 0 view .LVU357
 1113 03fa FFF7FEFF 		bl	HAL_GetTick
 1114              	.LVL104:
 600:Drivers/STM32G4xx_HAL_Driver/Src/stm32g4xx_hal_rcc.c ****         {
 1115              		.loc 1 600 27 view .LVU358
 1116 03fe 401B     		subs	r0, r0, r5
 600:Drivers/STM32G4xx_HAL_Driver/Src/stm32g4xx_hal_rcc.c ****         {
 1117              		.loc 1 600 11 view .LVU359
 1118 0400 0228     		cmp	r0, #2
 1119 0402 F4D9     		bls	.L81
 602:Drivers/STM32G4xx_HAL_Driver/Src/stm32g4xx_hal_rcc.c ****         }
 1120              		.loc 1 602 18 view .LVU360
 1121 0404 0320     		movs	r0, #3
 1122 0406 06E1     		b	.L27
 1123              	.LVL105:
 1124              	.L76:
 610:Drivers/STM32G4xx_HAL_Driver/Src/stm32g4xx_hal_rcc.c **** 
 1125              		.loc 1 610 3 is_stmt 1 view .LVU361
 1126 0408 E369     		ldr	r3, [r4, #28]
 1127 040a 022B     		cmp	r3, #2
 1128 040c 45D8     		bhi	.L147
 1129              	.L83:
 612:Drivers/STM32G4xx_HAL_Driver/Src/stm32g4xx_hal_rcc.c ****   {
 1130              		.loc 1 612 3 view .LVU362
 612:Drivers/STM32G4xx_HAL_Driver/Src/stm32g4xx_hal_rcc.c ****   {
 1131              		.loc 1 612 29 is_stmt 0 view .LVU363
 1132 040e E369     		ldr	r3, [r4, #28]
 612:Drivers/STM32G4xx_HAL_Driver/Src/stm32g4xx_hal_rcc.c ****   {
 1133              		.loc 1 612 6 view .LVU364
 1134 0410 002B     		cmp	r3, #0
 1135 0412 00F0FF80 		beq	.L114
 615:Drivers/STM32G4xx_HAL_Driver/Src/stm32g4xx_hal_rcc.c ****     {
 1136              		.loc 1 615 5 is_stmt 1 view .LVU365
 615:Drivers/STM32G4xx_HAL_Driver/Src/stm32g4xx_hal_rcc.c ****     {
 1137              		.loc 1 615 9 is_stmt 0 view .LVU366
 1138 0416 614A     		ldr	r2, .L159+4
 1139 0418 9268     		ldr	r2, [r2, #8]
 1140 041a 02F00C02 		and	r2, r2, #12
 615:Drivers/STM32G4xx_HAL_Driver/Src/stm32g4xx_hal_rcc.c ****     {
 1141              		.loc 1 615 8 view .LVU367
 1142 041e 0C2A     		cmp	r2, #12
ARM GAS  /tmp/ccz2x4IP.s 			page 51


 1143 0420 00F0C280 		beq	.L84
 617:Drivers/STM32G4xx_HAL_Driver/Src/stm32g4xx_hal_rcc.c ****       {
 1144              		.loc 1 617 7 is_stmt 1 view .LVU368
 617:Drivers/STM32G4xx_HAL_Driver/Src/stm32g4xx_hal_rcc.c ****       {
 1145              		.loc 1 617 10 is_stmt 0 view .LVU369
 1146 0424 022B     		cmp	r3, #2
 1147 0426 40F09680 		bne	.L85
 620:Drivers/STM32G4xx_HAL_Driver/Src/stm32g4xx_hal_rcc.c ****         assert_param(IS_RCC_PLLM_VALUE(RCC_OscInitStruct->PLL.PLLM));
 1148              		.loc 1 620 9 is_stmt 1 view .LVU370
 1149 042a 236A     		ldr	r3, [r4, #32]
 1150 042c 1BB1     		cbz	r3, .L86
 620:Drivers/STM32G4xx_HAL_Driver/Src/stm32g4xx_hal_rcc.c ****         assert_param(IS_RCC_PLLM_VALUE(RCC_OscInitStruct->PLL.PLLM));
 1151              		.loc 1 620 9 is_stmt 0 discriminator 1 view .LVU371
 1152 042e 022B     		cmp	r3, #2
 1153 0430 01D0     		beq	.L86
 620:Drivers/STM32G4xx_HAL_Driver/Src/stm32g4xx_hal_rcc.c ****         assert_param(IS_RCC_PLLM_VALUE(RCC_OscInitStruct->PLL.PLLM));
 1154              		.loc 1 620 9 discriminator 2 view .LVU372
 1155 0432 032B     		cmp	r3, #3
 1156 0434 37D1     		bne	.L148
 1157              	.L86:
 621:Drivers/STM32G4xx_HAL_Driver/Src/stm32g4xx_hal_rcc.c ****         assert_param(IS_RCC_PLLN_VALUE(RCC_OscInitStruct->PLL.PLLN));
 1158              		.loc 1 621 9 is_stmt 1 view .LVU373
 1159 0436 636A     		ldr	r3, [r4, #36]
 1160 0438 013B     		subs	r3, r3, #1
 1161 043a 0F2B     		cmp	r3, #15
 1162 043c 39D8     		bhi	.L149
 1163              	.L87:
 622:Drivers/STM32G4xx_HAL_Driver/Src/stm32g4xx_hal_rcc.c ****         assert_param(IS_RCC_PLLP_VALUE(RCC_OscInitStruct->PLL.PLLP));
 1164              		.loc 1 622 9 view .LVU374
 1165 043e A36A     		ldr	r3, [r4, #40]
 1166 0440 083B     		subs	r3, r3, #8
 1167 0442 772B     		cmp	r3, #119
 1168 0444 3BD8     		bhi	.L150
 1169              	.L88:
 623:Drivers/STM32G4xx_HAL_Driver/Src/stm32g4xx_hal_rcc.c ****         assert_param(IS_RCC_PLLQ_VALUE(RCC_OscInitStruct->PLL.PLLQ));
 1170              		.loc 1 623 9 view .LVU375
 1171 0446 E36A     		ldr	r3, [r4, #44]
 1172 0448 023B     		subs	r3, r3, #2
 1173 044a 1D2B     		cmp	r3, #29
 1174 044c 3DD8     		bhi	.L151
 1175              	.L89:
 624:Drivers/STM32G4xx_HAL_Driver/Src/stm32g4xx_hal_rcc.c ****         assert_param(IS_RCC_PLLR_VALUE(RCC_OscInitStruct->PLL.PLLR));
 1176              		.loc 1 624 9 view .LVU376
 1177 044e 236B     		ldr	r3, [r4, #48]
 1178 0450 022B     		cmp	r3, #2
 1179 0452 05D0     		beq	.L90
 624:Drivers/STM32G4xx_HAL_Driver/Src/stm32g4xx_hal_rcc.c ****         assert_param(IS_RCC_PLLR_VALUE(RCC_OscInitStruct->PLL.PLLR));
 1180              		.loc 1 624 9 is_stmt 0 discriminator 1 view .LVU377
 1181 0454 042B     		cmp	r3, #4
 1182 0456 03D0     		beq	.L90
 624:Drivers/STM32G4xx_HAL_Driver/Src/stm32g4xx_hal_rcc.c ****         assert_param(IS_RCC_PLLR_VALUE(RCC_OscInitStruct->PLL.PLLR));
 1183              		.loc 1 624 9 discriminator 2 view .LVU378
 1184 0458 062B     		cmp	r3, #6
 1185 045a 01D0     		beq	.L90
 624:Drivers/STM32G4xx_HAL_Driver/Src/stm32g4xx_hal_rcc.c ****         assert_param(IS_RCC_PLLR_VALUE(RCC_OscInitStruct->PLL.PLLR));
 1186              		.loc 1 624 9 discriminator 3 view .LVU379
 1187 045c 082B     		cmp	r3, #8
ARM GAS  /tmp/ccz2x4IP.s 			page 52


 1188 045e 3AD1     		bne	.L152
 1189              	.L90:
 625:Drivers/STM32G4xx_HAL_Driver/Src/stm32g4xx_hal_rcc.c **** 
 1190              		.loc 1 625 9 is_stmt 1 view .LVU380
 1191 0460 636B     		ldr	r3, [r4, #52]
 1192 0462 022B     		cmp	r3, #2
 1193 0464 05D0     		beq	.L91
 625:Drivers/STM32G4xx_HAL_Driver/Src/stm32g4xx_hal_rcc.c **** 
 1194              		.loc 1 625 9 is_stmt 0 discriminator 1 view .LVU381
 1195 0466 042B     		cmp	r3, #4
 1196 0468 03D0     		beq	.L91
 625:Drivers/STM32G4xx_HAL_Driver/Src/stm32g4xx_hal_rcc.c **** 
 1197              		.loc 1 625 9 discriminator 2 view .LVU382
 1198 046a 062B     		cmp	r3, #6
 1199 046c 01D0     		beq	.L91
 625:Drivers/STM32G4xx_HAL_Driver/Src/stm32g4xx_hal_rcc.c **** 
 1200              		.loc 1 625 9 discriminator 3 view .LVU383
 1201 046e 082B     		cmp	r3, #8
 1202 0470 37D1     		bne	.L153
 1203              	.L91:
 628:Drivers/STM32G4xx_HAL_Driver/Src/stm32g4xx_hal_rcc.c **** 
 1204              		.loc 1 628 9 is_stmt 1 view .LVU384
 1205 0472 4A4A     		ldr	r2, .L159+4
 1206 0474 1368     		ldr	r3, [r2]
 1207 0476 23F08073 		bic	r3, r3, #16777216
 1208 047a 1360     		str	r3, [r2]
 631:Drivers/STM32G4xx_HAL_Driver/Src/stm32g4xx_hal_rcc.c **** 
 1209              		.loc 1 631 9 view .LVU385
 631:Drivers/STM32G4xx_HAL_Driver/Src/stm32g4xx_hal_rcc.c **** 
 1210              		.loc 1 631 21 is_stmt 0 view .LVU386
 1211 047c FFF7FEFF 		bl	HAL_GetTick
 1212              	.LVL106:
 1213 0480 0546     		mov	r5, r0
 1214              	.LVL107:
 634:Drivers/STM32G4xx_HAL_Driver/Src/stm32g4xx_hal_rcc.c ****         {
 1215              		.loc 1 634 9 is_stmt 1 view .LVU387
 1216              	.L92:
 634:Drivers/STM32G4xx_HAL_Driver/Src/stm32g4xx_hal_rcc.c ****         {
 1217              		.loc 1 634 15 view .LVU388
 634:Drivers/STM32G4xx_HAL_Driver/Src/stm32g4xx_hal_rcc.c ****         {
 1218              		.loc 1 634 16 is_stmt 0 view .LVU389
 1219 0482 464B     		ldr	r3, .L159+4
 1220 0484 1B68     		ldr	r3, [r3]
 634:Drivers/STM32G4xx_HAL_Driver/Src/stm32g4xx_hal_rcc.c ****         {
 1221              		.loc 1 634 15 view .LVU390
 1222 0486 13F0007F 		tst	r3, #33554432
 1223 048a 30D0     		beq	.L154
 636:Drivers/STM32G4xx_HAL_Driver/Src/stm32g4xx_hal_rcc.c ****           {
 1224              		.loc 1 636 11 is_stmt 1 view .LVU391
 636:Drivers/STM32G4xx_HAL_Driver/Src/stm32g4xx_hal_rcc.c ****           {
 1225              		.loc 1 636 16 is_stmt 0 view .LVU392
 1226 048c FFF7FEFF 		bl	HAL_GetTick
 1227              	.LVL108:
 636:Drivers/STM32G4xx_HAL_Driver/Src/stm32g4xx_hal_rcc.c ****           {
 1228              		.loc 1 636 30 view .LVU393
 1229 0490 401B     		subs	r0, r0, r5
 636:Drivers/STM32G4xx_HAL_Driver/Src/stm32g4xx_hal_rcc.c ****           {
ARM GAS  /tmp/ccz2x4IP.s 			page 53


 1230              		.loc 1 636 14 view .LVU394
 1231 0492 0228     		cmp	r0, #2
 1232 0494 F5D9     		bls	.L92
 638:Drivers/STM32G4xx_HAL_Driver/Src/stm32g4xx_hal_rcc.c ****           }
 1233              		.loc 1 638 20 view .LVU395
 1234 0496 0320     		movs	r0, #3
 1235 0498 BDE0     		b	.L27
 1236              	.LVL109:
 1237              	.L147:
 610:Drivers/STM32G4xx_HAL_Driver/Src/stm32g4xx_hal_rcc.c **** 
 1238              		.loc 1 610 3 discriminator 1 view .LVU396
 1239 049a 40F26221 		movw	r1, #610
 1240 049e 4048     		ldr	r0, .L159+8
 1241 04a0 FFF7FEFF 		bl	assert_failed
 1242              	.LVL110:
 1243 04a4 B3E7     		b	.L83
 1244              	.L148:
 620:Drivers/STM32G4xx_HAL_Driver/Src/stm32g4xx_hal_rcc.c ****         assert_param(IS_RCC_PLLM_VALUE(RCC_OscInitStruct->PLL.PLLM));
 1245              		.loc 1 620 9 discriminator 3 view .LVU397
 1246 04a6 4FF41B71 		mov	r1, #620
 1247 04aa 3D48     		ldr	r0, .L159+8
 1248 04ac FFF7FEFF 		bl	assert_failed
 1249              	.LVL111:
 1250 04b0 C1E7     		b	.L86
 1251              	.L149:
 621:Drivers/STM32G4xx_HAL_Driver/Src/stm32g4xx_hal_rcc.c ****         assert_param(IS_RCC_PLLN_VALUE(RCC_OscInitStruct->PLL.PLLN));
 1252              		.loc 1 621 9 discriminator 1 view .LVU398
 1253 04b2 40F26D21 		movw	r1, #621
 1254 04b6 3A48     		ldr	r0, .L159+8
 1255 04b8 FFF7FEFF 		bl	assert_failed
 1256              	.LVL112:
 1257 04bc BFE7     		b	.L87
 1258              	.L150:
 622:Drivers/STM32G4xx_HAL_Driver/Src/stm32g4xx_hal_rcc.c ****         assert_param(IS_RCC_PLLP_VALUE(RCC_OscInitStruct->PLL.PLLP));
 1259              		.loc 1 622 9 discriminator 1 view .LVU399
 1260 04be 40F26E21 		movw	r1, #622
 1261 04c2 3748     		ldr	r0, .L159+8
 1262 04c4 FFF7FEFF 		bl	assert_failed
 1263              	.LVL113:
 1264 04c8 BDE7     		b	.L88
 1265              	.L151:
 623:Drivers/STM32G4xx_HAL_Driver/Src/stm32g4xx_hal_rcc.c ****         assert_param(IS_RCC_PLLQ_VALUE(RCC_OscInitStruct->PLL.PLLQ));
 1266              		.loc 1 623 9 discriminator 1 view .LVU400
 1267 04ca 40F26F21 		movw	r1, #623
 1268 04ce 3448     		ldr	r0, .L159+8
 1269 04d0 FFF7FEFF 		bl	assert_failed
 1270              	.LVL114:
 1271 04d4 BBE7     		b	.L89
 1272              	.L152:
 624:Drivers/STM32G4xx_HAL_Driver/Src/stm32g4xx_hal_rcc.c ****         assert_param(IS_RCC_PLLR_VALUE(RCC_OscInitStruct->PLL.PLLR));
 1273              		.loc 1 624 9 discriminator 4 view .LVU401
 1274 04d6 4FF41C71 		mov	r1, #624
 1275 04da 3148     		ldr	r0, .L159+8
 1276 04dc FFF7FEFF 		bl	assert_failed
 1277              	.LVL115:
 1278 04e0 BEE7     		b	.L90
 1279              	.L153:
ARM GAS  /tmp/ccz2x4IP.s 			page 54


 625:Drivers/STM32G4xx_HAL_Driver/Src/stm32g4xx_hal_rcc.c **** 
 1280              		.loc 1 625 9 discriminator 4 view .LVU402
 1281 04e2 40F27121 		movw	r1, #625
 1282 04e6 2E48     		ldr	r0, .L159+8
 1283 04e8 FFF7FEFF 		bl	assert_failed
 1284              	.LVL116:
 1285 04ec C1E7     		b	.L91
 1286              	.LVL117:
 1287              	.L154:
 643:Drivers/STM32G4xx_HAL_Driver/Src/stm32g4xx_hal_rcc.c ****                              RCC_OscInitStruct->PLL.PLLM,
 1288              		.loc 1 643 9 is_stmt 1 view .LVU403
 1289 04ee 2B4A     		ldr	r2, .L159+4
 1290 04f0 D368     		ldr	r3, [r2, #12]
 1291 04f2 2C49     		ldr	r1, .L159+12
 1292 04f4 1940     		ands	r1, r1, r3
 1293 04f6 236A     		ldr	r3, [r4, #32]
 1294 04f8 606A     		ldr	r0, [r4, #36]
 1295 04fa 0138     		subs	r0, r0, #1
 1296 04fc 43EA0013 		orr	r3, r3, r0, lsl #4
 1297 0500 A06A     		ldr	r0, [r4, #40]
 1298 0502 43EA0023 		orr	r3, r3, r0, lsl #8
 1299 0506 206B     		ldr	r0, [r4, #48]
 1300 0508 4008     		lsrs	r0, r0, #1
 1301 050a 0138     		subs	r0, r0, #1
 1302 050c 43EA4053 		orr	r3, r3, r0, lsl #21
 1303 0510 606B     		ldr	r0, [r4, #52]
 1304 0512 4008     		lsrs	r0, r0, #1
 1305 0514 0138     		subs	r0, r0, #1
 1306 0516 43EA4063 		orr	r3, r3, r0, lsl #25
 1307 051a E06A     		ldr	r0, [r4, #44]
 1308 051c 43EAC063 		orr	r3, r3, r0, lsl #27
 1309 0520 0B43     		orrs	r3, r3, r1
 1310 0522 D360     		str	r3, [r2, #12]
 651:Drivers/STM32G4xx_HAL_Driver/Src/stm32g4xx_hal_rcc.c **** 
 1311              		.loc 1 651 9 view .LVU404
 1312 0524 1368     		ldr	r3, [r2]
 1313 0526 43F08073 		orr	r3, r3, #16777216
 1314 052a 1360     		str	r3, [r2]
 654:Drivers/STM32G4xx_HAL_Driver/Src/stm32g4xx_hal_rcc.c **** 
 1315              		.loc 1 654 10 view .LVU405
 1316 052c D368     		ldr	r3, [r2, #12]
 1317 052e 43F08073 		orr	r3, r3, #16777216
 1318 0532 D360     		str	r3, [r2, #12]
 657:Drivers/STM32G4xx_HAL_Driver/Src/stm32g4xx_hal_rcc.c **** 
 1319              		.loc 1 657 9 view .LVU406
 657:Drivers/STM32G4xx_HAL_Driver/Src/stm32g4xx_hal_rcc.c **** 
 1320              		.loc 1 657 21 is_stmt 0 view .LVU407
 1321 0534 FFF7FEFF 		bl	HAL_GetTick
 1322              	.LVL118:
 1323 0538 0446     		mov	r4, r0
 1324              	.LVL119:
 660:Drivers/STM32G4xx_HAL_Driver/Src/stm32g4xx_hal_rcc.c ****         {
 1325              		.loc 1 660 9 is_stmt 1 view .LVU408
 1326              	.L94:
 660:Drivers/STM32G4xx_HAL_Driver/Src/stm32g4xx_hal_rcc.c ****         {
 1327              		.loc 1 660 15 view .LVU409
 660:Drivers/STM32G4xx_HAL_Driver/Src/stm32g4xx_hal_rcc.c ****         {
ARM GAS  /tmp/ccz2x4IP.s 			page 55


 1328              		.loc 1 660 16 is_stmt 0 view .LVU410
 1329 053a 184B     		ldr	r3, .L159+4
 1330 053c 1B68     		ldr	r3, [r3]
 660:Drivers/STM32G4xx_HAL_Driver/Src/stm32g4xx_hal_rcc.c ****         {
 1331              		.loc 1 660 15 view .LVU411
 1332 053e 13F0007F 		tst	r3, #33554432
 1333 0542 06D1     		bne	.L155
 662:Drivers/STM32G4xx_HAL_Driver/Src/stm32g4xx_hal_rcc.c ****           {
 1334              		.loc 1 662 11 is_stmt 1 view .LVU412
 662:Drivers/STM32G4xx_HAL_Driver/Src/stm32g4xx_hal_rcc.c ****           {
 1335              		.loc 1 662 16 is_stmt 0 view .LVU413
 1336 0544 FFF7FEFF 		bl	HAL_GetTick
 1337              	.LVL120:
 662:Drivers/STM32G4xx_HAL_Driver/Src/stm32g4xx_hal_rcc.c ****           {
 1338              		.loc 1 662 30 view .LVU414
 1339 0548 001B     		subs	r0, r0, r4
 662:Drivers/STM32G4xx_HAL_Driver/Src/stm32g4xx_hal_rcc.c ****           {
 1340              		.loc 1 662 14 view .LVU415
 1341 054a 0228     		cmp	r0, #2
 1342 054c F5D9     		bls	.L94
 664:Drivers/STM32G4xx_HAL_Driver/Src/stm32g4xx_hal_rcc.c ****           }
 1343              		.loc 1 664 20 view .LVU416
 1344 054e 0320     		movs	r0, #3
 1345 0550 61E0     		b	.L27
 1346              	.L155:
 714:Drivers/STM32G4xx_HAL_Driver/Src/stm32g4xx_hal_rcc.c **** }
 1347              		.loc 1 714 10 view .LVU417
 1348 0552 0020     		movs	r0, #0
 1349 0554 5FE0     		b	.L27
 1350              	.LVL121:
 1351              	.L85:
 671:Drivers/STM32G4xx_HAL_Driver/Src/stm32g4xx_hal_rcc.c **** 
 1352              		.loc 1 671 9 is_stmt 1 view .LVU418
 1353 0556 114B     		ldr	r3, .L159+4
 1354 0558 1A68     		ldr	r2, [r3]
 1355 055a 22F08072 		bic	r2, r2, #16777216
 1356 055e 1A60     		str	r2, [r3]
 674:Drivers/STM32G4xx_HAL_Driver/Src/stm32g4xx_hal_rcc.c ****         __HAL_RCC_PLLCLKOUT_DISABLE(RCC_PLL_SYSCLK | RCC_PLL_48M1CLK | RCC_PLL_ADCCLK);
 1357              		.loc 1 674 11 view .LVU419
 1358 0560 DA68     		ldr	r2, [r3, #12]
 1359 0562 22F00302 		bic	r2, r2, #3
 1360 0566 DA60     		str	r2, [r3, #12]
 675:Drivers/STM32G4xx_HAL_Driver/Src/stm32g4xx_hal_rcc.c **** 
 1361              		.loc 1 675 9 view .LVU420
 1362 0568 DA68     		ldr	r2, [r3, #12]
 1363 056a 22F08872 		bic	r2, r2, #17825792
 1364 056e 22F48032 		bic	r2, r2, #65536
 1365 0572 DA60     		str	r2, [r3, #12]
 678:Drivers/STM32G4xx_HAL_Driver/Src/stm32g4xx_hal_rcc.c **** 
 1366              		.loc 1 678 9 view .LVU421
 678:Drivers/STM32G4xx_HAL_Driver/Src/stm32g4xx_hal_rcc.c **** 
 1367              		.loc 1 678 21 is_stmt 0 view .LVU422
 1368 0574 FFF7FEFF 		bl	HAL_GetTick
 1369              	.LVL122:
 1370 0578 0446     		mov	r4, r0
 1371              	.LVL123:
 681:Drivers/STM32G4xx_HAL_Driver/Src/stm32g4xx_hal_rcc.c ****         {
ARM GAS  /tmp/ccz2x4IP.s 			page 56


 1372              		.loc 1 681 9 is_stmt 1 view .LVU423
 1373              	.L96:
 681:Drivers/STM32G4xx_HAL_Driver/Src/stm32g4xx_hal_rcc.c ****         {
 1374              		.loc 1 681 15 view .LVU424
 681:Drivers/STM32G4xx_HAL_Driver/Src/stm32g4xx_hal_rcc.c ****         {
 1375              		.loc 1 681 16 is_stmt 0 view .LVU425
 1376 057a 084B     		ldr	r3, .L159+4
 1377 057c 1B68     		ldr	r3, [r3]
 681:Drivers/STM32G4xx_HAL_Driver/Src/stm32g4xx_hal_rcc.c ****         {
 1378              		.loc 1 681 15 view .LVU426
 1379 057e 13F0007F 		tst	r3, #33554432
 1380 0582 06D0     		beq	.L156
 683:Drivers/STM32G4xx_HAL_Driver/Src/stm32g4xx_hal_rcc.c ****           {
 1381              		.loc 1 683 11 is_stmt 1 view .LVU427
 683:Drivers/STM32G4xx_HAL_Driver/Src/stm32g4xx_hal_rcc.c ****           {
 1382              		.loc 1 683 16 is_stmt 0 view .LVU428
 1383 0584 FFF7FEFF 		bl	HAL_GetTick
 1384              	.LVL124:
 683:Drivers/STM32G4xx_HAL_Driver/Src/stm32g4xx_hal_rcc.c ****           {
 1385              		.loc 1 683 30 view .LVU429
 1386 0588 001B     		subs	r0, r0, r4
 683:Drivers/STM32G4xx_HAL_Driver/Src/stm32g4xx_hal_rcc.c ****           {
 1387              		.loc 1 683 14 view .LVU430
 1388 058a 0228     		cmp	r0, #2
 1389 058c F5D9     		bls	.L96
 685:Drivers/STM32G4xx_HAL_Driver/Src/stm32g4xx_hal_rcc.c ****           }
 1390              		.loc 1 685 20 view .LVU431
 1391 058e 0320     		movs	r0, #3
 1392 0590 41E0     		b	.L27
 1393              	.L156:
 714:Drivers/STM32G4xx_HAL_Driver/Src/stm32g4xx_hal_rcc.c **** }
 1394              		.loc 1 714 10 view .LVU432
 1395 0592 0020     		movs	r0, #0
 1396 0594 3FE0     		b	.L27
 1397              	.L160:
 1398 0596 00BF     		.align	2
 1399              	.L159:
 1400 0598 00700040 		.word	1073770496
 1401 059c 00100240 		.word	1073876992
 1402 05a0 00000000 		.word	.LC0
 1403 05a4 0C809F01 		.word	27230220
 1404              	.LVL125:
 1405              	.L84:
 693:Drivers/STM32G4xx_HAL_Driver/Src/stm32g4xx_hal_rcc.c ****       {
 1406              		.loc 1 693 7 is_stmt 1 view .LVU433
 693:Drivers/STM32G4xx_HAL_Driver/Src/stm32g4xx_hal_rcc.c ****       {
 1407              		.loc 1 693 9 is_stmt 0 view .LVU434
 1408 05a8 012B     		cmp	r3, #1
 1409 05aa 36D0     		beq	.L118
 700:Drivers/STM32G4xx_HAL_Driver/Src/stm32g4xx_hal_rcc.c ****       if((READ_BIT(temp_pllckcfg, RCC_PLLCFGR_PLLSRC) != RCC_OscInitStruct->PLL.PLLSource) ||
 1410              		.loc 1 700 7 is_stmt 1 view .LVU435
 700:Drivers/STM32G4xx_HAL_Driver/Src/stm32g4xx_hal_rcc.c ****       if((READ_BIT(temp_pllckcfg, RCC_PLLCFGR_PLLSRC) != RCC_OscInitStruct->PLL.PLLSource) ||
 1411              		.loc 1 700 21 is_stmt 0 view .LVU436
 1412 05ac 224B     		ldr	r3, .L161
 1413 05ae DB68     		ldr	r3, [r3, #12]
 1414              	.LVL126:
 701:Drivers/STM32G4xx_HAL_Driver/Src/stm32g4xx_hal_rcc.c ****          (READ_BIT(temp_pllckcfg, RCC_PLLCFGR_PLLM) != (((RCC_OscInitStruct->PLL.PLLM) - 1U) << RCC
ARM GAS  /tmp/ccz2x4IP.s 			page 57


 1415              		.loc 1 701 7 is_stmt 1 view .LVU437
 701:Drivers/STM32G4xx_HAL_Driver/Src/stm32g4xx_hal_rcc.c ****          (READ_BIT(temp_pllckcfg, RCC_PLLCFGR_PLLM) != (((RCC_OscInitStruct->PLL.PLLM) - 1U) << RCC
 1416              		.loc 1 701 11 is_stmt 0 view .LVU438
 1417 05b0 03F00301 		and	r1, r3, #3
 701:Drivers/STM32G4xx_HAL_Driver/Src/stm32g4xx_hal_rcc.c ****          (READ_BIT(temp_pllckcfg, RCC_PLLCFGR_PLLM) != (((RCC_OscInitStruct->PLL.PLLM) - 1U) << RCC
 1418              		.loc 1 701 80 view .LVU439
 1419 05b4 226A     		ldr	r2, [r4, #32]
 701:Drivers/STM32G4xx_HAL_Driver/Src/stm32g4xx_hal_rcc.c ****          (READ_BIT(temp_pllckcfg, RCC_PLLCFGR_PLLM) != (((RCC_OscInitStruct->PLL.PLLM) - 1U) << RCC
 1420              		.loc 1 701 9 view .LVU440
 1421 05b6 9142     		cmp	r1, r2
 1422 05b8 31D1     		bne	.L119
 702:Drivers/STM32G4xx_HAL_Driver/Src/stm32g4xx_hal_rcc.c ****          (READ_BIT(temp_pllckcfg, RCC_PLLCFGR_PLLN) != ((RCC_OscInitStruct->PLL.PLLN) << RCC_PLLCFG
 1423              		.loc 1 702 11 discriminator 1 view .LVU441
 1424 05ba 03F0F002 		and	r2, r3, #240
 702:Drivers/STM32G4xx_HAL_Driver/Src/stm32g4xx_hal_rcc.c ****          (READ_BIT(temp_pllckcfg, RCC_PLLCFGR_PLLN) != ((RCC_OscInitStruct->PLL.PLLN) << RCC_PLLCFG
 1425              		.loc 1 702 81 discriminator 1 view .LVU442
 1426 05be 616A     		ldr	r1, [r4, #36]
 702:Drivers/STM32G4xx_HAL_Driver/Src/stm32g4xx_hal_rcc.c ****          (READ_BIT(temp_pllckcfg, RCC_PLLCFGR_PLLN) != ((RCC_OscInitStruct->PLL.PLLN) << RCC_PLLCFG
 1427              		.loc 1 702 88 discriminator 1 view .LVU443
 1428 05c0 0139     		subs	r1, r1, #1
 701:Drivers/STM32G4xx_HAL_Driver/Src/stm32g4xx_hal_rcc.c ****          (READ_BIT(temp_pllckcfg, RCC_PLLCFGR_PLLM) != (((RCC_OscInitStruct->PLL.PLLM) - 1U) << RCC
 1429              		.loc 1 701 92 discriminator 1 view .LVU444
 1430 05c2 B2EB011F 		cmp	r2, r1, lsl #4
 1431 05c6 2CD1     		bne	.L120
 703:Drivers/STM32G4xx_HAL_Driver/Src/stm32g4xx_hal_rcc.c ****          (READ_BIT(temp_pllckcfg, RCC_PLLCFGR_PLLPDIV) != ((RCC_OscInitStruct->PLL.PLLP) << RCC_PLL
 1432              		.loc 1 703 11 view .LVU445
 1433 05c8 03F4FE42 		and	r2, r3, #32512
 703:Drivers/STM32G4xx_HAL_Driver/Src/stm32g4xx_hal_rcc.c ****          (READ_BIT(temp_pllckcfg, RCC_PLLCFGR_PLLPDIV) != ((RCC_OscInitStruct->PLL.PLLP) << RCC_PLL
 1434              		.loc 1 703 80 view .LVU446
 1435 05cc A16A     		ldr	r1, [r4, #40]
 702:Drivers/STM32G4xx_HAL_Driver/Src/stm32g4xx_hal_rcc.c ****          (READ_BIT(temp_pllckcfg, RCC_PLLCFGR_PLLN) != ((RCC_OscInitStruct->PLL.PLLN) << RCC_PLLCFG
 1436              		.loc 1 702 120 view .LVU447
 1437 05ce B2EB012F 		cmp	r2, r1, lsl #8
 1438 05d2 28D1     		bne	.L121
 704:Drivers/STM32G4xx_HAL_Driver/Src/stm32g4xx_hal_rcc.c ****          (READ_BIT(temp_pllckcfg, RCC_PLLCFGR_PLLQ) != ((((RCC_OscInitStruct->PLL.PLLQ) >> 1U) - 1U
 1439              		.loc 1 704 11 view .LVU448
 1440 05d4 03F07842 		and	r2, r3, #-134217728
 704:Drivers/STM32G4xx_HAL_Driver/Src/stm32g4xx_hal_rcc.c ****          (READ_BIT(temp_pllckcfg, RCC_PLLCFGR_PLLQ) != ((((RCC_OscInitStruct->PLL.PLLQ) >> 1U) - 1U
 1441              		.loc 1 704 83 view .LVU449
 1442 05d8 E16A     		ldr	r1, [r4, #44]
 703:Drivers/STM32G4xx_HAL_Driver/Src/stm32g4xx_hal_rcc.c ****          (READ_BIT(temp_pllckcfg, RCC_PLLCFGR_PLLPDIV) != ((RCC_OscInitStruct->PLL.PLLP) << RCC_PLL
 1443              		.loc 1 703 113 view .LVU450
 1444 05da B2EBC16F 		cmp	r2, r1, lsl #27
 1445 05de 24D1     		bne	.L122
 705:Drivers/STM32G4xx_HAL_Driver/Src/stm32g4xx_hal_rcc.c ****          (READ_BIT(temp_pllckcfg, RCC_PLLCFGR_PLLR) != ((((RCC_OscInitStruct->PLL.PLLR) >> 1U) - 1U
 1446              		.loc 1 705 11 view .LVU451
 1447 05e0 03F4C001 		and	r1, r3, #6291456
 705:Drivers/STM32G4xx_HAL_Driver/Src/stm32g4xx_hal_rcc.c ****          (READ_BIT(temp_pllckcfg, RCC_PLLCFGR_PLLR) != ((((RCC_OscInitStruct->PLL.PLLR) >> 1U) - 1U
 1448              		.loc 1 705 82 view .LVU452
 1449 05e4 226B     		ldr	r2, [r4, #48]
 705:Drivers/STM32G4xx_HAL_Driver/Src/stm32g4xx_hal_rcc.c ****          (READ_BIT(temp_pllckcfg, RCC_PLLCFGR_PLLR) != ((((RCC_OscInitStruct->PLL.PLLR) >> 1U) - 1U
 1450              		.loc 1 705 89 view .LVU453
 1451 05e6 5208     		lsrs	r2, r2, #1
 705:Drivers/STM32G4xx_HAL_Driver/Src/stm32g4xx_hal_rcc.c ****          (READ_BIT(temp_pllckcfg, RCC_PLLCFGR_PLLR) != ((((RCC_OscInitStruct->PLL.PLLR) >> 1U) - 1U
 1452              		.loc 1 705 96 view .LVU454
 1453 05e8 013A     		subs	r2, r2, #1
 704:Drivers/STM32G4xx_HAL_Driver/Src/stm32g4xx_hal_rcc.c ****          (READ_BIT(temp_pllckcfg, RCC_PLLCFGR_PLLQ) != ((((RCC_OscInitStruct->PLL.PLLQ) >> 1U) - 1U
ARM GAS  /tmp/ccz2x4IP.s 			page 58


 1454              		.loc 1 704 119 view .LVU455
 1455 05ea B1EB425F 		cmp	r1, r2, lsl #21
 1456 05ee 1ED1     		bne	.L123
 706:Drivers/STM32G4xx_HAL_Driver/Src/stm32g4xx_hal_rcc.c ****       {
 1457              		.loc 1 706 11 view .LVU456
 1458 05f0 03F0C063 		and	r3, r3, #100663296
 1459              	.LVL127:
 706:Drivers/STM32G4xx_HAL_Driver/Src/stm32g4xx_hal_rcc.c ****       {
 1460              		.loc 1 706 82 view .LVU457
 1461 05f4 626B     		ldr	r2, [r4, #52]
 706:Drivers/STM32G4xx_HAL_Driver/Src/stm32g4xx_hal_rcc.c ****       {
 1462              		.loc 1 706 89 view .LVU458
 1463 05f6 5208     		lsrs	r2, r2, #1
 706:Drivers/STM32G4xx_HAL_Driver/Src/stm32g4xx_hal_rcc.c ****       {
 1464              		.loc 1 706 96 view .LVU459
 1465 05f8 013A     		subs	r2, r2, #1
 705:Drivers/STM32G4xx_HAL_Driver/Src/stm32g4xx_hal_rcc.c ****          (READ_BIT(temp_pllckcfg, RCC_PLLCFGR_PLLR) != ((((RCC_OscInitStruct->PLL.PLLR) >> 1U) - 1U
 1466              		.loc 1 705 128 view .LVU460
 1467 05fa B3EB426F 		cmp	r3, r2, lsl #25
 1468 05fe 18D1     		bne	.L124
 714:Drivers/STM32G4xx_HAL_Driver/Src/stm32g4xx_hal_rcc.c **** }
 1469              		.loc 1 714 10 view .LVU461
 1470 0600 0020     		movs	r0, #0
 1471 0602 08E0     		b	.L27
 1472              	.LVL128:
 1473              	.L98:
 1474              	.LCFI3:
 1475              		.cfi_def_cfa_offset 0
 1476              		.cfi_restore 4
 1477              		.cfi_restore 5
 1478              		.cfi_restore 6
 1479              		.cfi_restore 14
 319:Drivers/STM32G4xx_HAL_Driver/Src/stm32g4xx_hal_rcc.c ****   }
 1480              		.loc 1 319 12 view .LVU462
 1481 0604 0120     		movs	r0, #1
 1482              	.LVL129:
 715:Drivers/STM32G4xx_HAL_Driver/Src/stm32g4xx_hal_rcc.c **** 
 1483              		.loc 1 715 1 view .LVU463
 1484 0606 7047     		bx	lr
 1485              	.LVL130:
 1486              	.L134:
 1487              	.LCFI4:
 1488              		.cfi_def_cfa_offset 24
 1489              		.cfi_offset 4, -16
 1490              		.cfi_offset 5, -12
 1491              		.cfi_offset 6, -8
 1492              		.cfi_offset 14, -4
 339:Drivers/STM32G4xx_HAL_Driver/Src/stm32g4xx_hal_rcc.c ****       }
 1493              		.loc 1 339 16 view .LVU464
 1494 0608 0120     		movs	r0, #1
 1495 060a 04E0     		b	.L27
 1496              	.L102:
 393:Drivers/STM32G4xx_HAL_Driver/Src/stm32g4xx_hal_rcc.c ****       }
 1497              		.loc 1 393 16 view .LVU465
 1498 060c 0120     		movs	r0, #1
 1499 060e 02E0     		b	.L27
 1500              	.LVL131:
ARM GAS  /tmp/ccz2x4IP.s 			page 59


 1501              	.L139:
 404:Drivers/STM32G4xx_HAL_Driver/Src/stm32g4xx_hal_rcc.c ****         }
 1502              		.loc 1 404 18 view .LVU466
 1503 0610 0120     		movs	r0, #1
 1504 0612 00E0     		b	.L27
 1505              	.L114:
 714:Drivers/STM32G4xx_HAL_Driver/Src/stm32g4xx_hal_rcc.c **** }
 1506              		.loc 1 714 10 view .LVU467
 1507 0614 0020     		movs	r0, #0
 1508              	.LVL132:
 1509              	.L27:
 715:Drivers/STM32G4xx_HAL_Driver/Src/stm32g4xx_hal_rcc.c **** 
 1510              		.loc 1 715 1 view .LVU468
 1511 0616 02B0     		add	sp, sp, #8
 1512              	.LCFI5:
 1513              		.cfi_remember_state
 1514              		.cfi_def_cfa_offset 16
 1515              		@ sp needed
 1516 0618 70BD     		pop	{r4, r5, r6, pc}
 1517              	.LVL133:
 1518              	.L118:
 1519              	.LCFI6:
 1520              		.cfi_restore_state
 695:Drivers/STM32G4xx_HAL_Driver/Src/stm32g4xx_hal_rcc.c ****       }
 1521              		.loc 1 695 16 view .LVU469
 1522 061a 0120     		movs	r0, #1
 1523 061c FBE7     		b	.L27
 1524              	.LVL134:
 1525              	.L119:
 708:Drivers/STM32G4xx_HAL_Driver/Src/stm32g4xx_hal_rcc.c ****       }
 1526              		.loc 1 708 16 view .LVU470
 1527 061e 0120     		movs	r0, #1
 1528 0620 F9E7     		b	.L27
 1529              	.L120:
 1530 0622 0120     		movs	r0, #1
 1531 0624 F7E7     		b	.L27
 1532              	.L121:
 1533 0626 0120     		movs	r0, #1
 1534 0628 F5E7     		b	.L27
 1535              	.L122:
 1536 062a 0120     		movs	r0, #1
 1537 062c F3E7     		b	.L27
 1538              	.L123:
 1539 062e 0120     		movs	r0, #1
 1540 0630 F1E7     		b	.L27
 1541              	.LVL135:
 1542              	.L124:
 708:Drivers/STM32G4xx_HAL_Driver/Src/stm32g4xx_hal_rcc.c ****       }
 1543              		.loc 1 708 16 view .LVU471
 1544 0632 0120     		movs	r0, #1
 1545 0634 EFE7     		b	.L27
 1546              	.L162:
 1547 0636 00BF     		.align	2
 1548              	.L161:
 1549 0638 00100240 		.word	1073876992
 1550              		.cfi_endproc
 1551              	.LFE133:
ARM GAS  /tmp/ccz2x4IP.s 			page 60


 1553              		.section	.text.HAL_RCC_MCOConfig,"ax",%progbits
 1554              		.align	1
 1555              		.global	HAL_RCC_MCOConfig
 1556              		.syntax unified
 1557              		.thumb
 1558              		.thumb_func
 1559              		.fpu fpv4-sp-d16
 1561              	HAL_RCC_MCOConfig:
 1562              	.LVL136:
 1563              	.LFB135:
 989:Drivers/STM32G4xx_HAL_Driver/Src/stm32g4xx_hal_rcc.c ****   GPIO_InitTypeDef GPIO_InitStruct;
 1564              		.loc 1 989 1 is_stmt 1 view -0
 1565              		.cfi_startproc
 1566              		@ args = 0, pretend = 0, frame = 24
 1567              		@ frame_needed = 0, uses_anonymous_args = 0
 989:Drivers/STM32G4xx_HAL_Driver/Src/stm32g4xx_hal_rcc.c ****   GPIO_InitTypeDef GPIO_InitStruct;
 1568              		.loc 1 989 1 is_stmt 0 view .LVU473
 1569 0000 70B5     		push	{r4, r5, r6, lr}
 1570              	.LCFI7:
 1571              		.cfi_def_cfa_offset 16
 1572              		.cfi_offset 4, -16
 1573              		.cfi_offset 5, -12
 1574              		.cfi_offset 6, -8
 1575              		.cfi_offset 14, -4
 1576 0002 86B0     		sub	sp, sp, #24
 1577              	.LCFI8:
 1578              		.cfi_def_cfa_offset 40
 1579 0004 0D46     		mov	r5, r1
 1580 0006 1446     		mov	r4, r2
 990:Drivers/STM32G4xx_HAL_Driver/Src/stm32g4xx_hal_rcc.c **** 
 1581              		.loc 1 990 3 is_stmt 1 view .LVU474
 993:Drivers/STM32G4xx_HAL_Driver/Src/stm32g4xx_hal_rcc.c ****   assert_param(IS_RCC_MCODIV(RCC_MCODiv));
 1582              		.loc 1 993 3 view .LVU475
 1583 0008 0028     		cmp	r0, #0
 1584 000a 43D1     		bne	.L168
 1585              	.LVL137:
 1586              	.L164:
 994:Drivers/STM32G4xx_HAL_Driver/Src/stm32g4xx_hal_rcc.c ****   assert_param(IS_RCC_MCO1SOURCE(RCC_MCOSource));
 1587              		.loc 1 994 3 view .LVU476
 1588 000c 5CB1     		cbz	r4, .L165
 994:Drivers/STM32G4xx_HAL_Driver/Src/stm32g4xx_hal_rcc.c ****   assert_param(IS_RCC_MCO1SOURCE(RCC_MCOSource));
 1589              		.loc 1 994 3 is_stmt 0 discriminator 1 view .LVU477
 1590 000e B4F1805F 		cmp	r4, #268435456
 1591 0012 08D0     		beq	.L165
 994:Drivers/STM32G4xx_HAL_Driver/Src/stm32g4xx_hal_rcc.c ****   assert_param(IS_RCC_MCO1SOURCE(RCC_MCOSource));
 1592              		.loc 1 994 3 discriminator 2 view .LVU478
 1593 0014 B4F1005F 		cmp	r4, #536870912
 1594 0018 05D0     		beq	.L165
 994:Drivers/STM32G4xx_HAL_Driver/Src/stm32g4xx_hal_rcc.c ****   assert_param(IS_RCC_MCO1SOURCE(RCC_MCOSource));
 1595              		.loc 1 994 3 discriminator 3 view .LVU479
 1596 001a B4F1405F 		cmp	r4, #805306368
 1597 001e 02D0     		beq	.L165
 994:Drivers/STM32G4xx_HAL_Driver/Src/stm32g4xx_hal_rcc.c ****   assert_param(IS_RCC_MCO1SOURCE(RCC_MCOSource));
 1598              		.loc 1 994 3 discriminator 4 view .LVU480
 1599 0020 B4F1804F 		cmp	r4, #1073741824
 1600 0024 3CD1     		bne	.L169
 1601              	.L165:
ARM GAS  /tmp/ccz2x4IP.s 			page 61


 995:Drivers/STM32G4xx_HAL_Driver/Src/stm32g4xx_hal_rcc.c **** 
 1602              		.loc 1 995 3 is_stmt 1 view .LVU481
 1603 0026 A5B1     		cbz	r5, .L166
 995:Drivers/STM32G4xx_HAL_Driver/Src/stm32g4xx_hal_rcc.c **** 
 1604              		.loc 1 995 3 is_stmt 0 discriminator 1 view .LVU482
 1605 0028 B5F1807F 		cmp	r5, #16777216
 1606 002c 11D0     		beq	.L166
 995:Drivers/STM32G4xx_HAL_Driver/Src/stm32g4xx_hal_rcc.c **** 
 1607              		.loc 1 995 3 discriminator 2 view .LVU483
 1608 002e B5F1407F 		cmp	r5, #50331648
 1609 0032 0ED0     		beq	.L166
 995:Drivers/STM32G4xx_HAL_Driver/Src/stm32g4xx_hal_rcc.c **** 
 1610              		.loc 1 995 3 discriminator 3 view .LVU484
 1611 0034 B5F1806F 		cmp	r5, #67108864
 1612 0038 0BD0     		beq	.L166
 995:Drivers/STM32G4xx_HAL_Driver/Src/stm32g4xx_hal_rcc.c **** 
 1613              		.loc 1 995 3 discriminator 4 view .LVU485
 1614 003a B5F1A06F 		cmp	r5, #83886080
 1615 003e 08D0     		beq	.L166
 995:Drivers/STM32G4xx_HAL_Driver/Src/stm32g4xx_hal_rcc.c **** 
 1616              		.loc 1 995 3 discriminator 5 view .LVU486
 1617 0040 B5F1C06F 		cmp	r5, #100663296
 1618 0044 05D0     		beq	.L166
 995:Drivers/STM32G4xx_HAL_Driver/Src/stm32g4xx_hal_rcc.c **** 
 1619              		.loc 1 995 3 discriminator 6 view .LVU487
 1620 0046 B5F1E06F 		cmp	r5, #117440512
 1621 004a 02D0     		beq	.L166
 995:Drivers/STM32G4xx_HAL_Driver/Src/stm32g4xx_hal_rcc.c **** 
 1622              		.loc 1 995 3 discriminator 7 view .LVU488
 1623 004c B5F1006F 		cmp	r5, #134217728
 1624 0050 2CD1     		bne	.L170
 1625              	.L166:
 998:Drivers/STM32G4xx_HAL_Driver/Src/stm32g4xx_hal_rcc.c **** 
 1626              		.loc 1 998 3 is_stmt 1 view .LVU489
1001:Drivers/STM32G4xx_HAL_Driver/Src/stm32g4xx_hal_rcc.c **** 
 1627              		.loc 1 1001 3 view .LVU490
 1628              	.LBB5:
1001:Drivers/STM32G4xx_HAL_Driver/Src/stm32g4xx_hal_rcc.c **** 
 1629              		.loc 1 1001 3 view .LVU491
1001:Drivers/STM32G4xx_HAL_Driver/Src/stm32g4xx_hal_rcc.c **** 
 1630              		.loc 1 1001 3 view .LVU492
 1631 0052 194E     		ldr	r6, .L171
 1632 0054 F36C     		ldr	r3, [r6, #76]
 1633 0056 43F00103 		orr	r3, r3, #1
 1634 005a F364     		str	r3, [r6, #76]
1001:Drivers/STM32G4xx_HAL_Driver/Src/stm32g4xx_hal_rcc.c **** 
 1635              		.loc 1 1001 3 view .LVU493
 1636 005c F36C     		ldr	r3, [r6, #76]
 1637 005e 03F00103 		and	r3, r3, #1
 1638 0062 0093     		str	r3, [sp]
1001:Drivers/STM32G4xx_HAL_Driver/Src/stm32g4xx_hal_rcc.c **** 
 1639              		.loc 1 1001 3 view .LVU494
 1640 0064 009B     		ldr	r3, [sp]
 1641              	.LBE5:
1001:Drivers/STM32G4xx_HAL_Driver/Src/stm32g4xx_hal_rcc.c **** 
 1642              		.loc 1 1001 3 view .LVU495
1004:Drivers/STM32G4xx_HAL_Driver/Src/stm32g4xx_hal_rcc.c ****   GPIO_InitStruct.Mode = GPIO_MODE_AF_PP;
ARM GAS  /tmp/ccz2x4IP.s 			page 62


 1643              		.loc 1 1004 3 view .LVU496
1004:Drivers/STM32G4xx_HAL_Driver/Src/stm32g4xx_hal_rcc.c ****   GPIO_InitStruct.Mode = GPIO_MODE_AF_PP;
 1644              		.loc 1 1004 23 is_stmt 0 view .LVU497
 1645 0066 4FF48073 		mov	r3, #256
 1646 006a 0193     		str	r3, [sp, #4]
1005:Drivers/STM32G4xx_HAL_Driver/Src/stm32g4xx_hal_rcc.c ****   GPIO_InitStruct.Speed = GPIO_SPEED_FREQ_VERY_HIGH;
 1647              		.loc 1 1005 3 is_stmt 1 view .LVU498
1005:Drivers/STM32G4xx_HAL_Driver/Src/stm32g4xx_hal_rcc.c ****   GPIO_InitStruct.Speed = GPIO_SPEED_FREQ_VERY_HIGH;
 1648              		.loc 1 1005 24 is_stmt 0 view .LVU499
 1649 006c 0223     		movs	r3, #2
 1650 006e 0293     		str	r3, [sp, #8]
1006:Drivers/STM32G4xx_HAL_Driver/Src/stm32g4xx_hal_rcc.c ****   GPIO_InitStruct.Pull = GPIO_NOPULL;
 1651              		.loc 1 1006 3 is_stmt 1 view .LVU500
1006:Drivers/STM32G4xx_HAL_Driver/Src/stm32g4xx_hal_rcc.c ****   GPIO_InitStruct.Pull = GPIO_NOPULL;
 1652              		.loc 1 1006 25 is_stmt 0 view .LVU501
 1653 0070 0323     		movs	r3, #3
 1654 0072 0493     		str	r3, [sp, #16]
1007:Drivers/STM32G4xx_HAL_Driver/Src/stm32g4xx_hal_rcc.c ****   GPIO_InitStruct.Alternate = GPIO_AF0_MCO;
 1655              		.loc 1 1007 3 is_stmt 1 view .LVU502
1007:Drivers/STM32G4xx_HAL_Driver/Src/stm32g4xx_hal_rcc.c ****   GPIO_InitStruct.Alternate = GPIO_AF0_MCO;
 1656              		.loc 1 1007 24 is_stmt 0 view .LVU503
 1657 0074 0023     		movs	r3, #0
 1658 0076 0393     		str	r3, [sp, #12]
1008:Drivers/STM32G4xx_HAL_Driver/Src/stm32g4xx_hal_rcc.c ****   HAL_GPIO_Init(MCO1_GPIO_PORT, &GPIO_InitStruct);
 1659              		.loc 1 1008 3 is_stmt 1 view .LVU504
1008:Drivers/STM32G4xx_HAL_Driver/Src/stm32g4xx_hal_rcc.c ****   HAL_GPIO_Init(MCO1_GPIO_PORT, &GPIO_InitStruct);
 1660              		.loc 1 1008 29 is_stmt 0 view .LVU505
 1661 0078 0593     		str	r3, [sp, #20]
1009:Drivers/STM32G4xx_HAL_Driver/Src/stm32g4xx_hal_rcc.c **** 
 1662              		.loc 1 1009 3 is_stmt 1 view .LVU506
 1663 007a 01A9     		add	r1, sp, #4
 1664 007c 4FF09040 		mov	r0, #1207959552
 1665 0080 FFF7FEFF 		bl	HAL_GPIO_Init
 1666              	.LVL138:
1012:Drivers/STM32G4xx_HAL_Driver/Src/stm32g4xx_hal_rcc.c **** }
 1667              		.loc 1 1012 3 view .LVU507
 1668 0084 B268     		ldr	r2, [r6, #8]
 1669 0086 22F0FE42 		bic	r2, r2, #2130706432
 1670 008a 2C43     		orrs	r4, r4, r5
 1671              	.LVL139:
1012:Drivers/STM32G4xx_HAL_Driver/Src/stm32g4xx_hal_rcc.c **** }
 1672              		.loc 1 1012 3 is_stmt 0 view .LVU508
 1673 008c 1443     		orrs	r4, r4, r2
 1674 008e B460     		str	r4, [r6, #8]
1013:Drivers/STM32G4xx_HAL_Driver/Src/stm32g4xx_hal_rcc.c **** 
 1675              		.loc 1 1013 1 view .LVU509
 1676 0090 06B0     		add	sp, sp, #24
 1677              	.LCFI9:
 1678              		.cfi_remember_state
 1679              		.cfi_def_cfa_offset 16
 1680              		@ sp needed
 1681 0092 70BD     		pop	{r4, r5, r6, pc}
 1682              	.LVL140:
 1683              	.L168:
 1684              	.LCFI10:
 1685              		.cfi_restore_state
 993:Drivers/STM32G4xx_HAL_Driver/Src/stm32g4xx_hal_rcc.c ****   assert_param(IS_RCC_MCODIV(RCC_MCODiv));
ARM GAS  /tmp/ccz2x4IP.s 			page 63


 1686              		.loc 1 993 3 discriminator 1 view .LVU510
 1687 0094 40F2E131 		movw	r1, #993
 1688              	.LVL141:
 993:Drivers/STM32G4xx_HAL_Driver/Src/stm32g4xx_hal_rcc.c ****   assert_param(IS_RCC_MCODIV(RCC_MCODiv));
 1689              		.loc 1 993 3 discriminator 1 view .LVU511
 1690 0098 0848     		ldr	r0, .L171+4
 1691              	.LVL142:
 993:Drivers/STM32G4xx_HAL_Driver/Src/stm32g4xx_hal_rcc.c ****   assert_param(IS_RCC_MCODIV(RCC_MCODiv));
 1692              		.loc 1 993 3 discriminator 1 view .LVU512
 1693 009a FFF7FEFF 		bl	assert_failed
 1694              	.LVL143:
 993:Drivers/STM32G4xx_HAL_Driver/Src/stm32g4xx_hal_rcc.c ****   assert_param(IS_RCC_MCODIV(RCC_MCODiv));
 1695              		.loc 1 993 3 discriminator 1 view .LVU513
 1696 009e B5E7     		b	.L164
 1697              	.L169:
 994:Drivers/STM32G4xx_HAL_Driver/Src/stm32g4xx_hal_rcc.c ****   assert_param(IS_RCC_MCO1SOURCE(RCC_MCOSource));
 1698              		.loc 1 994 3 discriminator 5 view .LVU514
 1699 00a0 40F2E231 		movw	r1, #994
 1700 00a4 0548     		ldr	r0, .L171+4
 1701 00a6 FFF7FEFF 		bl	assert_failed
 1702              	.LVL144:
 1703 00aa BCE7     		b	.L165
 1704              	.L170:
 995:Drivers/STM32G4xx_HAL_Driver/Src/stm32g4xx_hal_rcc.c **** 
 1705              		.loc 1 995 3 discriminator 8 view .LVU515
 1706 00ac 40F2E331 		movw	r1, #995
 1707 00b0 0248     		ldr	r0, .L171+4
 1708 00b2 FFF7FEFF 		bl	assert_failed
 1709              	.LVL145:
 1710 00b6 CCE7     		b	.L166
 1711              	.L172:
 1712              		.align	2
 1713              	.L171:
 1714 00b8 00100240 		.word	1073876992
 1715 00bc 00000000 		.word	.LC0
 1716              		.cfi_endproc
 1717              	.LFE135:
 1719              		.section	.text.HAL_RCC_GetSysClockFreq,"ax",%progbits
 1720              		.align	1
 1721              		.global	HAL_RCC_GetSysClockFreq
 1722              		.syntax unified
 1723              		.thumb
 1724              		.thumb_func
 1725              		.fpu fpv4-sp-d16
 1727              	HAL_RCC_GetSysClockFreq:
 1728              	.LFB136:
1046:Drivers/STM32G4xx_HAL_Driver/Src/stm32g4xx_hal_rcc.c ****   uint32_t pllvco, pllsource, pllr, pllm;
 1729              		.loc 1 1046 1 is_stmt 1 view -0
 1730              		.cfi_startproc
 1731              		@ args = 0, pretend = 0, frame = 0
 1732              		@ frame_needed = 0, uses_anonymous_args = 0
 1733              		@ link register save eliminated.
1047:Drivers/STM32G4xx_HAL_Driver/Src/stm32g4xx_hal_rcc.c ****   uint32_t sysclockfreq;
 1734              		.loc 1 1047 3 view .LVU517
1048:Drivers/STM32G4xx_HAL_Driver/Src/stm32g4xx_hal_rcc.c **** 
 1735              		.loc 1 1048 3 view .LVU518
1050:Drivers/STM32G4xx_HAL_Driver/Src/stm32g4xx_hal_rcc.c ****   {
ARM GAS  /tmp/ccz2x4IP.s 			page 64


 1736              		.loc 1 1050 3 view .LVU519
1050:Drivers/STM32G4xx_HAL_Driver/Src/stm32g4xx_hal_rcc.c ****   {
 1737              		.loc 1 1050 7 is_stmt 0 view .LVU520
 1738 0000 1E4B     		ldr	r3, .L182
 1739 0002 9B68     		ldr	r3, [r3, #8]
 1740 0004 03F00C03 		and	r3, r3, #12
1050:Drivers/STM32G4xx_HAL_Driver/Src/stm32g4xx_hal_rcc.c ****   {
 1741              		.loc 1 1050 6 view .LVU521
 1742 0008 042B     		cmp	r3, #4
 1743 000a 32D0     		beq	.L177
1055:Drivers/STM32G4xx_HAL_Driver/Src/stm32g4xx_hal_rcc.c ****   {
 1744              		.loc 1 1055 8 is_stmt 1 view .LVU522
1055:Drivers/STM32G4xx_HAL_Driver/Src/stm32g4xx_hal_rcc.c ****   {
 1745              		.loc 1 1055 12 is_stmt 0 view .LVU523
 1746 000c 1B4B     		ldr	r3, .L182
 1747 000e 9B68     		ldr	r3, [r3, #8]
 1748 0010 03F00C03 		and	r3, r3, #12
1055:Drivers/STM32G4xx_HAL_Driver/Src/stm32g4xx_hal_rcc.c ****   {
 1749              		.loc 1 1055 11 view .LVU524
 1750 0014 082B     		cmp	r3, #8
 1751 0016 2ED0     		beq	.L178
1060:Drivers/STM32G4xx_HAL_Driver/Src/stm32g4xx_hal_rcc.c ****   {
 1752              		.loc 1 1060 8 is_stmt 1 view .LVU525
1060:Drivers/STM32G4xx_HAL_Driver/Src/stm32g4xx_hal_rcc.c ****   {
 1753              		.loc 1 1060 12 is_stmt 0 view .LVU526
 1754 0018 184B     		ldr	r3, .L182
 1755 001a 9B68     		ldr	r3, [r3, #8]
 1756 001c 03F00C03 		and	r3, r3, #12
1060:Drivers/STM32G4xx_HAL_Driver/Src/stm32g4xx_hal_rcc.c ****   {
 1757              		.loc 1 1060 11 view .LVU527
 1758 0020 0C2B     		cmp	r3, #12
 1759 0022 01D0     		beq	.L180
1086:Drivers/STM32G4xx_HAL_Driver/Src/stm32g4xx_hal_rcc.c ****   }
 1760              		.loc 1 1086 18 view .LVU528
 1761 0024 0020     		movs	r0, #0
 1762              	.LVL146:
1089:Drivers/STM32G4xx_HAL_Driver/Src/stm32g4xx_hal_rcc.c **** }
 1763              		.loc 1 1089 3 is_stmt 1 view .LVU529
1090:Drivers/STM32G4xx_HAL_Driver/Src/stm32g4xx_hal_rcc.c **** 
 1764              		.loc 1 1090 1 is_stmt 0 view .LVU530
 1765 0026 7047     		bx	lr
 1766              	.LVL147:
 1767              	.L180:
1067:Drivers/STM32G4xx_HAL_Driver/Src/stm32g4xx_hal_rcc.c ****     pllm = (READ_BIT(RCC->PLLCFGR, RCC_PLLCFGR_PLLM) >> RCC_PLLCFGR_PLLM_Pos) + 1U ;
 1768              		.loc 1 1067 5 is_stmt 1 view .LVU531
1067:Drivers/STM32G4xx_HAL_Driver/Src/stm32g4xx_hal_rcc.c ****     pllm = (READ_BIT(RCC->PLLCFGR, RCC_PLLCFGR_PLLM) >> RCC_PLLCFGR_PLLM_Pos) + 1U ;
 1769              		.loc 1 1067 17 is_stmt 0 view .LVU532
 1770 0028 144A     		ldr	r2, .L182
 1771 002a D368     		ldr	r3, [r2, #12]
1067:Drivers/STM32G4xx_HAL_Driver/Src/stm32g4xx_hal_rcc.c ****     pllm = (READ_BIT(RCC->PLLCFGR, RCC_PLLCFGR_PLLM) >> RCC_PLLCFGR_PLLM_Pos) + 1U ;
 1772              		.loc 1 1067 15 view .LVU533
 1773 002c 03F00303 		and	r3, r3, #3
 1774              	.LVL148:
1068:Drivers/STM32G4xx_HAL_Driver/Src/stm32g4xx_hal_rcc.c **** 
 1775              		.loc 1 1068 5 is_stmt 1 view .LVU534
1068:Drivers/STM32G4xx_HAL_Driver/Src/stm32g4xx_hal_rcc.c **** 
 1776              		.loc 1 1068 13 is_stmt 0 view .LVU535
ARM GAS  /tmp/ccz2x4IP.s 			page 65


 1777 0030 D068     		ldr	r0, [r2, #12]
1068:Drivers/STM32G4xx_HAL_Driver/Src/stm32g4xx_hal_rcc.c **** 
 1778              		.loc 1 1068 54 view .LVU536
 1779 0032 C0F30310 		ubfx	r0, r0, #4, #4
1068:Drivers/STM32G4xx_HAL_Driver/Src/stm32g4xx_hal_rcc.c **** 
 1780              		.loc 1 1068 10 view .LVU537
 1781 0036 0130     		adds	r0, r0, #1
 1782              	.LVL149:
1070:Drivers/STM32G4xx_HAL_Driver/Src/stm32g4xx_hal_rcc.c ****     {
 1783              		.loc 1 1070 5 is_stmt 1 view .LVU538
 1784 0038 032B     		cmp	r3, #3
 1785 003a 11D0     		beq	.L181
1078:Drivers/STM32G4xx_HAL_Driver/Src/stm32g4xx_hal_rcc.c ****       break;
 1786              		.loc 1 1078 7 view .LVU539
1078:Drivers/STM32G4xx_HAL_Driver/Src/stm32g4xx_hal_rcc.c ****       break;
 1787              		.loc 1 1078 27 is_stmt 0 view .LVU540
 1788 003c 104B     		ldr	r3, .L182+4
 1789              	.LVL150:
1078:Drivers/STM32G4xx_HAL_Driver/Src/stm32g4xx_hal_rcc.c ****       break;
 1790              		.loc 1 1078 27 view .LVU541
 1791 003e B3FBF0F3 		udiv	r3, r3, r0
1078:Drivers/STM32G4xx_HAL_Driver/Src/stm32g4xx_hal_rcc.c ****       break;
 1792              		.loc 1 1078 38 view .LVU542
 1793 0042 0E4A     		ldr	r2, .L182
 1794 0044 D068     		ldr	r0, [r2, #12]
 1795              	.LVL151:
1078:Drivers/STM32G4xx_HAL_Driver/Src/stm32g4xx_hal_rcc.c ****       break;
 1796              		.loc 1 1078 79 view .LVU543
 1797 0046 C0F30620 		ubfx	r0, r0, #8, #7
1078:Drivers/STM32G4xx_HAL_Driver/Src/stm32g4xx_hal_rcc.c ****       break;
 1798              		.loc 1 1078 14 view .LVU544
 1799 004a 00FB03F0 		mul	r0, r0, r3
 1800              	.LVL152:
1079:Drivers/STM32G4xx_HAL_Driver/Src/stm32g4xx_hal_rcc.c ****     }
 1801              		.loc 1 1079 7 is_stmt 1 view .LVU545
 1802              	.L176:
1081:Drivers/STM32G4xx_HAL_Driver/Src/stm32g4xx_hal_rcc.c ****     sysclockfreq = pllvco/pllr;
 1803              		.loc 1 1081 5 view .LVU546
1081:Drivers/STM32G4xx_HAL_Driver/Src/stm32g4xx_hal_rcc.c ****     sysclockfreq = pllvco/pllr;
 1804              		.loc 1 1081 14 is_stmt 0 view .LVU547
 1805 004e 0B4B     		ldr	r3, .L182
 1806 0050 DB68     		ldr	r3, [r3, #12]
1081:Drivers/STM32G4xx_HAL_Driver/Src/stm32g4xx_hal_rcc.c ****     sysclockfreq = pllvco/pllr;
 1807              		.loc 1 1081 55 view .LVU548
 1808 0052 C3F34163 		ubfx	r3, r3, #25, #2
1081:Drivers/STM32G4xx_HAL_Driver/Src/stm32g4xx_hal_rcc.c ****     sysclockfreq = pllvco/pllr;
 1809              		.loc 1 1081 80 view .LVU549
 1810 0056 0133     		adds	r3, r3, #1
1081:Drivers/STM32G4xx_HAL_Driver/Src/stm32g4xx_hal_rcc.c ****     sysclockfreq = pllvco/pllr;
 1811              		.loc 1 1081 10 view .LVU550
 1812 0058 5B00     		lsls	r3, r3, #1
 1813              	.LVL153:
1082:Drivers/STM32G4xx_HAL_Driver/Src/stm32g4xx_hal_rcc.c ****   }
 1814              		.loc 1 1082 5 is_stmt 1 view .LVU551
1082:Drivers/STM32G4xx_HAL_Driver/Src/stm32g4xx_hal_rcc.c ****   }
 1815              		.loc 1 1082 18 is_stmt 0 view .LVU552
 1816 005a B0FBF3F0 		udiv	r0, r0, r3
ARM GAS  /tmp/ccz2x4IP.s 			page 66


 1817              	.LVL154:
1082:Drivers/STM32G4xx_HAL_Driver/Src/stm32g4xx_hal_rcc.c ****   }
 1818              		.loc 1 1082 18 view .LVU553
 1819 005e 7047     		bx	lr
 1820              	.LVL155:
 1821              	.L181:
1073:Drivers/STM32G4xx_HAL_Driver/Src/stm32g4xx_hal_rcc.c ****       break;
 1822              		.loc 1 1073 7 is_stmt 1 view .LVU554
1073:Drivers/STM32G4xx_HAL_Driver/Src/stm32g4xx_hal_rcc.c ****       break;
 1823              		.loc 1 1073 27 is_stmt 0 view .LVU555
 1824 0060 084B     		ldr	r3, .L182+8
 1825              	.LVL156:
1073:Drivers/STM32G4xx_HAL_Driver/Src/stm32g4xx_hal_rcc.c ****       break;
 1826              		.loc 1 1073 27 view .LVU556
 1827 0062 B3FBF0F3 		udiv	r3, r3, r0
1073:Drivers/STM32G4xx_HAL_Driver/Src/stm32g4xx_hal_rcc.c ****       break;
 1828              		.loc 1 1073 38 view .LVU557
 1829 0066 D068     		ldr	r0, [r2, #12]
 1830              	.LVL157:
1073:Drivers/STM32G4xx_HAL_Driver/Src/stm32g4xx_hal_rcc.c ****       break;
 1831              		.loc 1 1073 79 view .LVU558
 1832 0068 C0F30620 		ubfx	r0, r0, #8, #7
1073:Drivers/STM32G4xx_HAL_Driver/Src/stm32g4xx_hal_rcc.c ****       break;
 1833              		.loc 1 1073 14 view .LVU559
 1834 006c 00FB03F0 		mul	r0, r0, r3
 1835              	.LVL158:
1074:Drivers/STM32G4xx_HAL_Driver/Src/stm32g4xx_hal_rcc.c **** 
 1836              		.loc 1 1074 7 is_stmt 1 view .LVU560
 1837 0070 EDE7     		b	.L176
 1838              	.LVL159:
 1839              	.L177:
1053:Drivers/STM32G4xx_HAL_Driver/Src/stm32g4xx_hal_rcc.c ****   }
 1840              		.loc 1 1053 18 is_stmt 0 view .LVU561
 1841 0072 0348     		ldr	r0, .L182+4
 1842 0074 7047     		bx	lr
 1843              	.L178:
1058:Drivers/STM32G4xx_HAL_Driver/Src/stm32g4xx_hal_rcc.c ****   }
 1844              		.loc 1 1058 18 view .LVU562
 1845 0076 0348     		ldr	r0, .L182+8
 1846 0078 7047     		bx	lr
 1847              	.L183:
 1848 007a 00BF     		.align	2
 1849              	.L182:
 1850 007c 00100240 		.word	1073876992
 1851 0080 0024F400 		.word	16000000
 1852 0084 00366E01 		.word	24000000
 1853              		.cfi_endproc
 1854              	.LFE136:
 1856              		.section	.text.HAL_RCC_ClockConfig,"ax",%progbits
 1857              		.align	1
 1858              		.global	HAL_RCC_ClockConfig
 1859              		.syntax unified
 1860              		.thumb
 1861              		.thumb_func
 1862              		.fpu fpv4-sp-d16
 1864              	HAL_RCC_ClockConfig:
 1865              	.LVL160:
ARM GAS  /tmp/ccz2x4IP.s 			page 67


 1866              	.LFB134:
 766:Drivers/STM32G4xx_HAL_Driver/Src/stm32g4xx_hal_rcc.c ****   uint32_t tickstart;
 1867              		.loc 1 766 1 is_stmt 1 view -0
 1868              		.cfi_startproc
 1869              		@ args = 0, pretend = 0, frame = 0
 1870              		@ frame_needed = 0, uses_anonymous_args = 0
 767:Drivers/STM32G4xx_HAL_Driver/Src/stm32g4xx_hal_rcc.c ****   uint32_t pllfreq;
 1871              		.loc 1 767 3 view .LVU564
 768:Drivers/STM32G4xx_HAL_Driver/Src/stm32g4xx_hal_rcc.c ****   uint32_t hpre = RCC_SYSCLK_DIV1;
 1872              		.loc 1 768 3 view .LVU565
 769:Drivers/STM32G4xx_HAL_Driver/Src/stm32g4xx_hal_rcc.c **** 
 1873              		.loc 1 769 3 view .LVU566
 772:Drivers/STM32G4xx_HAL_Driver/Src/stm32g4xx_hal_rcc.c ****   {
 1874              		.loc 1 772 3 view .LVU567
 772:Drivers/STM32G4xx_HAL_Driver/Src/stm32g4xx_hal_rcc.c ****   {
 1875              		.loc 1 772 6 is_stmt 0 view .LVU568
 1876 0000 0028     		cmp	r0, #0
 1877 0002 00F04481 		beq	.L211
 766:Drivers/STM32G4xx_HAL_Driver/Src/stm32g4xx_hal_rcc.c ****   uint32_t tickstart;
 1878              		.loc 1 766 1 view .LVU569
 1879 0006 F8B5     		push	{r3, r4, r5, r6, r7, lr}
 1880              	.LCFI11:
 1881              		.cfi_def_cfa_offset 24
 1882              		.cfi_offset 3, -24
 1883              		.cfi_offset 4, -20
 1884              		.cfi_offset 5, -16
 1885              		.cfi_offset 6, -12
 1886              		.cfi_offset 7, -8
 1887              		.cfi_offset 14, -4
 1888 0008 0D46     		mov	r5, r1
 1889 000a 0446     		mov	r4, r0
 778:Drivers/STM32G4xx_HAL_Driver/Src/stm32g4xx_hal_rcc.c ****   assert_param(IS_FLASH_LATENCY(FLatency));
 1890              		.loc 1 778 3 is_stmt 1 view .LVU570
 1891 000c 0368     		ldr	r3, [r0]
 1892 000e 13F00F0F 		tst	r3, #15
 1893 0012 02D0     		beq	.L186
 778:Drivers/STM32G4xx_HAL_Driver/Src/stm32g4xx_hal_rcc.c ****   assert_param(IS_FLASH_LATENCY(FLatency));
 1894              		.loc 1 778 3 is_stmt 0 discriminator 2 view .LVU571
 1895 0014 33F00F03 		bics	r3, r3, #15
 1896 0018 04D0     		beq	.L187
 1897              	.L186:
 778:Drivers/STM32G4xx_HAL_Driver/Src/stm32g4xx_hal_rcc.c ****   assert_param(IS_FLASH_LATENCY(FLatency));
 1898              		.loc 1 778 3 discriminator 3 view .LVU572
 1899 001a 40F20A31 		movw	r1, #778
 1900              	.LVL161:
 778:Drivers/STM32G4xx_HAL_Driver/Src/stm32g4xx_hal_rcc.c ****   assert_param(IS_FLASH_LATENCY(FLatency));
 1901              		.loc 1 778 3 discriminator 3 view .LVU573
 1902 001e 9F48     		ldr	r0, .L234
 1903              	.LVL162:
 778:Drivers/STM32G4xx_HAL_Driver/Src/stm32g4xx_hal_rcc.c ****   assert_param(IS_FLASH_LATENCY(FLatency));
 1904              		.loc 1 778 3 discriminator 3 view .LVU574
 1905 0020 FFF7FEFF 		bl	assert_failed
 1906              	.LVL163:
 1907              	.L187:
 779:Drivers/STM32G4xx_HAL_Driver/Src/stm32g4xx_hal_rcc.c **** 
 1908              		.loc 1 779 3 is_stmt 1 view .LVU575
 1909 0024 0F2D     		cmp	r5, #15
ARM GAS  /tmp/ccz2x4IP.s 			page 68


 1910 0026 32D8     		bhi	.L225
 1911              	.L188:
 786:Drivers/STM32G4xx_HAL_Driver/Src/stm32g4xx_hal_rcc.c ****   {
 1912              		.loc 1 786 3 view .LVU576
 786:Drivers/STM32G4xx_HAL_Driver/Src/stm32g4xx_hal_rcc.c ****   {
 1913              		.loc 1 786 18 is_stmt 0 view .LVU577
 1914 0028 9D4B     		ldr	r3, .L234+4
 1915 002a 1B68     		ldr	r3, [r3]
 1916 002c 03F00F03 		and	r3, r3, #15
 786:Drivers/STM32G4xx_HAL_Driver/Src/stm32g4xx_hal_rcc.c ****   {
 1917              		.loc 1 786 6 view .LVU578
 1918 0030 AB42     		cmp	r3, r5
 1919 0032 0BD2     		bcs	.L189
 789:Drivers/STM32G4xx_HAL_Driver/Src/stm32g4xx_hal_rcc.c **** 
 1920              		.loc 1 789 5 is_stmt 1 view .LVU579
 1921 0034 9A4A     		ldr	r2, .L234+4
 1922 0036 1368     		ldr	r3, [r2]
 1923 0038 23F00F03 		bic	r3, r3, #15
 1924 003c 2B43     		orrs	r3, r3, r5
 1925 003e 1360     		str	r3, [r2]
 793:Drivers/STM32G4xx_HAL_Driver/Src/stm32g4xx_hal_rcc.c ****     {
 1926              		.loc 1 793 5 view .LVU580
 793:Drivers/STM32G4xx_HAL_Driver/Src/stm32g4xx_hal_rcc.c ****     {
 1927              		.loc 1 793 9 is_stmt 0 view .LVU581
 1928 0040 1368     		ldr	r3, [r2]
 1929 0042 03F00F03 		and	r3, r3, #15
 793:Drivers/STM32G4xx_HAL_Driver/Src/stm32g4xx_hal_rcc.c ****     {
 1930              		.loc 1 793 8 view .LVU582
 1931 0046 AB42     		cmp	r3, r5
 1932 0048 40F02381 		bne	.L212
 1933              	.L189:
 800:Drivers/STM32G4xx_HAL_Driver/Src/stm32g4xx_hal_rcc.c ****   {
 1934              		.loc 1 800 3 is_stmt 1 view .LVU583
 800:Drivers/STM32G4xx_HAL_Driver/Src/stm32g4xx_hal_rcc.c ****   {
 1935              		.loc 1 800 25 is_stmt 0 view .LVU584
 1936 004c 2668     		ldr	r6, [r4]
 800:Drivers/STM32G4xx_HAL_Driver/Src/stm32g4xx_hal_rcc.c ****   {
 1937              		.loc 1 800 5 view .LVU585
 1938 004e 16F00106 		ands	r6, r6, #1
 1939 0052 6FD0     		beq	.L190
 802:Drivers/STM32G4xx_HAL_Driver/Src/stm32g4xx_hal_rcc.c **** 
 1940              		.loc 1 802 5 is_stmt 1 view .LVU586
 1941 0054 6368     		ldr	r3, [r4, #4]
 1942 0056 013B     		subs	r3, r3, #1
 1943 0058 022B     		cmp	r3, #2
 1944 005a 1ED8     		bhi	.L226
 1945              	.L191:
 805:Drivers/STM32G4xx_HAL_Driver/Src/stm32g4xx_hal_rcc.c ****     {
 1946              		.loc 1 805 5 view .LVU587
 805:Drivers/STM32G4xx_HAL_Driver/Src/stm32g4xx_hal_rcc.c ****     {
 1947              		.loc 1 805 26 is_stmt 0 view .LVU588
 1948 005c 6368     		ldr	r3, [r4, #4]
 805:Drivers/STM32G4xx_HAL_Driver/Src/stm32g4xx_hal_rcc.c ****     {
 1949              		.loc 1 805 8 view .LVU589
 1950 005e 032B     		cmp	r3, #3
 1951 0060 21D0     		beq	.L227
 831:Drivers/STM32G4xx_HAL_Driver/Src/stm32g4xx_hal_rcc.c ****       {
ARM GAS  /tmp/ccz2x4IP.s 			page 69


 1952              		.loc 1 831 7 is_stmt 1 view .LVU590
 831:Drivers/STM32G4xx_HAL_Driver/Src/stm32g4xx_hal_rcc.c ****       {
 1953              		.loc 1 831 10 is_stmt 0 view .LVU591
 1954 0062 022B     		cmp	r3, #2
 1955 0064 3FD0     		beq	.L228
 843:Drivers/STM32G4xx_HAL_Driver/Src/stm32g4xx_hal_rcc.c ****         {
 1956              		.loc 1 843 9 is_stmt 1 view .LVU592
 843:Drivers/STM32G4xx_HAL_Driver/Src/stm32g4xx_hal_rcc.c ****         {
 1957              		.loc 1 843 12 is_stmt 0 view .LVU593
 1958 0066 8F4B     		ldr	r3, .L234+8
 1959 0068 1B68     		ldr	r3, [r3]
 843:Drivers/STM32G4xx_HAL_Driver/Src/stm32g4xx_hal_rcc.c ****         {
 1960              		.loc 1 843 11 view .LVU594
 1961 006a 13F4806F 		tst	r3, #1024
 1962 006e 00F01281 		beq	.L217
 1963              	.L196:
 849:Drivers/STM32G4xx_HAL_Driver/Src/stm32g4xx_hal_rcc.c **** 
 1964              		.loc 1 849 7 is_stmt 1 view .LVU595
 849:Drivers/STM32G4xx_HAL_Driver/Src/stm32g4xx_hal_rcc.c **** 
 1965              		.loc 1 849 17 is_stmt 0 view .LVU596
 1966 0072 FFF7FEFF 		bl	HAL_RCC_GetSysClockFreq
 1967              	.LVL164:
 852:Drivers/STM32G4xx_HAL_Driver/Src/stm32g4xx_hal_rcc.c ****       {
 1968              		.loc 1 852 7 is_stmt 1 view .LVU597
 852:Drivers/STM32G4xx_HAL_Driver/Src/stm32g4xx_hal_rcc.c ****       {
 1969              		.loc 1 852 9 is_stmt 0 view .LVU598
 1970 0076 8C4B     		ldr	r3, .L234+12
 1971 0078 9842     		cmp	r0, r3
 1972 007a 3FD9     		bls	.L218
 854:Drivers/STM32G4xx_HAL_Driver/Src/stm32g4xx_hal_rcc.c ****         hpre = RCC_SYSCLK_DIV2;
 1973              		.loc 1 854 9 is_stmt 1 view .LVU599
 1974 007c 894A     		ldr	r2, .L234+8
 1975 007e 9368     		ldr	r3, [r2, #8]
 1976 0080 23F0F003 		bic	r3, r3, #240
 1977 0084 43F08003 		orr	r3, r3, #128
 1978 0088 9360     		str	r3, [r2, #8]
 855:Drivers/STM32G4xx_HAL_Driver/Src/stm32g4xx_hal_rcc.c ****       }
 1979              		.loc 1 855 9 view .LVU600
 1980              	.LVL165:
 855:Drivers/STM32G4xx_HAL_Driver/Src/stm32g4xx_hal_rcc.c ****       }
 1981              		.loc 1 855 14 is_stmt 0 view .LVU601
 1982 008a 8026     		movs	r6, #128
 1983 008c 37E0     		b	.L193
 1984              	.LVL166:
 1985              	.L225:
 779:Drivers/STM32G4xx_HAL_Driver/Src/stm32g4xx_hal_rcc.c **** 
 1986              		.loc 1 779 3 discriminator 1 view .LVU602
 1987 008e 40F20B31 		movw	r1, #779
 1988 0092 8248     		ldr	r0, .L234
 1989 0094 FFF7FEFF 		bl	assert_failed
 1990              	.LVL167:
 1991 0098 C6E7     		b	.L188
 1992              	.L226:
 802:Drivers/STM32G4xx_HAL_Driver/Src/stm32g4xx_hal_rcc.c **** 
 1993              		.loc 1 802 5 discriminator 1 view .LVU603
 1994 009a 40F22231 		movw	r1, #802
 1995 009e 7F48     		ldr	r0, .L234
ARM GAS  /tmp/ccz2x4IP.s 			page 70


 1996 00a0 FFF7FEFF 		bl	assert_failed
 1997              	.LVL168:
 1998 00a4 DAE7     		b	.L191
 1999              	.L227:
 808:Drivers/STM32G4xx_HAL_Driver/Src/stm32g4xx_hal_rcc.c ****       {
 2000              		.loc 1 808 7 is_stmt 1 view .LVU604
 808:Drivers/STM32G4xx_HAL_Driver/Src/stm32g4xx_hal_rcc.c ****       {
 2001              		.loc 1 808 11 is_stmt 0 view .LVU605
 2002 00a6 7F4B     		ldr	r3, .L234+8
 2003 00a8 1B68     		ldr	r3, [r3]
 808:Drivers/STM32G4xx_HAL_Driver/Src/stm32g4xx_hal_rcc.c ****       {
 2004              		.loc 1 808 10 view .LVU606
 2005 00aa 13F0007F 		tst	r3, #33554432
 2006 00ae 01D1     		bne	.L229
 810:Drivers/STM32G4xx_HAL_Driver/Src/stm32g4xx_hal_rcc.c ****       }
 2007              		.loc 1 810 16 view .LVU607
 2008 00b0 0120     		movs	r0, #1
 2009 00b2 B9E0     		b	.L185
 2010              	.L229:
 814:Drivers/STM32G4xx_HAL_Driver/Src/stm32g4xx_hal_rcc.c **** 
 2011              		.loc 1 814 7 is_stmt 1 view .LVU608
 814:Drivers/STM32G4xx_HAL_Driver/Src/stm32g4xx_hal_rcc.c **** 
 2012              		.loc 1 814 17 is_stmt 0 view .LVU609
 2013 00b4 FFF7FEFF 		bl	RCC_GetSysClockFreqFromPLLSource
 2014              	.LVL169:
 817:Drivers/STM32G4xx_HAL_Driver/Src/stm32g4xx_hal_rcc.c ****       {
 2015              		.loc 1 817 7 is_stmt 1 view .LVU610
 817:Drivers/STM32G4xx_HAL_Driver/Src/stm32g4xx_hal_rcc.c ****       {
 2016              		.loc 1 817 9 is_stmt 0 view .LVU611
 2017 00b8 7B4B     		ldr	r3, .L234+12
 2018 00ba 9842     		cmp	r0, r3
 2019 00bc 1AD9     		bls	.L214
 819:Drivers/STM32G4xx_HAL_Driver/Src/stm32g4xx_hal_rcc.c ****             (((((RCC_ClkInitStruct->ClockType) & RCC_CLOCKTYPE_HCLK) == RCC_CLOCKTYPE_HCLK) &&
 2020              		.loc 1 819 9 is_stmt 1 view .LVU612
 819:Drivers/STM32G4xx_HAL_Driver/Src/stm32g4xx_hal_rcc.c ****             (((((RCC_ClkInitStruct->ClockType) & RCC_CLOCKTYPE_HCLK) == RCC_CLOCKTYPE_HCLK) &&
 2021              		.loc 1 819 15 is_stmt 0 view .LVU613
 2022 00be 794B     		ldr	r3, .L234+8
 2023 00c0 9B68     		ldr	r3, [r3, #8]
 819:Drivers/STM32G4xx_HAL_Driver/Src/stm32g4xx_hal_rcc.c ****             (((((RCC_ClkInitStruct->ClockType) & RCC_CLOCKTYPE_HCLK) == RCC_CLOCKTYPE_HCLK) &&
 2024              		.loc 1 819 12 view .LVU614
 2025 00c2 13F0F00F 		tst	r3, #240
 2026 00c6 05D0     		beq	.L194
 820:Drivers/STM32G4xx_HAL_Driver/Src/stm32g4xx_hal_rcc.c ****               (RCC_ClkInitStruct->AHBCLKDivider == RCC_SYSCLK_DIV1))))
 2027              		.loc 1 820 35 discriminator 1 view .LVU615
 2028 00c8 2668     		ldr	r6, [r4]
 819:Drivers/STM32G4xx_HAL_Driver/Src/stm32g4xx_hal_rcc.c ****             (((((RCC_ClkInitStruct->ClockType) & RCC_CLOCKTYPE_HCLK) == RCC_CLOCKTYPE_HCLK) &&
 2029              		.loc 1 819 71 discriminator 1 view .LVU616
 2030 00ca 16F00206 		ands	r6, r6, #2
 2031 00ce 16D0     		beq	.L193
 821:Drivers/STM32G4xx_HAL_Driver/Src/stm32g4xx_hal_rcc.c ****         {
 2032              		.loc 1 821 33 view .LVU617
 2033 00d0 A368     		ldr	r3, [r4, #8]
 820:Drivers/STM32G4xx_HAL_Driver/Src/stm32g4xx_hal_rcc.c ****               (RCC_ClkInitStruct->AHBCLKDivider == RCC_SYSCLK_DIV1))))
 2034              		.loc 1 820 93 view .LVU618
 2035 00d2 8BB9     		cbnz	r3, .L215
 2036              	.L194:
 823:Drivers/STM32G4xx_HAL_Driver/Src/stm32g4xx_hal_rcc.c ****           hpre = RCC_SYSCLK_DIV2;
ARM GAS  /tmp/ccz2x4IP.s 			page 71


 2037              		.loc 1 823 11 is_stmt 1 view .LVU619
 2038 00d4 734A     		ldr	r2, .L234+8
 2039 00d6 9368     		ldr	r3, [r2, #8]
 2040 00d8 23F0F003 		bic	r3, r3, #240
 2041 00dc 43F08003 		orr	r3, r3, #128
 2042 00e0 9360     		str	r3, [r2, #8]
 824:Drivers/STM32G4xx_HAL_Driver/Src/stm32g4xx_hal_rcc.c ****         }
 2043              		.loc 1 824 11 view .LVU620
 2044              	.LVL170:
 824:Drivers/STM32G4xx_HAL_Driver/Src/stm32g4xx_hal_rcc.c ****         }
 2045              		.loc 1 824 16 is_stmt 0 view .LVU621
 2046 00e2 8026     		movs	r6, #128
 2047 00e4 0BE0     		b	.L193
 2048              	.LVL171:
 2049              	.L228:
 834:Drivers/STM32G4xx_HAL_Driver/Src/stm32g4xx_hal_rcc.c ****         {
 2050              		.loc 1 834 9 is_stmt 1 view .LVU622
 834:Drivers/STM32G4xx_HAL_Driver/Src/stm32g4xx_hal_rcc.c ****         {
 2051              		.loc 1 834 12 is_stmt 0 view .LVU623
 2052 00e6 6F4B     		ldr	r3, .L234+8
 2053 00e8 1B68     		ldr	r3, [r3]
 834:Drivers/STM32G4xx_HAL_Driver/Src/stm32g4xx_hal_rcc.c ****         {
 2054              		.loc 1 834 11 view .LVU624
 2055 00ea 13F4003F 		tst	r3, #131072
 2056 00ee C0D1     		bne	.L196
 836:Drivers/STM32G4xx_HAL_Driver/Src/stm32g4xx_hal_rcc.c ****         }
 2057              		.loc 1 836 18 view .LVU625
 2058 00f0 0120     		movs	r0, #1
 2059 00f2 99E0     		b	.L185
 2060              	.LVL172:
 2061              	.L214:
 769:Drivers/STM32G4xx_HAL_Driver/Src/stm32g4xx_hal_rcc.c **** 
 2062              		.loc 1 769 12 view .LVU626
 2063 00f4 0026     		movs	r6, #0
 2064 00f6 02E0     		b	.L193
 2065              	.L215:
 769:Drivers/STM32G4xx_HAL_Driver/Src/stm32g4xx_hal_rcc.c **** 
 2066              		.loc 1 769 12 view .LVU627
 2067 00f8 0026     		movs	r6, #0
 2068 00fa 00E0     		b	.L193
 2069              	.L218:
 769:Drivers/STM32G4xx_HAL_Driver/Src/stm32g4xx_hal_rcc.c **** 
 2070              		.loc 1 769 12 view .LVU628
 2071 00fc 0026     		movs	r6, #0
 2072              	.LVL173:
 2073              	.L193:
 860:Drivers/STM32G4xx_HAL_Driver/Src/stm32g4xx_hal_rcc.c **** 
 2074              		.loc 1 860 5 is_stmt 1 view .LVU629
 2075 00fe 694A     		ldr	r2, .L234+8
 2076 0100 9368     		ldr	r3, [r2, #8]
 2077 0102 23F00303 		bic	r3, r3, #3
 2078 0106 6168     		ldr	r1, [r4, #4]
 2079 0108 0B43     		orrs	r3, r3, r1
 2080 010a 9360     		str	r3, [r2, #8]
 863:Drivers/STM32G4xx_HAL_Driver/Src/stm32g4xx_hal_rcc.c **** 
 2081              		.loc 1 863 5 view .LVU630
 863:Drivers/STM32G4xx_HAL_Driver/Src/stm32g4xx_hal_rcc.c **** 
ARM GAS  /tmp/ccz2x4IP.s 			page 72


 2082              		.loc 1 863 17 is_stmt 0 view .LVU631
 2083 010c FFF7FEFF 		bl	HAL_GetTick
 2084              	.LVL174:
 863:Drivers/STM32G4xx_HAL_Driver/Src/stm32g4xx_hal_rcc.c **** 
 2085              		.loc 1 863 17 view .LVU632
 2086 0110 0746     		mov	r7, r0
 2087              	.LVL175:
 865:Drivers/STM32G4xx_HAL_Driver/Src/stm32g4xx_hal_rcc.c ****     {
 2088              		.loc 1 865 5 is_stmt 1 view .LVU633
 2089              	.L197:
 865:Drivers/STM32G4xx_HAL_Driver/Src/stm32g4xx_hal_rcc.c ****     {
 2090              		.loc 1 865 11 view .LVU634
 865:Drivers/STM32G4xx_HAL_Driver/Src/stm32g4xx_hal_rcc.c ****     {
 2091              		.loc 1 865 12 is_stmt 0 view .LVU635
 2092 0112 644B     		ldr	r3, .L234+8
 2093 0114 9B68     		ldr	r3, [r3, #8]
 2094 0116 03F00C03 		and	r3, r3, #12
 865:Drivers/STM32G4xx_HAL_Driver/Src/stm32g4xx_hal_rcc.c ****     {
 2095              		.loc 1 865 63 view .LVU636
 2096 011a 6268     		ldr	r2, [r4, #4]
 865:Drivers/STM32G4xx_HAL_Driver/Src/stm32g4xx_hal_rcc.c ****     {
 2097              		.loc 1 865 11 view .LVU637
 2098 011c B3EB820F 		cmp	r3, r2, lsl #2
 2099 0120 08D0     		beq	.L190
 867:Drivers/STM32G4xx_HAL_Driver/Src/stm32g4xx_hal_rcc.c ****       {
 2100              		.loc 1 867 7 is_stmt 1 view .LVU638
 867:Drivers/STM32G4xx_HAL_Driver/Src/stm32g4xx_hal_rcc.c ****       {
 2101              		.loc 1 867 12 is_stmt 0 view .LVU639
 2102 0122 FFF7FEFF 		bl	HAL_GetTick
 2103              	.LVL176:
 867:Drivers/STM32G4xx_HAL_Driver/Src/stm32g4xx_hal_rcc.c ****       {
 2104              		.loc 1 867 26 view .LVU640
 2105 0126 C01B     		subs	r0, r0, r7
 867:Drivers/STM32G4xx_HAL_Driver/Src/stm32g4xx_hal_rcc.c ****       {
 2106              		.loc 1 867 10 view .LVU641
 2107 0128 41F28833 		movw	r3, #5000
 2108 012c 9842     		cmp	r0, r3
 2109 012e F0D9     		bls	.L197
 869:Drivers/STM32G4xx_HAL_Driver/Src/stm32g4xx_hal_rcc.c ****       }
 2110              		.loc 1 869 16 view .LVU642
 2111 0130 0320     		movs	r0, #3
 2112 0132 79E0     		b	.L185
 2113              	.LVL177:
 2114              	.L190:
 875:Drivers/STM32G4xx_HAL_Driver/Src/stm32g4xx_hal_rcc.c ****   {
 2115              		.loc 1 875 3 is_stmt 1 view .LVU643
 875:Drivers/STM32G4xx_HAL_Driver/Src/stm32g4xx_hal_rcc.c ****   {
 2116              		.loc 1 875 26 is_stmt 0 view .LVU644
 2117 0134 2368     		ldr	r3, [r4]
 875:Drivers/STM32G4xx_HAL_Driver/Src/stm32g4xx_hal_rcc.c ****   {
 2118              		.loc 1 875 6 view .LVU645
 2119 0136 13F0020F 		tst	r3, #2
 2120 013a 7CD0     		beq	.L199
 879:Drivers/STM32G4xx_HAL_Driver/Src/stm32g4xx_hal_rcc.c ****     {
 2121              		.loc 1 879 5 is_stmt 1 view .LVU646
 879:Drivers/STM32G4xx_HAL_Driver/Src/stm32g4xx_hal_rcc.c ****     {
 2122              		.loc 1 879 8 is_stmt 0 view .LVU647
ARM GAS  /tmp/ccz2x4IP.s 			page 73


 2123 013c 13F0040F 		tst	r3, #4
 2124 0140 04D0     		beq	.L200
 881:Drivers/STM32G4xx_HAL_Driver/Src/stm32g4xx_hal_rcc.c ****     }
 2125              		.loc 1 881 7 is_stmt 1 view .LVU648
 2126 0142 584A     		ldr	r2, .L234+8
 2127 0144 9368     		ldr	r3, [r2, #8]
 2128 0146 43F4E063 		orr	r3, r3, #1792
 2129 014a 9360     		str	r3, [r2, #8]
 2130              	.L200:
 883:Drivers/STM32G4xx_HAL_Driver/Src/stm32g4xx_hal_rcc.c ****     {
 2131              		.loc 1 883 5 view .LVU649
 883:Drivers/STM32G4xx_HAL_Driver/Src/stm32g4xx_hal_rcc.c ****     {
 2132              		.loc 1 883 28 is_stmt 0 view .LVU650
 2133 014c 2368     		ldr	r3, [r4]
 883:Drivers/STM32G4xx_HAL_Driver/Src/stm32g4xx_hal_rcc.c ****     {
 2134              		.loc 1 883 8 view .LVU651
 2135 014e 13F0080F 		tst	r3, #8
 2136 0152 06D0     		beq	.L201
 885:Drivers/STM32G4xx_HAL_Driver/Src/stm32g4xx_hal_rcc.c ****     }
 2137              		.loc 1 885 7 is_stmt 1 view .LVU652
 2138 0154 534A     		ldr	r2, .L234+8
 2139 0156 9368     		ldr	r3, [r2, #8]
 2140 0158 23F47C53 		bic	r3, r3, #16128
 2141 015c 43F4E063 		orr	r3, r3, #1792
 2142 0160 9360     		str	r3, [r2, #8]
 2143              	.L201:
 889:Drivers/STM32G4xx_HAL_Driver/Src/stm32g4xx_hal_rcc.c ****     MODIFY_REG(RCC->CFGR, RCC_CFGR_HPRE, RCC_ClkInitStruct->AHBCLKDivider);
 2144              		.loc 1 889 5 view .LVU653
 2145 0162 A368     		ldr	r3, [r4, #8]
 2146 0164 7BB1     		cbz	r3, .L202
 889:Drivers/STM32G4xx_HAL_Driver/Src/stm32g4xx_hal_rcc.c ****     MODIFY_REG(RCC->CFGR, RCC_CFGR_HPRE, RCC_ClkInitStruct->AHBCLKDivider);
 2147              		.loc 1 889 5 is_stmt 0 discriminator 1 view .LVU654
 2148 0166 802B     		cmp	r3, #128
 2149 0168 0DD0     		beq	.L202
 889:Drivers/STM32G4xx_HAL_Driver/Src/stm32g4xx_hal_rcc.c ****     MODIFY_REG(RCC->CFGR, RCC_CFGR_HPRE, RCC_ClkInitStruct->AHBCLKDivider);
 2150              		.loc 1 889 5 discriminator 2 view .LVU655
 2151 016a 902B     		cmp	r3, #144
 2152 016c 0BD0     		beq	.L202
 889:Drivers/STM32G4xx_HAL_Driver/Src/stm32g4xx_hal_rcc.c ****     MODIFY_REG(RCC->CFGR, RCC_CFGR_HPRE, RCC_ClkInitStruct->AHBCLKDivider);
 2153              		.loc 1 889 5 discriminator 3 view .LVU656
 2154 016e A02B     		cmp	r3, #160
 2155 0170 09D0     		beq	.L202
 889:Drivers/STM32G4xx_HAL_Driver/Src/stm32g4xx_hal_rcc.c ****     MODIFY_REG(RCC->CFGR, RCC_CFGR_HPRE, RCC_ClkInitStruct->AHBCLKDivider);
 2156              		.loc 1 889 5 discriminator 4 view .LVU657
 2157 0172 B02B     		cmp	r3, #176
 2158 0174 07D0     		beq	.L202
 889:Drivers/STM32G4xx_HAL_Driver/Src/stm32g4xx_hal_rcc.c ****     MODIFY_REG(RCC->CFGR, RCC_CFGR_HPRE, RCC_ClkInitStruct->AHBCLKDivider);
 2159              		.loc 1 889 5 discriminator 5 view .LVU658
 2160 0176 C02B     		cmp	r3, #192
 2161 0178 05D0     		beq	.L202
 889:Drivers/STM32G4xx_HAL_Driver/Src/stm32g4xx_hal_rcc.c ****     MODIFY_REG(RCC->CFGR, RCC_CFGR_HPRE, RCC_ClkInitStruct->AHBCLKDivider);
 2162              		.loc 1 889 5 discriminator 6 view .LVU659
 2163 017a D02B     		cmp	r3, #208
 2164 017c 03D0     		beq	.L202
 889:Drivers/STM32G4xx_HAL_Driver/Src/stm32g4xx_hal_rcc.c ****     MODIFY_REG(RCC->CFGR, RCC_CFGR_HPRE, RCC_ClkInitStruct->AHBCLKDivider);
 2165              		.loc 1 889 5 discriminator 7 view .LVU660
 2166 017e E02B     		cmp	r3, #224
ARM GAS  /tmp/ccz2x4IP.s 			page 74


 2167 0180 01D0     		beq	.L202
 889:Drivers/STM32G4xx_HAL_Driver/Src/stm32g4xx_hal_rcc.c ****     MODIFY_REG(RCC->CFGR, RCC_CFGR_HPRE, RCC_ClkInitStruct->AHBCLKDivider);
 2168              		.loc 1 889 5 discriminator 8 view .LVU661
 2169 0182 F02B     		cmp	r3, #240
 2170 0184 51D1     		bne	.L230
 2171              	.L202:
 890:Drivers/STM32G4xx_HAL_Driver/Src/stm32g4xx_hal_rcc.c ****   }
 2172              		.loc 1 890 5 is_stmt 1 view .LVU662
 2173 0186 474A     		ldr	r2, .L234+8
 2174 0188 9368     		ldr	r3, [r2, #8]
 2175 018a 23F0F003 		bic	r3, r3, #240
 2176 018e A168     		ldr	r1, [r4, #8]
 2177 0190 0B43     		orrs	r3, r3, r1
 2178 0192 9360     		str	r3, [r2, #8]
 2179              	.L203:
 902:Drivers/STM32G4xx_HAL_Driver/Src/stm32g4xx_hal_rcc.c ****   {
 2180              		.loc 1 902 3 view .LVU663
 902:Drivers/STM32G4xx_HAL_Driver/Src/stm32g4xx_hal_rcc.c ****   {
 2181              		.loc 1 902 18 is_stmt 0 view .LVU664
 2182 0194 424B     		ldr	r3, .L234+4
 2183 0196 1B68     		ldr	r3, [r3]
 2184 0198 03F00F03 		and	r3, r3, #15
 902:Drivers/STM32G4xx_HAL_Driver/Src/stm32g4xx_hal_rcc.c ****   {
 2185              		.loc 1 902 6 view .LVU665
 2186 019c AB42     		cmp	r3, r5
 2187 019e 52D8     		bhi	.L231
 2188              	.LVL178:
 2189              	.L204:
 921:Drivers/STM32G4xx_HAL_Driver/Src/stm32g4xx_hal_rcc.c ****   {
 2190              		.loc 1 921 3 is_stmt 1 view .LVU666
 921:Drivers/STM32G4xx_HAL_Driver/Src/stm32g4xx_hal_rcc.c ****   {
 2191              		.loc 1 921 26 is_stmt 0 view .LVU667
 2192 01a0 2368     		ldr	r3, [r4]
 921:Drivers/STM32G4xx_HAL_Driver/Src/stm32g4xx_hal_rcc.c ****   {
 2193              		.loc 1 921 6 view .LVU668
 2194 01a2 13F0040F 		tst	r3, #4
 2195 01a6 14D0     		beq	.L207
 923:Drivers/STM32G4xx_HAL_Driver/Src/stm32g4xx_hal_rcc.c ****     MODIFY_REG(RCC->CFGR, RCC_CFGR_PPRE1, RCC_ClkInitStruct->APB1CLKDivider);
 2196              		.loc 1 923 5 is_stmt 1 view .LVU669
 2197 01a8 E368     		ldr	r3, [r4, #12]
 2198 01aa 5BB1     		cbz	r3, .L208
 923:Drivers/STM32G4xx_HAL_Driver/Src/stm32g4xx_hal_rcc.c ****     MODIFY_REG(RCC->CFGR, RCC_CFGR_PPRE1, RCC_ClkInitStruct->APB1CLKDivider);
 2199              		.loc 1 923 5 is_stmt 0 discriminator 1 view .LVU670
 2200 01ac B3F5806F 		cmp	r3, #1024
 2201 01b0 08D0     		beq	.L208
 923:Drivers/STM32G4xx_HAL_Driver/Src/stm32g4xx_hal_rcc.c ****     MODIFY_REG(RCC->CFGR, RCC_CFGR_PPRE1, RCC_ClkInitStruct->APB1CLKDivider);
 2202              		.loc 1 923 5 discriminator 2 view .LVU671
 2203 01b2 B3F5A06F 		cmp	r3, #1280
 2204 01b6 05D0     		beq	.L208
 923:Drivers/STM32G4xx_HAL_Driver/Src/stm32g4xx_hal_rcc.c ****     MODIFY_REG(RCC->CFGR, RCC_CFGR_PPRE1, RCC_ClkInitStruct->APB1CLKDivider);
 2205              		.loc 1 923 5 discriminator 3 view .LVU672
 2206 01b8 B3F5C06F 		cmp	r3, #1536
 2207 01bc 02D0     		beq	.L208
 923:Drivers/STM32G4xx_HAL_Driver/Src/stm32g4xx_hal_rcc.c ****     MODIFY_REG(RCC->CFGR, RCC_CFGR_PPRE1, RCC_ClkInitStruct->APB1CLKDivider);
 2208              		.loc 1 923 5 discriminator 4 view .LVU673
 2209 01be B3F5E06F 		cmp	r3, #1792
 2210 01c2 58D1     		bne	.L232
ARM GAS  /tmp/ccz2x4IP.s 			page 75


 2211              	.L208:
 924:Drivers/STM32G4xx_HAL_Driver/Src/stm32g4xx_hal_rcc.c ****   }
 2212              		.loc 1 924 5 is_stmt 1 view .LVU674
 2213 01c4 374A     		ldr	r2, .L234+8
 2214 01c6 9368     		ldr	r3, [r2, #8]
 2215 01c8 23F4E063 		bic	r3, r3, #1792
 2216 01cc E168     		ldr	r1, [r4, #12]
 2217 01ce 0B43     		orrs	r3, r3, r1
 2218 01d0 9360     		str	r3, [r2, #8]
 2219              	.L207:
 928:Drivers/STM32G4xx_HAL_Driver/Src/stm32g4xx_hal_rcc.c ****   {
 2220              		.loc 1 928 3 view .LVU675
 928:Drivers/STM32G4xx_HAL_Driver/Src/stm32g4xx_hal_rcc.c ****   {
 2221              		.loc 1 928 25 is_stmt 0 view .LVU676
 2222 01d2 2368     		ldr	r3, [r4]
 928:Drivers/STM32G4xx_HAL_Driver/Src/stm32g4xx_hal_rcc.c ****   {
 2223              		.loc 1 928 5 view .LVU677
 2224 01d4 13F0080F 		tst	r3, #8
 2225 01d8 15D0     		beq	.L209
 930:Drivers/STM32G4xx_HAL_Driver/Src/stm32g4xx_hal_rcc.c ****     MODIFY_REG(RCC->CFGR, RCC_CFGR_PPRE2, ((RCC_ClkInitStruct->APB2CLKDivider) << 3U));
 2226              		.loc 1 930 5 is_stmt 1 view .LVU678
 2227 01da 2369     		ldr	r3, [r4, #16]
 2228 01dc 5BB1     		cbz	r3, .L210
 930:Drivers/STM32G4xx_HAL_Driver/Src/stm32g4xx_hal_rcc.c ****     MODIFY_REG(RCC->CFGR, RCC_CFGR_PPRE2, ((RCC_ClkInitStruct->APB2CLKDivider) << 3U));
 2229              		.loc 1 930 5 is_stmt 0 discriminator 1 view .LVU679
 2230 01de B3F5806F 		cmp	r3, #1024
 2231 01e2 08D0     		beq	.L210
 930:Drivers/STM32G4xx_HAL_Driver/Src/stm32g4xx_hal_rcc.c ****     MODIFY_REG(RCC->CFGR, RCC_CFGR_PPRE2, ((RCC_ClkInitStruct->APB2CLKDivider) << 3U));
 2232              		.loc 1 930 5 discriminator 2 view .LVU680
 2233 01e4 B3F5A06F 		cmp	r3, #1280
 2234 01e8 05D0     		beq	.L210
 930:Drivers/STM32G4xx_HAL_Driver/Src/stm32g4xx_hal_rcc.c ****     MODIFY_REG(RCC->CFGR, RCC_CFGR_PPRE2, ((RCC_ClkInitStruct->APB2CLKDivider) << 3U));
 2235              		.loc 1 930 5 discriminator 3 view .LVU681
 2236 01ea B3F5C06F 		cmp	r3, #1536
 2237 01ee 02D0     		beq	.L210
 930:Drivers/STM32G4xx_HAL_Driver/Src/stm32g4xx_hal_rcc.c ****     MODIFY_REG(RCC->CFGR, RCC_CFGR_PPRE2, ((RCC_ClkInitStruct->APB2CLKDivider) << 3U));
 2238              		.loc 1 930 5 discriminator 4 view .LVU682
 2239 01f0 B3F5E06F 		cmp	r3, #1792
 2240 01f4 45D1     		bne	.L233
 2241              	.L210:
 931:Drivers/STM32G4xx_HAL_Driver/Src/stm32g4xx_hal_rcc.c ****   }
 2242              		.loc 1 931 5 is_stmt 1 view .LVU683
 2243 01f6 2B4A     		ldr	r2, .L234+8
 2244 01f8 9368     		ldr	r3, [r2, #8]
 2245 01fa 23F46053 		bic	r3, r3, #14336
 2246 01fe 2169     		ldr	r1, [r4, #16]
 2247 0200 43EAC103 		orr	r3, r3, r1, lsl #3
 2248 0204 9360     		str	r3, [r2, #8]
 2249              	.L209:
 935:Drivers/STM32G4xx_HAL_Driver/Src/stm32g4xx_hal_rcc.c **** 
 2250              		.loc 1 935 3 view .LVU684
 935:Drivers/STM32G4xx_HAL_Driver/Src/stm32g4xx_hal_rcc.c **** 
 2251              		.loc 1 935 21 is_stmt 0 view .LVU685
 2252 0206 FFF7FEFF 		bl	HAL_RCC_GetSysClockFreq
 2253              	.LVL179:
 935:Drivers/STM32G4xx_HAL_Driver/Src/stm32g4xx_hal_rcc.c **** 
 2254              		.loc 1 935 65 view .LVU686
ARM GAS  /tmp/ccz2x4IP.s 			page 76


 2255 020a 264B     		ldr	r3, .L234+8
 2256 020c 9B68     		ldr	r3, [r3, #8]
 935:Drivers/STM32G4xx_HAL_Driver/Src/stm32g4xx_hal_rcc.c **** 
 2257              		.loc 1 935 100 view .LVU687
 2258 020e C3F30313 		ubfx	r3, r3, #4, #4
 935:Drivers/STM32G4xx_HAL_Driver/Src/stm32g4xx_hal_rcc.c **** 
 2259              		.loc 1 935 64 view .LVU688
 2260 0212 264A     		ldr	r2, .L234+16
 2261 0214 D35C     		ldrb	r3, [r2, r3]	@ zero_extendqisi2
 935:Drivers/STM32G4xx_HAL_Driver/Src/stm32g4xx_hal_rcc.c **** 
 2262              		.loc 1 935 122 view .LVU689
 2263 0216 03F01F03 		and	r3, r3, #31
 935:Drivers/STM32G4xx_HAL_Driver/Src/stm32g4xx_hal_rcc.c **** 
 2264              		.loc 1 935 47 view .LVU690
 2265 021a D840     		lsrs	r0, r0, r3
 935:Drivers/STM32G4xx_HAL_Driver/Src/stm32g4xx_hal_rcc.c **** 
 2266              		.loc 1 935 19 view .LVU691
 2267 021c 244B     		ldr	r3, .L234+20
 2268 021e 1860     		str	r0, [r3]
 938:Drivers/STM32G4xx_HAL_Driver/Src/stm32g4xx_hal_rcc.c **** }
 2269              		.loc 1 938 3 is_stmt 1 view .LVU692
 938:Drivers/STM32G4xx_HAL_Driver/Src/stm32g4xx_hal_rcc.c **** }
 2270              		.loc 1 938 10 is_stmt 0 view .LVU693
 2271 0220 244B     		ldr	r3, .L234+24
 2272 0222 1868     		ldr	r0, [r3]
 2273 0224 FFF7FEFF 		bl	HAL_InitTick
 2274              	.LVL180:
 2275              	.L185:
 939:Drivers/STM32G4xx_HAL_Driver/Src/stm32g4xx_hal_rcc.c **** 
 2276              		.loc 1 939 1 view .LVU694
 2277 0228 F8BD     		pop	{r3, r4, r5, r6, r7, pc}
 2278              	.LVL181:
 2279              	.L230:
 889:Drivers/STM32G4xx_HAL_Driver/Src/stm32g4xx_hal_rcc.c ****     MODIFY_REG(RCC->CFGR, RCC_CFGR_HPRE, RCC_ClkInitStruct->AHBCLKDivider);
 2280              		.loc 1 889 5 discriminator 9 view .LVU695
 2281 022a 40F27931 		movw	r1, #889
 2282 022e 1B48     		ldr	r0, .L234
 2283 0230 FFF7FEFF 		bl	assert_failed
 2284              	.LVL182:
 2285 0234 A7E7     		b	.L202
 2286              	.L199:
 895:Drivers/STM32G4xx_HAL_Driver/Src/stm32g4xx_hal_rcc.c ****     {
 2287              		.loc 1 895 5 is_stmt 1 view .LVU696
 895:Drivers/STM32G4xx_HAL_Driver/Src/stm32g4xx_hal_rcc.c ****     {
 2288              		.loc 1 895 7 is_stmt 0 view .LVU697
 2289 0236 802E     		cmp	r6, #128
 2290 0238 ACD1     		bne	.L203
 897:Drivers/STM32G4xx_HAL_Driver/Src/stm32g4xx_hal_rcc.c ****     }
 2291              		.loc 1 897 7 is_stmt 1 view .LVU698
 2292 023a 1A4A     		ldr	r2, .L234+8
 2293 023c 9368     		ldr	r3, [r2, #8]
 2294 023e 23F0F003 		bic	r3, r3, #240
 2295 0242 9360     		str	r3, [r2, #8]
 2296 0244 A6E7     		b	.L203
 2297              	.L231:
 905:Drivers/STM32G4xx_HAL_Driver/Src/stm32g4xx_hal_rcc.c **** 
 2298              		.loc 1 905 5 view .LVU699
ARM GAS  /tmp/ccz2x4IP.s 			page 77


 2299 0246 164A     		ldr	r2, .L234+4
 2300 0248 1368     		ldr	r3, [r2]
 2301 024a 23F00F03 		bic	r3, r3, #15
 2302 024e 2B43     		orrs	r3, r3, r5
 2303 0250 1360     		str	r3, [r2]
 909:Drivers/STM32G4xx_HAL_Driver/Src/stm32g4xx_hal_rcc.c **** 
 2304              		.loc 1 909 5 view .LVU700
 909:Drivers/STM32G4xx_HAL_Driver/Src/stm32g4xx_hal_rcc.c **** 
 2305              		.loc 1 909 17 is_stmt 0 view .LVU701
 2306 0252 FFF7FEFF 		bl	HAL_GetTick
 2307              	.LVL183:
 2308 0256 0646     		mov	r6, r0
 2309              	.LVL184:
 911:Drivers/STM32G4xx_HAL_Driver/Src/stm32g4xx_hal_rcc.c ****     {
 2310              		.loc 1 911 5 is_stmt 1 view .LVU702
 2311              	.L205:
 911:Drivers/STM32G4xx_HAL_Driver/Src/stm32g4xx_hal_rcc.c ****     {
 2312              		.loc 1 911 11 view .LVU703
 911:Drivers/STM32G4xx_HAL_Driver/Src/stm32g4xx_hal_rcc.c ****     {
 2313              		.loc 1 911 12 is_stmt 0 view .LVU704
 2314 0258 114B     		ldr	r3, .L234+4
 2315 025a 1B68     		ldr	r3, [r3]
 2316 025c 03F00F03 		and	r3, r3, #15
 911:Drivers/STM32G4xx_HAL_Driver/Src/stm32g4xx_hal_rcc.c ****     {
 2317              		.loc 1 911 11 view .LVU705
 2318 0260 AB42     		cmp	r3, r5
 2319 0262 9DD0     		beq	.L204
 913:Drivers/STM32G4xx_HAL_Driver/Src/stm32g4xx_hal_rcc.c ****       {
 2320              		.loc 1 913 7 is_stmt 1 view .LVU706
 913:Drivers/STM32G4xx_HAL_Driver/Src/stm32g4xx_hal_rcc.c ****       {
 2321              		.loc 1 913 12 is_stmt 0 view .LVU707
 2322 0264 FFF7FEFF 		bl	HAL_GetTick
 2323              	.LVL185:
 913:Drivers/STM32G4xx_HAL_Driver/Src/stm32g4xx_hal_rcc.c ****       {
 2324              		.loc 1 913 26 view .LVU708
 2325 0268 801B     		subs	r0, r0, r6
 913:Drivers/STM32G4xx_HAL_Driver/Src/stm32g4xx_hal_rcc.c ****       {
 2326              		.loc 1 913 10 view .LVU709
 2327 026a 41F28833 		movw	r3, #5000
 2328 026e 9842     		cmp	r0, r3
 2329 0270 F2D9     		bls	.L205
 915:Drivers/STM32G4xx_HAL_Driver/Src/stm32g4xx_hal_rcc.c ****       }
 2330              		.loc 1 915 16 view .LVU710
 2331 0272 0320     		movs	r0, #3
 2332 0274 D8E7     		b	.L185
 2333              	.LVL186:
 2334              	.L232:
 923:Drivers/STM32G4xx_HAL_Driver/Src/stm32g4xx_hal_rcc.c ****     MODIFY_REG(RCC->CFGR, RCC_CFGR_PPRE1, RCC_ClkInitStruct->APB1CLKDivider);
 2335              		.loc 1 923 5 discriminator 5 view .LVU711
 2336 0276 40F29B31 		movw	r1, #923
 2337 027a 0848     		ldr	r0, .L234
 2338 027c FFF7FEFF 		bl	assert_failed
 2339              	.LVL187:
 2340 0280 A0E7     		b	.L208
 2341              	.L233:
 930:Drivers/STM32G4xx_HAL_Driver/Src/stm32g4xx_hal_rcc.c ****     MODIFY_REG(RCC->CFGR, RCC_CFGR_PPRE2, ((RCC_ClkInitStruct->APB2CLKDivider) << 3U));
 2342              		.loc 1 930 5 discriminator 5 view .LVU712
ARM GAS  /tmp/ccz2x4IP.s 			page 78


 2343 0282 40F2A231 		movw	r1, #930
 2344 0286 0548     		ldr	r0, .L234
 2345 0288 FFF7FEFF 		bl	assert_failed
 2346              	.LVL188:
 2347 028c B3E7     		b	.L210
 2348              	.LVL189:
 2349              	.L211:
 2350              	.LCFI12:
 2351              		.cfi_def_cfa_offset 0
 2352              		.cfi_restore 3
 2353              		.cfi_restore 4
 2354              		.cfi_restore 5
 2355              		.cfi_restore 6
 2356              		.cfi_restore 7
 2357              		.cfi_restore 14
 774:Drivers/STM32G4xx_HAL_Driver/Src/stm32g4xx_hal_rcc.c ****   }
 2358              		.loc 1 774 12 view .LVU713
 2359 028e 0120     		movs	r0, #1
 2360              	.LVL190:
 939:Drivers/STM32G4xx_HAL_Driver/Src/stm32g4xx_hal_rcc.c **** 
 2361              		.loc 1 939 1 view .LVU714
 2362 0290 7047     		bx	lr
 2363              	.LVL191:
 2364              	.L212:
 2365              	.LCFI13:
 2366              		.cfi_def_cfa_offset 24
 2367              		.cfi_offset 3, -24
 2368              		.cfi_offset 4, -20
 2369              		.cfi_offset 5, -16
 2370              		.cfi_offset 6, -12
 2371              		.cfi_offset 7, -8
 2372              		.cfi_offset 14, -4
 795:Drivers/STM32G4xx_HAL_Driver/Src/stm32g4xx_hal_rcc.c ****     }
 2373              		.loc 1 795 14 view .LVU715
 2374 0292 0120     		movs	r0, #1
 2375 0294 C8E7     		b	.L185
 2376              	.L217:
 845:Drivers/STM32G4xx_HAL_Driver/Src/stm32g4xx_hal_rcc.c ****         }
 2377              		.loc 1 845 18 view .LVU716
 2378 0296 0120     		movs	r0, #1
 2379 0298 C6E7     		b	.L185
 2380              	.L235:
 2381 029a 00BF     		.align	2
 2382              	.L234:
 2383 029c 00000000 		.word	.LC0
 2384 02a0 00200240 		.word	1073881088
 2385 02a4 00100240 		.word	1073876992
 2386 02a8 00B4C404 		.word	80000000
 2387 02ac 00000000 		.word	AHBPrescTable
 2388 02b0 00000000 		.word	SystemCoreClock
 2389 02b4 00000000 		.word	uwTickPrio
 2390              		.cfi_endproc
 2391              	.LFE134:
 2393              		.section	.text.HAL_RCC_GetHCLKFreq,"ax",%progbits
 2394              		.align	1
 2395              		.global	HAL_RCC_GetHCLKFreq
 2396              		.syntax unified
ARM GAS  /tmp/ccz2x4IP.s 			page 79


 2397              		.thumb
 2398              		.thumb_func
 2399              		.fpu fpv4-sp-d16
 2401              	HAL_RCC_GetHCLKFreq:
 2402              	.LFB137:
1101:Drivers/STM32G4xx_HAL_Driver/Src/stm32g4xx_hal_rcc.c ****   return SystemCoreClock;
 2403              		.loc 1 1101 1 is_stmt 1 view -0
 2404              		.cfi_startproc
 2405              		@ args = 0, pretend = 0, frame = 0
 2406              		@ frame_needed = 0, uses_anonymous_args = 0
 2407              		@ link register save eliminated.
1102:Drivers/STM32G4xx_HAL_Driver/Src/stm32g4xx_hal_rcc.c **** }
 2408              		.loc 1 1102 3 view .LVU718
1103:Drivers/STM32G4xx_HAL_Driver/Src/stm32g4xx_hal_rcc.c **** 
 2409              		.loc 1 1103 1 is_stmt 0 view .LVU719
 2410 0000 014B     		ldr	r3, .L237
 2411 0002 1868     		ldr	r0, [r3]
 2412 0004 7047     		bx	lr
 2413              	.L238:
 2414 0006 00BF     		.align	2
 2415              	.L237:
 2416 0008 00000000 		.word	SystemCoreClock
 2417              		.cfi_endproc
 2418              	.LFE137:
 2420              		.section	.text.HAL_RCC_GetPCLK1Freq,"ax",%progbits
 2421              		.align	1
 2422              		.global	HAL_RCC_GetPCLK1Freq
 2423              		.syntax unified
 2424              		.thumb
 2425              		.thumb_func
 2426              		.fpu fpv4-sp-d16
 2428              	HAL_RCC_GetPCLK1Freq:
 2429              	.LFB138:
1112:Drivers/STM32G4xx_HAL_Driver/Src/stm32g4xx_hal_rcc.c ****   /* Get HCLK source and Compute PCLK1 frequency ---------------------------*/
 2430              		.loc 1 1112 1 is_stmt 1 view -0
 2431              		.cfi_startproc
 2432              		@ args = 0, pretend = 0, frame = 0
 2433              		@ frame_needed = 0, uses_anonymous_args = 0
 2434 0000 08B5     		push	{r3, lr}
 2435              	.LCFI14:
 2436              		.cfi_def_cfa_offset 8
 2437              		.cfi_offset 3, -8
 2438              		.cfi_offset 14, -4
1114:Drivers/STM32G4xx_HAL_Driver/Src/stm32g4xx_hal_rcc.c **** }
 2439              		.loc 1 1114 3 view .LVU721
1114:Drivers/STM32G4xx_HAL_Driver/Src/stm32g4xx_hal_rcc.c **** }
 2440              		.loc 1 1114 11 is_stmt 0 view .LVU722
 2441 0002 FFF7FEFF 		bl	HAL_RCC_GetHCLKFreq
 2442              	.LVL192:
1114:Drivers/STM32G4xx_HAL_Driver/Src/stm32g4xx_hal_rcc.c **** }
 2443              		.loc 1 1114 51 view .LVU723
 2444 0006 054B     		ldr	r3, .L241
 2445 0008 9B68     		ldr	r3, [r3, #8]
1114:Drivers/STM32G4xx_HAL_Driver/Src/stm32g4xx_hal_rcc.c **** }
 2446              		.loc 1 1114 87 view .LVU724
 2447 000a C3F30223 		ubfx	r3, r3, #8, #3
1114:Drivers/STM32G4xx_HAL_Driver/Src/stm32g4xx_hal_rcc.c **** }
ARM GAS  /tmp/ccz2x4IP.s 			page 80


 2448              		.loc 1 1114 50 view .LVU725
 2449 000e 044A     		ldr	r2, .L241+4
 2450 0010 D35C     		ldrb	r3, [r2, r3]	@ zero_extendqisi2
1114:Drivers/STM32G4xx_HAL_Driver/Src/stm32g4xx_hal_rcc.c **** }
 2451              		.loc 1 1114 110 view .LVU726
 2452 0012 03F01F03 		and	r3, r3, #31
1115:Drivers/STM32G4xx_HAL_Driver/Src/stm32g4xx_hal_rcc.c **** 
 2453              		.loc 1 1115 1 view .LVU727
 2454 0016 D840     		lsrs	r0, r0, r3
 2455 0018 08BD     		pop	{r3, pc}
 2456              	.L242:
 2457 001a 00BF     		.align	2
 2458              	.L241:
 2459 001c 00100240 		.word	1073876992
 2460 0020 00000000 		.word	APBPrescTable
 2461              		.cfi_endproc
 2462              	.LFE138:
 2464              		.section	.text.HAL_RCC_GetPCLK2Freq,"ax",%progbits
 2465              		.align	1
 2466              		.global	HAL_RCC_GetPCLK2Freq
 2467              		.syntax unified
 2468              		.thumb
 2469              		.thumb_func
 2470              		.fpu fpv4-sp-d16
 2472              	HAL_RCC_GetPCLK2Freq:
 2473              	.LFB139:
1124:Drivers/STM32G4xx_HAL_Driver/Src/stm32g4xx_hal_rcc.c ****   /* Get HCLK source and Compute PCLK2 frequency ---------------------------*/
 2474              		.loc 1 1124 1 is_stmt 1 view -0
 2475              		.cfi_startproc
 2476              		@ args = 0, pretend = 0, frame = 0
 2477              		@ frame_needed = 0, uses_anonymous_args = 0
 2478 0000 08B5     		push	{r3, lr}
 2479              	.LCFI15:
 2480              		.cfi_def_cfa_offset 8
 2481              		.cfi_offset 3, -8
 2482              		.cfi_offset 14, -4
1126:Drivers/STM32G4xx_HAL_Driver/Src/stm32g4xx_hal_rcc.c **** }
 2483              		.loc 1 1126 3 view .LVU729
1126:Drivers/STM32G4xx_HAL_Driver/Src/stm32g4xx_hal_rcc.c **** }
 2484              		.loc 1 1126 11 is_stmt 0 view .LVU730
 2485 0002 FFF7FEFF 		bl	HAL_RCC_GetHCLKFreq
 2486              	.LVL193:
1126:Drivers/STM32G4xx_HAL_Driver/Src/stm32g4xx_hal_rcc.c **** }
 2487              		.loc 1 1126 50 view .LVU731
 2488 0006 054B     		ldr	r3, .L245
 2489 0008 9B68     		ldr	r3, [r3, #8]
1126:Drivers/STM32G4xx_HAL_Driver/Src/stm32g4xx_hal_rcc.c **** }
 2490              		.loc 1 1126 86 view .LVU732
 2491 000a C3F3C223 		ubfx	r3, r3, #11, #3
1126:Drivers/STM32G4xx_HAL_Driver/Src/stm32g4xx_hal_rcc.c **** }
 2492              		.loc 1 1126 49 view .LVU733
 2493 000e 044A     		ldr	r2, .L245+4
 2494 0010 D35C     		ldrb	r3, [r2, r3]	@ zero_extendqisi2
1126:Drivers/STM32G4xx_HAL_Driver/Src/stm32g4xx_hal_rcc.c **** }
 2495              		.loc 1 1126 109 view .LVU734
 2496 0012 03F01F03 		and	r3, r3, #31
1127:Drivers/STM32G4xx_HAL_Driver/Src/stm32g4xx_hal_rcc.c **** 
ARM GAS  /tmp/ccz2x4IP.s 			page 81


 2497              		.loc 1 1127 1 view .LVU735
 2498 0016 D840     		lsrs	r0, r0, r3
 2499 0018 08BD     		pop	{r3, pc}
 2500              	.L246:
 2501 001a 00BF     		.align	2
 2502              	.L245:
 2503 001c 00100240 		.word	1073876992
 2504 0020 00000000 		.word	APBPrescTable
 2505              		.cfi_endproc
 2506              	.LFE139:
 2508              		.section	.text.HAL_RCC_GetOscConfig,"ax",%progbits
 2509              		.align	1
 2510              		.global	HAL_RCC_GetOscConfig
 2511              		.syntax unified
 2512              		.thumb
 2513              		.thumb_func
 2514              		.fpu fpv4-sp-d16
 2516              	HAL_RCC_GetOscConfig:
 2517              	.LVL194:
 2518              	.LFB140:
1137:Drivers/STM32G4xx_HAL_Driver/Src/stm32g4xx_hal_rcc.c ****   /* Check the parameters */
 2519              		.loc 1 1137 1 is_stmt 1 view -0
 2520              		.cfi_startproc
 2521              		@ args = 0, pretend = 0, frame = 0
 2522              		@ frame_needed = 0, uses_anonymous_args = 0
1137:Drivers/STM32G4xx_HAL_Driver/Src/stm32g4xx_hal_rcc.c ****   /* Check the parameters */
 2523              		.loc 1 1137 1 is_stmt 0 view .LVU737
 2524 0000 10B5     		push	{r4, lr}
 2525              	.LCFI16:
 2526              		.cfi_def_cfa_offset 8
 2527              		.cfi_offset 4, -8
 2528              		.cfi_offset 14, -4
1139:Drivers/STM32G4xx_HAL_Driver/Src/stm32g4xx_hal_rcc.c **** 
 2529              		.loc 1 1139 3 is_stmt 1 view .LVU738
 2530 0002 0446     		mov	r4, r0
 2531 0004 0028     		cmp	r0, #0
 2532 0006 52D0     		beq	.L264
 2533              	.LVL195:
 2534              	.L248:
1142:Drivers/STM32G4xx_HAL_Driver/Src/stm32g4xx_hal_rcc.c ****                                       RCC_OSCILLATORTYPE_LSE | RCC_OSCILLATORTYPE_LSI | RCC_OSCILLA
 2535              		.loc 1 1142 3 view .LVU739
1142:Drivers/STM32G4xx_HAL_Driver/Src/stm32g4xx_hal_rcc.c ****                                       RCC_OSCILLATORTYPE_LSE | RCC_OSCILLATORTYPE_LSI | RCC_OSCILLA
 2536              		.loc 1 1142 37 is_stmt 0 view .LVU740
 2537 0008 2F23     		movs	r3, #47
 2538 000a 2360     		str	r3, [r4]
1146:Drivers/STM32G4xx_HAL_Driver/Src/stm32g4xx_hal_rcc.c ****   {
 2539              		.loc 1 1146 3 is_stmt 1 view .LVU741
1146:Drivers/STM32G4xx_HAL_Driver/Src/stm32g4xx_hal_rcc.c ****   {
 2540              		.loc 1 1146 6 is_stmt 0 view .LVU742
 2541 000c 3D4B     		ldr	r3, .L265
 2542 000e 1B68     		ldr	r3, [r3]
1146:Drivers/STM32G4xx_HAL_Driver/Src/stm32g4xx_hal_rcc.c ****   {
 2543              		.loc 1 1146 5 view .LVU743
 2544 0010 13F4802F 		tst	r3, #262144
 2545 0014 51D0     		beq	.L249
1148:Drivers/STM32G4xx_HAL_Driver/Src/stm32g4xx_hal_rcc.c ****   }
 2546              		.loc 1 1148 5 is_stmt 1 view .LVU744
ARM GAS  /tmp/ccz2x4IP.s 			page 82


1148:Drivers/STM32G4xx_HAL_Driver/Src/stm32g4xx_hal_rcc.c ****   }
 2547              		.loc 1 1148 33 is_stmt 0 view .LVU745
 2548 0016 4FF4A023 		mov	r3, #327680
 2549 001a 6360     		str	r3, [r4, #4]
 2550              	.L250:
1160:Drivers/STM32G4xx_HAL_Driver/Src/stm32g4xx_hal_rcc.c ****   {
 2551              		.loc 1 1160 3 is_stmt 1 view .LVU746
1160:Drivers/STM32G4xx_HAL_Driver/Src/stm32g4xx_hal_rcc.c ****   {
 2552              		.loc 1 1160 6 is_stmt 0 view .LVU747
 2553 001c 394B     		ldr	r3, .L265
 2554 001e 1B68     		ldr	r3, [r3]
1160:Drivers/STM32G4xx_HAL_Driver/Src/stm32g4xx_hal_rcc.c ****   {
 2555              		.loc 1 1160 5 view .LVU748
 2556 0020 13F4807F 		tst	r3, #256
 2557 0024 55D0     		beq	.L252
1162:Drivers/STM32G4xx_HAL_Driver/Src/stm32g4xx_hal_rcc.c ****   }
 2558              		.loc 1 1162 5 is_stmt 1 view .LVU749
1162:Drivers/STM32G4xx_HAL_Driver/Src/stm32g4xx_hal_rcc.c ****   }
 2559              		.loc 1 1162 33 is_stmt 0 view .LVU750
 2560 0026 4FF48073 		mov	r3, #256
 2561 002a E360     		str	r3, [r4, #12]
 2562              	.L253:
1169:Drivers/STM32G4xx_HAL_Driver/Src/stm32g4xx_hal_rcc.c **** 
 2563              		.loc 1 1169 3 is_stmt 1 view .LVU751
1169:Drivers/STM32G4xx_HAL_Driver/Src/stm32g4xx_hal_rcc.c **** 
 2564              		.loc 1 1169 44 is_stmt 0 view .LVU752
 2565 002c 354A     		ldr	r2, .L265
 2566 002e 5368     		ldr	r3, [r2, #4]
1169:Drivers/STM32G4xx_HAL_Driver/Src/stm32g4xx_hal_rcc.c **** 
 2567              		.loc 1 1169 84 view .LVU753
 2568 0030 C3F30663 		ubfx	r3, r3, #24, #7
1169:Drivers/STM32G4xx_HAL_Driver/Src/stm32g4xx_hal_rcc.c **** 
 2569              		.loc 1 1169 42 view .LVU754
 2570 0034 2361     		str	r3, [r4, #16]
1172:Drivers/STM32G4xx_HAL_Driver/Src/stm32g4xx_hal_rcc.c ****   {
 2571              		.loc 1 1172 3 is_stmt 1 view .LVU755
1172:Drivers/STM32G4xx_HAL_Driver/Src/stm32g4xx_hal_rcc.c ****   {
 2572              		.loc 1 1172 6 is_stmt 0 view .LVU756
 2573 0036 D2F89030 		ldr	r3, [r2, #144]
1172:Drivers/STM32G4xx_HAL_Driver/Src/stm32g4xx_hal_rcc.c ****   {
 2574              		.loc 1 1172 5 view .LVU757
 2575 003a 13F0040F 		tst	r3, #4
 2576 003e 4BD0     		beq	.L254
1174:Drivers/STM32G4xx_HAL_Driver/Src/stm32g4xx_hal_rcc.c ****   }
 2577              		.loc 1 1174 5 is_stmt 1 view .LVU758
1174:Drivers/STM32G4xx_HAL_Driver/Src/stm32g4xx_hal_rcc.c ****   }
 2578              		.loc 1 1174 33 is_stmt 0 view .LVU759
 2579 0040 0523     		movs	r3, #5
 2580 0042 A360     		str	r3, [r4, #8]
 2581              	.L255:
1186:Drivers/STM32G4xx_HAL_Driver/Src/stm32g4xx_hal_rcc.c ****   {
 2582              		.loc 1 1186 3 is_stmt 1 view .LVU760
1186:Drivers/STM32G4xx_HAL_Driver/Src/stm32g4xx_hal_rcc.c ****   {
 2583              		.loc 1 1186 6 is_stmt 0 view .LVU761
 2584 0044 2F4B     		ldr	r3, .L265
 2585 0046 D3F89430 		ldr	r3, [r3, #148]
1186:Drivers/STM32G4xx_HAL_Driver/Src/stm32g4xx_hal_rcc.c ****   {
ARM GAS  /tmp/ccz2x4IP.s 			page 83


 2586              		.loc 1 1186 5 view .LVU762
 2587 004a 13F0010F 		tst	r3, #1
 2588 004e 4FD0     		beq	.L257
1188:Drivers/STM32G4xx_HAL_Driver/Src/stm32g4xx_hal_rcc.c ****   }
 2589              		.loc 1 1188 5 is_stmt 1 view .LVU763
1188:Drivers/STM32G4xx_HAL_Driver/Src/stm32g4xx_hal_rcc.c ****   }
 2590              		.loc 1 1188 33 is_stmt 0 view .LVU764
 2591 0050 0123     		movs	r3, #1
 2592 0052 6361     		str	r3, [r4, #20]
 2593              	.L258:
1196:Drivers/STM32G4xx_HAL_Driver/Src/stm32g4xx_hal_rcc.c ****   {
 2594              		.loc 1 1196 3 is_stmt 1 view .LVU765
1196:Drivers/STM32G4xx_HAL_Driver/Src/stm32g4xx_hal_rcc.c ****   {
 2595              		.loc 1 1196 6 is_stmt 0 view .LVU766
 2596 0054 2B4B     		ldr	r3, .L265
 2597 0056 D3F89830 		ldr	r3, [r3, #152]
1196:Drivers/STM32G4xx_HAL_Driver/Src/stm32g4xx_hal_rcc.c ****   {
 2598              		.loc 1 1196 5 view .LVU767
 2599 005a 13F0010F 		tst	r3, #1
 2600 005e 4AD0     		beq	.L259
1198:Drivers/STM32G4xx_HAL_Driver/Src/stm32g4xx_hal_rcc.c ****   }
 2601              		.loc 1 1198 5 is_stmt 1 view .LVU768
1198:Drivers/STM32G4xx_HAL_Driver/Src/stm32g4xx_hal_rcc.c ****   }
 2602              		.loc 1 1198 35 is_stmt 0 view .LVU769
 2603 0060 0123     		movs	r3, #1
 2604 0062 A361     		str	r3, [r4, #24]
 2605              	.L260:
1206:Drivers/STM32G4xx_HAL_Driver/Src/stm32g4xx_hal_rcc.c ****   {
 2606              		.loc 1 1206 3 is_stmt 1 view .LVU770
1206:Drivers/STM32G4xx_HAL_Driver/Src/stm32g4xx_hal_rcc.c ****   {
 2607              		.loc 1 1206 6 is_stmt 0 view .LVU771
 2608 0064 274B     		ldr	r3, .L265
 2609 0066 1B68     		ldr	r3, [r3]
1206:Drivers/STM32G4xx_HAL_Driver/Src/stm32g4xx_hal_rcc.c ****   {
 2610              		.loc 1 1206 5 view .LVU772
 2611 0068 13F0807F 		tst	r3, #16777216
 2612 006c 46D0     		beq	.L261
1208:Drivers/STM32G4xx_HAL_Driver/Src/stm32g4xx_hal_rcc.c ****   }
 2613              		.loc 1 1208 5 is_stmt 1 view .LVU773
1208:Drivers/STM32G4xx_HAL_Driver/Src/stm32g4xx_hal_rcc.c ****   }
 2614              		.loc 1 1208 37 is_stmt 0 view .LVU774
 2615 006e 0223     		movs	r3, #2
 2616 0070 E361     		str	r3, [r4, #28]
 2617              	.L262:
1214:Drivers/STM32G4xx_HAL_Driver/Src/stm32g4xx_hal_rcc.c ****   RCC_OscInitStruct->PLL.PLLM = (READ_BIT(RCC->PLLCFGR, RCC_PLLCFGR_PLLM) >> RCC_PLLCFGR_PLLM_Pos) 
 2618              		.loc 1 1214 3 is_stmt 1 view .LVU775
1214:Drivers/STM32G4xx_HAL_Driver/Src/stm32g4xx_hal_rcc.c ****   RCC_OscInitStruct->PLL.PLLM = (READ_BIT(RCC->PLLCFGR, RCC_PLLCFGR_PLLM) >> RCC_PLLCFGR_PLLM_Pos) 
 2619              		.loc 1 1214 38 is_stmt 0 view .LVU776
 2620 0072 244A     		ldr	r2, .L265
 2621 0074 D368     		ldr	r3, [r2, #12]
 2622 0076 03F00303 		and	r3, r3, #3
1214:Drivers/STM32G4xx_HAL_Driver/Src/stm32g4xx_hal_rcc.c ****   RCC_OscInitStruct->PLL.PLLM = (READ_BIT(RCC->PLLCFGR, RCC_PLLCFGR_PLLM) >> RCC_PLLCFGR_PLLM_Pos) 
 2623              		.loc 1 1214 36 view .LVU777
 2624 007a 2362     		str	r3, [r4, #32]
1215:Drivers/STM32G4xx_HAL_Driver/Src/stm32g4xx_hal_rcc.c ****   RCC_OscInitStruct->PLL.PLLN = READ_BIT(RCC->PLLCFGR, RCC_PLLCFGR_PLLN) >> RCC_PLLCFGR_PLLN_Pos;
 2625              		.loc 1 1215 3 is_stmt 1 view .LVU778
1215:Drivers/STM32G4xx_HAL_Driver/Src/stm32g4xx_hal_rcc.c ****   RCC_OscInitStruct->PLL.PLLN = READ_BIT(RCC->PLLCFGR, RCC_PLLCFGR_PLLN) >> RCC_PLLCFGR_PLLN_Pos;
ARM GAS  /tmp/ccz2x4IP.s 			page 84


 2626              		.loc 1 1215 34 is_stmt 0 view .LVU779
 2627 007c D368     		ldr	r3, [r2, #12]
1215:Drivers/STM32G4xx_HAL_Driver/Src/stm32g4xx_hal_rcc.c ****   RCC_OscInitStruct->PLL.PLLN = READ_BIT(RCC->PLLCFGR, RCC_PLLCFGR_PLLN) >> RCC_PLLCFGR_PLLN_Pos;
 2628              		.loc 1 1215 75 view .LVU780
 2629 007e C3F30313 		ubfx	r3, r3, #4, #4
1215:Drivers/STM32G4xx_HAL_Driver/Src/stm32g4xx_hal_rcc.c ****   RCC_OscInitStruct->PLL.PLLN = READ_BIT(RCC->PLLCFGR, RCC_PLLCFGR_PLLN) >> RCC_PLLCFGR_PLLN_Pos;
 2630              		.loc 1 1215 100 view .LVU781
 2631 0082 0133     		adds	r3, r3, #1
1215:Drivers/STM32G4xx_HAL_Driver/Src/stm32g4xx_hal_rcc.c ****   RCC_OscInitStruct->PLL.PLLN = READ_BIT(RCC->PLLCFGR, RCC_PLLCFGR_PLLN) >> RCC_PLLCFGR_PLLN_Pos;
 2632              		.loc 1 1215 31 view .LVU782
 2633 0084 6362     		str	r3, [r4, #36]
1216:Drivers/STM32G4xx_HAL_Driver/Src/stm32g4xx_hal_rcc.c ****   RCC_OscInitStruct->PLL.PLLQ = (((READ_BIT(RCC->PLLCFGR, RCC_PLLCFGR_PLLQ) >> RCC_PLLCFGR_PLLQ_Pos
 2634              		.loc 1 1216 3 is_stmt 1 view .LVU783
1216:Drivers/STM32G4xx_HAL_Driver/Src/stm32g4xx_hal_rcc.c ****   RCC_OscInitStruct->PLL.PLLQ = (((READ_BIT(RCC->PLLCFGR, RCC_PLLCFGR_PLLQ) >> RCC_PLLCFGR_PLLQ_Pos
 2635              		.loc 1 1216 33 is_stmt 0 view .LVU784
 2636 0086 D368     		ldr	r3, [r2, #12]
1216:Drivers/STM32G4xx_HAL_Driver/Src/stm32g4xx_hal_rcc.c ****   RCC_OscInitStruct->PLL.PLLQ = (((READ_BIT(RCC->PLLCFGR, RCC_PLLCFGR_PLLQ) >> RCC_PLLCFGR_PLLQ_Pos
 2637              		.loc 1 1216 74 view .LVU785
 2638 0088 C3F30623 		ubfx	r3, r3, #8, #7
1216:Drivers/STM32G4xx_HAL_Driver/Src/stm32g4xx_hal_rcc.c ****   RCC_OscInitStruct->PLL.PLLQ = (((READ_BIT(RCC->PLLCFGR, RCC_PLLCFGR_PLLQ) >> RCC_PLLCFGR_PLLQ_Pos
 2639              		.loc 1 1216 31 view .LVU786
 2640 008c A362     		str	r3, [r4, #40]
1217:Drivers/STM32G4xx_HAL_Driver/Src/stm32g4xx_hal_rcc.c ****   RCC_OscInitStruct->PLL.PLLR = (((READ_BIT(RCC->PLLCFGR, RCC_PLLCFGR_PLLR) >> RCC_PLLCFGR_PLLR_Pos
 2641              		.loc 1 1217 3 is_stmt 1 view .LVU787
1217:Drivers/STM32G4xx_HAL_Driver/Src/stm32g4xx_hal_rcc.c ****   RCC_OscInitStruct->PLL.PLLR = (((READ_BIT(RCC->PLLCFGR, RCC_PLLCFGR_PLLR) >> RCC_PLLCFGR_PLLR_Pos
 2642              		.loc 1 1217 36 is_stmt 0 view .LVU788
 2643 008e D368     		ldr	r3, [r2, #12]
1217:Drivers/STM32G4xx_HAL_Driver/Src/stm32g4xx_hal_rcc.c ****   RCC_OscInitStruct->PLL.PLLR = (((READ_BIT(RCC->PLLCFGR, RCC_PLLCFGR_PLLR) >> RCC_PLLCFGR_PLLR_Pos
 2644              		.loc 1 1217 77 view .LVU789
 2645 0090 C3F34153 		ubfx	r3, r3, #21, #2
1217:Drivers/STM32G4xx_HAL_Driver/Src/stm32g4xx_hal_rcc.c ****   RCC_OscInitStruct->PLL.PLLR = (((READ_BIT(RCC->PLLCFGR, RCC_PLLCFGR_PLLR) >> RCC_PLLCFGR_PLLR_Pos
 2646              		.loc 1 1217 102 view .LVU790
 2647 0094 0133     		adds	r3, r3, #1
1217:Drivers/STM32G4xx_HAL_Driver/Src/stm32g4xx_hal_rcc.c ****   RCC_OscInitStruct->PLL.PLLR = (((READ_BIT(RCC->PLLCFGR, RCC_PLLCFGR_PLLR) >> RCC_PLLCFGR_PLLR_Pos
 2648              		.loc 1 1217 108 view .LVU791
 2649 0096 5B00     		lsls	r3, r3, #1
1217:Drivers/STM32G4xx_HAL_Driver/Src/stm32g4xx_hal_rcc.c ****   RCC_OscInitStruct->PLL.PLLR = (((READ_BIT(RCC->PLLCFGR, RCC_PLLCFGR_PLLR) >> RCC_PLLCFGR_PLLR_Pos
 2650              		.loc 1 1217 31 view .LVU792
 2651 0098 2363     		str	r3, [r4, #48]
1218:Drivers/STM32G4xx_HAL_Driver/Src/stm32g4xx_hal_rcc.c ****   RCC_OscInitStruct->PLL.PLLP = READ_BIT(RCC->PLLCFGR, RCC_PLLCFGR_PLLPDIV) >> RCC_PLLCFGR_PLLPDIV_
 2652              		.loc 1 1218 3 is_stmt 1 view .LVU793
1218:Drivers/STM32G4xx_HAL_Driver/Src/stm32g4xx_hal_rcc.c ****   RCC_OscInitStruct->PLL.PLLP = READ_BIT(RCC->PLLCFGR, RCC_PLLCFGR_PLLPDIV) >> RCC_PLLCFGR_PLLPDIV_
 2653              		.loc 1 1218 36 is_stmt 0 view .LVU794
 2654 009a D368     		ldr	r3, [r2, #12]
1218:Drivers/STM32G4xx_HAL_Driver/Src/stm32g4xx_hal_rcc.c ****   RCC_OscInitStruct->PLL.PLLP = READ_BIT(RCC->PLLCFGR, RCC_PLLCFGR_PLLPDIV) >> RCC_PLLCFGR_PLLPDIV_
 2655              		.loc 1 1218 77 view .LVU795
 2656 009c C3F34163 		ubfx	r3, r3, #25, #2
1218:Drivers/STM32G4xx_HAL_Driver/Src/stm32g4xx_hal_rcc.c ****   RCC_OscInitStruct->PLL.PLLP = READ_BIT(RCC->PLLCFGR, RCC_PLLCFGR_PLLPDIV) >> RCC_PLLCFGR_PLLPDIV_
 2657              		.loc 1 1218 102 view .LVU796
 2658 00a0 0133     		adds	r3, r3, #1
1218:Drivers/STM32G4xx_HAL_Driver/Src/stm32g4xx_hal_rcc.c ****   RCC_OscInitStruct->PLL.PLLP = READ_BIT(RCC->PLLCFGR, RCC_PLLCFGR_PLLPDIV) >> RCC_PLLCFGR_PLLPDIV_
 2659              		.loc 1 1218 108 view .LVU797
 2660 00a2 5B00     		lsls	r3, r3, #1
1218:Drivers/STM32G4xx_HAL_Driver/Src/stm32g4xx_hal_rcc.c ****   RCC_OscInitStruct->PLL.PLLP = READ_BIT(RCC->PLLCFGR, RCC_PLLCFGR_PLLPDIV) >> RCC_PLLCFGR_PLLPDIV_
 2661              		.loc 1 1218 31 view .LVU798
 2662 00a4 6363     		str	r3, [r4, #52]
1219:Drivers/STM32G4xx_HAL_Driver/Src/stm32g4xx_hal_rcc.c **** }
ARM GAS  /tmp/ccz2x4IP.s 			page 85


 2663              		.loc 1 1219 3 is_stmt 1 view .LVU799
1219:Drivers/STM32G4xx_HAL_Driver/Src/stm32g4xx_hal_rcc.c **** }
 2664              		.loc 1 1219 33 is_stmt 0 view .LVU800
 2665 00a6 D368     		ldr	r3, [r2, #12]
1219:Drivers/STM32G4xx_HAL_Driver/Src/stm32g4xx_hal_rcc.c **** }
 2666              		.loc 1 1219 77 view .LVU801
 2667 00a8 DB0E     		lsrs	r3, r3, #27
1219:Drivers/STM32G4xx_HAL_Driver/Src/stm32g4xx_hal_rcc.c **** }
 2668              		.loc 1 1219 31 view .LVU802
 2669 00aa E362     		str	r3, [r4, #44]
1220:Drivers/STM32G4xx_HAL_Driver/Src/stm32g4xx_hal_rcc.c **** 
 2670              		.loc 1 1220 1 view .LVU803
 2671 00ac 10BD     		pop	{r4, pc}
 2672              	.LVL196:
 2673              	.L264:
1139:Drivers/STM32G4xx_HAL_Driver/Src/stm32g4xx_hal_rcc.c **** 
 2674              		.loc 1 1139 3 discriminator 1 view .LVU804
 2675 00ae 40F27341 		movw	r1, #1139
 2676 00b2 1548     		ldr	r0, .L265+4
 2677              	.LVL197:
1139:Drivers/STM32G4xx_HAL_Driver/Src/stm32g4xx_hal_rcc.c **** 
 2678              		.loc 1 1139 3 discriminator 1 view .LVU805
 2679 00b4 FFF7FEFF 		bl	assert_failed
 2680              	.LVL198:
 2681 00b8 A6E7     		b	.L248
 2682              	.L249:
1150:Drivers/STM32G4xx_HAL_Driver/Src/stm32g4xx_hal_rcc.c ****   {
 2683              		.loc 1 1150 8 is_stmt 1 view .LVU806
1150:Drivers/STM32G4xx_HAL_Driver/Src/stm32g4xx_hal_rcc.c ****   {
 2684              		.loc 1 1150 11 is_stmt 0 view .LVU807
 2685 00ba 124B     		ldr	r3, .L265
 2686 00bc 1B68     		ldr	r3, [r3]
1150:Drivers/STM32G4xx_HAL_Driver/Src/stm32g4xx_hal_rcc.c ****   {
 2687              		.loc 1 1150 10 view .LVU808
 2688 00be 13F4803F 		tst	r3, #65536
 2689 00c2 03D0     		beq	.L251
1152:Drivers/STM32G4xx_HAL_Driver/Src/stm32g4xx_hal_rcc.c ****   }
 2690              		.loc 1 1152 5 is_stmt 1 view .LVU809
1152:Drivers/STM32G4xx_HAL_Driver/Src/stm32g4xx_hal_rcc.c ****   }
 2691              		.loc 1 1152 33 is_stmt 0 view .LVU810
 2692 00c4 4FF48033 		mov	r3, #65536
 2693 00c8 6360     		str	r3, [r4, #4]
 2694 00ca A7E7     		b	.L250
 2695              	.L251:
1156:Drivers/STM32G4xx_HAL_Driver/Src/stm32g4xx_hal_rcc.c ****   }
 2696              		.loc 1 1156 5 is_stmt 1 view .LVU811
1156:Drivers/STM32G4xx_HAL_Driver/Src/stm32g4xx_hal_rcc.c ****   }
 2697              		.loc 1 1156 33 is_stmt 0 view .LVU812
 2698 00cc 0023     		movs	r3, #0
 2699 00ce 6360     		str	r3, [r4, #4]
 2700 00d0 A4E7     		b	.L250
 2701              	.L252:
1166:Drivers/STM32G4xx_HAL_Driver/Src/stm32g4xx_hal_rcc.c ****   }
 2702              		.loc 1 1166 5 is_stmt 1 view .LVU813
1166:Drivers/STM32G4xx_HAL_Driver/Src/stm32g4xx_hal_rcc.c ****   }
 2703              		.loc 1 1166 33 is_stmt 0 view .LVU814
 2704 00d2 0023     		movs	r3, #0
ARM GAS  /tmp/ccz2x4IP.s 			page 86


 2705 00d4 E360     		str	r3, [r4, #12]
 2706 00d6 A9E7     		b	.L253
 2707              	.L254:
1176:Drivers/STM32G4xx_HAL_Driver/Src/stm32g4xx_hal_rcc.c ****   {
 2708              		.loc 1 1176 8 is_stmt 1 view .LVU815
1176:Drivers/STM32G4xx_HAL_Driver/Src/stm32g4xx_hal_rcc.c ****   {
 2709              		.loc 1 1176 11 is_stmt 0 view .LVU816
 2710 00d8 0A4B     		ldr	r3, .L265
 2711 00da D3F89030 		ldr	r3, [r3, #144]
1176:Drivers/STM32G4xx_HAL_Driver/Src/stm32g4xx_hal_rcc.c ****   {
 2712              		.loc 1 1176 10 view .LVU817
 2713 00de 13F0010F 		tst	r3, #1
 2714 00e2 02D0     		beq	.L256
1178:Drivers/STM32G4xx_HAL_Driver/Src/stm32g4xx_hal_rcc.c ****   }
 2715              		.loc 1 1178 5 is_stmt 1 view .LVU818
1178:Drivers/STM32G4xx_HAL_Driver/Src/stm32g4xx_hal_rcc.c ****   }
 2716              		.loc 1 1178 33 is_stmt 0 view .LVU819
 2717 00e4 0123     		movs	r3, #1
 2718 00e6 A360     		str	r3, [r4, #8]
 2719 00e8 ACE7     		b	.L255
 2720              	.L256:
1182:Drivers/STM32G4xx_HAL_Driver/Src/stm32g4xx_hal_rcc.c ****   }
 2721              		.loc 1 1182 5 is_stmt 1 view .LVU820
1182:Drivers/STM32G4xx_HAL_Driver/Src/stm32g4xx_hal_rcc.c ****   }
 2722              		.loc 1 1182 33 is_stmt 0 view .LVU821
 2723 00ea 0023     		movs	r3, #0
 2724 00ec A360     		str	r3, [r4, #8]
 2725 00ee A9E7     		b	.L255
 2726              	.L257:
1192:Drivers/STM32G4xx_HAL_Driver/Src/stm32g4xx_hal_rcc.c ****   }
 2727              		.loc 1 1192 5 is_stmt 1 view .LVU822
1192:Drivers/STM32G4xx_HAL_Driver/Src/stm32g4xx_hal_rcc.c ****   }
 2728              		.loc 1 1192 33 is_stmt 0 view .LVU823
 2729 00f0 0023     		movs	r3, #0
 2730 00f2 6361     		str	r3, [r4, #20]
 2731 00f4 AEE7     		b	.L258
 2732              	.L259:
1202:Drivers/STM32G4xx_HAL_Driver/Src/stm32g4xx_hal_rcc.c ****   }
 2733              		.loc 1 1202 5 is_stmt 1 view .LVU824
1202:Drivers/STM32G4xx_HAL_Driver/Src/stm32g4xx_hal_rcc.c ****   }
 2734              		.loc 1 1202 35 is_stmt 0 view .LVU825
 2735 00f6 0023     		movs	r3, #0
 2736 00f8 A361     		str	r3, [r4, #24]
 2737 00fa B3E7     		b	.L260
 2738              	.L261:
1212:Drivers/STM32G4xx_HAL_Driver/Src/stm32g4xx_hal_rcc.c ****   }
 2739              		.loc 1 1212 5 is_stmt 1 view .LVU826
1212:Drivers/STM32G4xx_HAL_Driver/Src/stm32g4xx_hal_rcc.c ****   }
 2740              		.loc 1 1212 37 is_stmt 0 view .LVU827
 2741 00fc 0123     		movs	r3, #1
 2742 00fe E361     		str	r3, [r4, #28]
 2743 0100 B7E7     		b	.L262
 2744              	.L266:
 2745 0102 00BF     		.align	2
 2746              	.L265:
 2747 0104 00100240 		.word	1073876992
 2748 0108 00000000 		.word	.LC0
ARM GAS  /tmp/ccz2x4IP.s 			page 87


 2749              		.cfi_endproc
 2750              	.LFE140:
 2752              		.section	.text.HAL_RCC_GetClockConfig,"ax",%progbits
 2753              		.align	1
 2754              		.global	HAL_RCC_GetClockConfig
 2755              		.syntax unified
 2756              		.thumb
 2757              		.thumb_func
 2758              		.fpu fpv4-sp-d16
 2760              	HAL_RCC_GetClockConfig:
 2761              	.LVL199:
 2762              	.LFB141:
1231:Drivers/STM32G4xx_HAL_Driver/Src/stm32g4xx_hal_rcc.c ****   /* Check the parameters */
 2763              		.loc 1 1231 1 is_stmt 1 view -0
 2764              		.cfi_startproc
 2765              		@ args = 0, pretend = 0, frame = 0
 2766              		@ frame_needed = 0, uses_anonymous_args = 0
1231:Drivers/STM32G4xx_HAL_Driver/Src/stm32g4xx_hal_rcc.c ****   /* Check the parameters */
 2767              		.loc 1 1231 1 is_stmt 0 view .LVU829
 2768 0000 38B5     		push	{r3, r4, r5, lr}
 2769              	.LCFI17:
 2770              		.cfi_def_cfa_offset 16
 2771              		.cfi_offset 3, -16
 2772              		.cfi_offset 4, -12
 2773              		.cfi_offset 5, -8
 2774              		.cfi_offset 14, -4
 2775 0002 0D46     		mov	r5, r1
1233:Drivers/STM32G4xx_HAL_Driver/Src/stm32g4xx_hal_rcc.c ****   assert_param(pFLatency != (void *)NULL);
 2776              		.loc 1 1233 3 is_stmt 1 view .LVU830
 2777 0004 0446     		mov	r4, r0
 2778 0006 D0B1     		cbz	r0, .L271
 2779              	.LVL200:
 2780              	.L268:
1234:Drivers/STM32G4xx_HAL_Driver/Src/stm32g4xx_hal_rcc.c **** 
 2781              		.loc 1 1234 3 view .LVU831
 2782 0008 FDB1     		cbz	r5, .L272
 2783              	.L269:
1237:Drivers/STM32G4xx_HAL_Driver/Src/stm32g4xx_hal_rcc.c **** 
 2784              		.loc 1 1237 3 view .LVU832
1237:Drivers/STM32G4xx_HAL_Driver/Src/stm32g4xx_hal_rcc.c **** 
 2785              		.loc 1 1237 32 is_stmt 0 view .LVU833
 2786 000a 0F23     		movs	r3, #15
 2787 000c 2360     		str	r3, [r4]
1240:Drivers/STM32G4xx_HAL_Driver/Src/stm32g4xx_hal_rcc.c **** 
 2788              		.loc 1 1240 3 is_stmt 1 view .LVU834
1240:Drivers/STM32G4xx_HAL_Driver/Src/stm32g4xx_hal_rcc.c **** 
 2789              		.loc 1 1240 37 is_stmt 0 view .LVU835
 2790 000e 124B     		ldr	r3, .L273
 2791 0010 9A68     		ldr	r2, [r3, #8]
 2792 0012 02F00302 		and	r2, r2, #3
1240:Drivers/STM32G4xx_HAL_Driver/Src/stm32g4xx_hal_rcc.c **** 
 2793              		.loc 1 1240 35 view .LVU836
 2794 0016 6260     		str	r2, [r4, #4]
1243:Drivers/STM32G4xx_HAL_Driver/Src/stm32g4xx_hal_rcc.c **** 
 2795              		.loc 1 1243 3 is_stmt 1 view .LVU837
1243:Drivers/STM32G4xx_HAL_Driver/Src/stm32g4xx_hal_rcc.c **** 
 2796              		.loc 1 1243 38 is_stmt 0 view .LVU838
ARM GAS  /tmp/ccz2x4IP.s 			page 88


 2797 0018 9A68     		ldr	r2, [r3, #8]
 2798 001a 02F0F002 		and	r2, r2, #240
1243:Drivers/STM32G4xx_HAL_Driver/Src/stm32g4xx_hal_rcc.c **** 
 2799              		.loc 1 1243 36 view .LVU839
 2800 001e A260     		str	r2, [r4, #8]
1246:Drivers/STM32G4xx_HAL_Driver/Src/stm32g4xx_hal_rcc.c **** 
 2801              		.loc 1 1246 3 is_stmt 1 view .LVU840
1246:Drivers/STM32G4xx_HAL_Driver/Src/stm32g4xx_hal_rcc.c **** 
 2802              		.loc 1 1246 39 is_stmt 0 view .LVU841
 2803 0020 9A68     		ldr	r2, [r3, #8]
 2804 0022 02F4E062 		and	r2, r2, #1792
1246:Drivers/STM32G4xx_HAL_Driver/Src/stm32g4xx_hal_rcc.c **** 
 2805              		.loc 1 1246 37 view .LVU842
 2806 0026 E260     		str	r2, [r4, #12]
1249:Drivers/STM32G4xx_HAL_Driver/Src/stm32g4xx_hal_rcc.c **** 
 2807              		.loc 1 1249 3 is_stmt 1 view .LVU843
1249:Drivers/STM32G4xx_HAL_Driver/Src/stm32g4xx_hal_rcc.c **** 
 2808              		.loc 1 1249 40 is_stmt 0 view .LVU844
 2809 0028 9B68     		ldr	r3, [r3, #8]
1249:Drivers/STM32G4xx_HAL_Driver/Src/stm32g4xx_hal_rcc.c **** 
 2810              		.loc 1 1249 76 view .LVU845
 2811 002a DB08     		lsrs	r3, r3, #3
 2812 002c 03F4E063 		and	r3, r3, #1792
1249:Drivers/STM32G4xx_HAL_Driver/Src/stm32g4xx_hal_rcc.c **** 
 2813              		.loc 1 1249 37 view .LVU846
 2814 0030 2361     		str	r3, [r4, #16]
1252:Drivers/STM32G4xx_HAL_Driver/Src/stm32g4xx_hal_rcc.c **** }
 2815              		.loc 1 1252 3 is_stmt 1 view .LVU847
1252:Drivers/STM32G4xx_HAL_Driver/Src/stm32g4xx_hal_rcc.c **** }
 2816              		.loc 1 1252 16 is_stmt 0 view .LVU848
 2817 0032 0A4B     		ldr	r3, .L273+4
 2818 0034 1B68     		ldr	r3, [r3]
 2819 0036 03F00F03 		and	r3, r3, #15
1252:Drivers/STM32G4xx_HAL_Driver/Src/stm32g4xx_hal_rcc.c **** }
 2820              		.loc 1 1252 14 view .LVU849
 2821 003a 2B60     		str	r3, [r5]
1253:Drivers/STM32G4xx_HAL_Driver/Src/stm32g4xx_hal_rcc.c **** 
 2822              		.loc 1 1253 1 view .LVU850
 2823 003c 38BD     		pop	{r3, r4, r5, pc}
 2824              	.LVL201:
 2825              	.L271:
1233:Drivers/STM32G4xx_HAL_Driver/Src/stm32g4xx_hal_rcc.c ****   assert_param(pFLatency != (void *)NULL);
 2826              		.loc 1 1233 3 discriminator 1 view .LVU851
 2827 003e 40F2D141 		movw	r1, #1233
 2828              	.LVL202:
1233:Drivers/STM32G4xx_HAL_Driver/Src/stm32g4xx_hal_rcc.c ****   assert_param(pFLatency != (void *)NULL);
 2829              		.loc 1 1233 3 discriminator 1 view .LVU852
 2830 0042 0748     		ldr	r0, .L273+8
 2831              	.LVL203:
1233:Drivers/STM32G4xx_HAL_Driver/Src/stm32g4xx_hal_rcc.c ****   assert_param(pFLatency != (void *)NULL);
 2832              		.loc 1 1233 3 discriminator 1 view .LVU853
 2833 0044 FFF7FEFF 		bl	assert_failed
 2834              	.LVL204:
 2835 0048 DEE7     		b	.L268
 2836              	.L272:
1234:Drivers/STM32G4xx_HAL_Driver/Src/stm32g4xx_hal_rcc.c **** 
 2837              		.loc 1 1234 3 discriminator 1 view .LVU854
ARM GAS  /tmp/ccz2x4IP.s 			page 89


 2838 004a 40F2D241 		movw	r1, #1234
 2839 004e 0448     		ldr	r0, .L273+8
 2840 0050 FFF7FEFF 		bl	assert_failed
 2841              	.LVL205:
 2842 0054 D9E7     		b	.L269
 2843              	.L274:
 2844 0056 00BF     		.align	2
 2845              	.L273:
 2846 0058 00100240 		.word	1073876992
 2847 005c 00200240 		.word	1073881088
 2848 0060 00000000 		.word	.LC0
 2849              		.cfi_endproc
 2850              	.LFE141:
 2852              		.section	.text.HAL_RCC_EnableCSS,"ax",%progbits
 2853              		.align	1
 2854              		.global	HAL_RCC_EnableCSS
 2855              		.syntax unified
 2856              		.thumb
 2857              		.thumb_func
 2858              		.fpu fpv4-sp-d16
 2860              	HAL_RCC_EnableCSS:
 2861              	.LFB142:
1266:Drivers/STM32G4xx_HAL_Driver/Src/stm32g4xx_hal_rcc.c ****   SET_BIT(RCC->CR, RCC_CR_CSSON) ;
 2862              		.loc 1 1266 1 is_stmt 1 view -0
 2863              		.cfi_startproc
 2864              		@ args = 0, pretend = 0, frame = 0
 2865              		@ frame_needed = 0, uses_anonymous_args = 0
 2866              		@ link register save eliminated.
1267:Drivers/STM32G4xx_HAL_Driver/Src/stm32g4xx_hal_rcc.c **** }
 2867              		.loc 1 1267 3 view .LVU856
 2868 0000 024A     		ldr	r2, .L276
 2869 0002 1368     		ldr	r3, [r2]
 2870 0004 43F40023 		orr	r3, r3, #524288
 2871 0008 1360     		str	r3, [r2]
1268:Drivers/STM32G4xx_HAL_Driver/Src/stm32g4xx_hal_rcc.c **** 
 2872              		.loc 1 1268 1 is_stmt 0 view .LVU857
 2873 000a 7047     		bx	lr
 2874              	.L277:
 2875              		.align	2
 2876              	.L276:
 2877 000c 00100240 		.word	1073876992
 2878              		.cfi_endproc
 2879              	.LFE142:
 2881              		.section	.text.HAL_RCC_EnableLSECSS,"ax",%progbits
 2882              		.align	1
 2883              		.global	HAL_RCC_EnableLSECSS
 2884              		.syntax unified
 2885              		.thumb
 2886              		.thumb_func
 2887              		.fpu fpv4-sp-d16
 2889              	HAL_RCC_EnableLSECSS:
 2890              	.LFB143:
1280:Drivers/STM32G4xx_HAL_Driver/Src/stm32g4xx_hal_rcc.c ****   SET_BIT(RCC->BDCR, RCC_BDCR_LSECSSON) ;
 2891              		.loc 1 1280 1 is_stmt 1 view -0
 2892              		.cfi_startproc
 2893              		@ args = 0, pretend = 0, frame = 0
 2894              		@ frame_needed = 0, uses_anonymous_args = 0
ARM GAS  /tmp/ccz2x4IP.s 			page 90


 2895              		@ link register save eliminated.
1281:Drivers/STM32G4xx_HAL_Driver/Src/stm32g4xx_hal_rcc.c **** }
 2896              		.loc 1 1281 3 view .LVU859
 2897 0000 034A     		ldr	r2, .L279
 2898 0002 D2F89030 		ldr	r3, [r2, #144]
 2899 0006 43F02003 		orr	r3, r3, #32
 2900 000a C2F89030 		str	r3, [r2, #144]
1282:Drivers/STM32G4xx_HAL_Driver/Src/stm32g4xx_hal_rcc.c **** 
 2901              		.loc 1 1282 1 is_stmt 0 view .LVU860
 2902 000e 7047     		bx	lr
 2903              	.L280:
 2904              		.align	2
 2905              	.L279:
 2906 0010 00100240 		.word	1073876992
 2907              		.cfi_endproc
 2908              	.LFE143:
 2910              		.section	.text.HAL_RCC_DisableLSECSS,"ax",%progbits
 2911              		.align	1
 2912              		.global	HAL_RCC_DisableLSECSS
 2913              		.syntax unified
 2914              		.thumb
 2915              		.thumb_func
 2916              		.fpu fpv4-sp-d16
 2918              	HAL_RCC_DisableLSECSS:
 2919              	.LFB144:
1291:Drivers/STM32G4xx_HAL_Driver/Src/stm32g4xx_hal_rcc.c ****   CLEAR_BIT(RCC->BDCR, RCC_BDCR_LSECSSON) ;
 2920              		.loc 1 1291 1 is_stmt 1 view -0
 2921              		.cfi_startproc
 2922              		@ args = 0, pretend = 0, frame = 0
 2923              		@ frame_needed = 0, uses_anonymous_args = 0
 2924              		@ link register save eliminated.
1292:Drivers/STM32G4xx_HAL_Driver/Src/stm32g4xx_hal_rcc.c **** }
 2925              		.loc 1 1292 3 view .LVU862
 2926 0000 034A     		ldr	r2, .L282
 2927 0002 D2F89030 		ldr	r3, [r2, #144]
 2928 0006 23F02003 		bic	r3, r3, #32
 2929 000a C2F89030 		str	r3, [r2, #144]
1293:Drivers/STM32G4xx_HAL_Driver/Src/stm32g4xx_hal_rcc.c **** 
 2930              		.loc 1 1293 1 is_stmt 0 view .LVU863
 2931 000e 7047     		bx	lr
 2932              	.L283:
 2933              		.align	2
 2934              	.L282:
 2935 0010 00100240 		.word	1073876992
 2936              		.cfi_endproc
 2937              	.LFE144:
 2939              		.section	.text.HAL_RCC_CSSCallback,"ax",%progbits
 2940              		.align	1
 2941              		.weak	HAL_RCC_CSSCallback
 2942              		.syntax unified
 2943              		.thumb
 2944              		.thumb_func
 2945              		.fpu fpv4-sp-d16
 2947              	HAL_RCC_CSSCallback:
 2948              	.LFB146:
1318:Drivers/STM32G4xx_HAL_Driver/Src/stm32g4xx_hal_rcc.c ****   /* NOTE : This function should not be modified, when the callback is needed,
 2949              		.loc 1 1318 1 is_stmt 1 view -0
ARM GAS  /tmp/ccz2x4IP.s 			page 91


 2950              		.cfi_startproc
 2951              		@ args = 0, pretend = 0, frame = 0
 2952              		@ frame_needed = 0, uses_anonymous_args = 0
 2953              		@ link register save eliminated.
1322:Drivers/STM32G4xx_HAL_Driver/Src/stm32g4xx_hal_rcc.c **** 
 2954              		.loc 1 1322 1 view .LVU865
 2955 0000 7047     		bx	lr
 2956              		.cfi_endproc
 2957              	.LFE146:
 2959              		.section	.text.HAL_RCC_NMI_IRQHandler,"ax",%progbits
 2960              		.align	1
 2961              		.global	HAL_RCC_NMI_IRQHandler
 2962              		.syntax unified
 2963              		.thumb
 2964              		.thumb_func
 2965              		.fpu fpv4-sp-d16
 2967              	HAL_RCC_NMI_IRQHandler:
 2968              	.LFB145:
1301:Drivers/STM32G4xx_HAL_Driver/Src/stm32g4xx_hal_rcc.c ****   /* Check RCC CSSF interrupt flag  */
 2969              		.loc 1 1301 1 view -0
 2970              		.cfi_startproc
 2971              		@ args = 0, pretend = 0, frame = 0
 2972              		@ frame_needed = 0, uses_anonymous_args = 0
 2973 0000 08B5     		push	{r3, lr}
 2974              	.LCFI18:
 2975              		.cfi_def_cfa_offset 8
 2976              		.cfi_offset 3, -8
 2977              		.cfi_offset 14, -4
1303:Drivers/STM32G4xx_HAL_Driver/Src/stm32g4xx_hal_rcc.c ****   {
 2978              		.loc 1 1303 3 view .LVU867
1303:Drivers/STM32G4xx_HAL_Driver/Src/stm32g4xx_hal_rcc.c ****   {
 2979              		.loc 1 1303 6 is_stmt 0 view .LVU868
 2980 0002 064B     		ldr	r3, .L289
 2981 0004 DB69     		ldr	r3, [r3, #28]
1303:Drivers/STM32G4xx_HAL_Driver/Src/stm32g4xx_hal_rcc.c ****   {
 2982              		.loc 1 1303 5 view .LVU869
 2983 0006 13F4807F 		tst	r3, #256
 2984 000a 00D1     		bne	.L288
 2985              	.L285:
1311:Drivers/STM32G4xx_HAL_Driver/Src/stm32g4xx_hal_rcc.c **** 
 2986              		.loc 1 1311 1 view .LVU870
 2987 000c 08BD     		pop	{r3, pc}
 2988              	.L288:
1306:Drivers/STM32G4xx_HAL_Driver/Src/stm32g4xx_hal_rcc.c **** 
 2989              		.loc 1 1306 5 is_stmt 1 view .LVU871
 2990 000e FFF7FEFF 		bl	HAL_RCC_CSSCallback
 2991              	.LVL206:
1309:Drivers/STM32G4xx_HAL_Driver/Src/stm32g4xx_hal_rcc.c ****   }
 2992              		.loc 1 1309 5 view .LVU872
 2993 0012 024B     		ldr	r3, .L289
 2994 0014 4FF48072 		mov	r2, #256
 2995 0018 1A62     		str	r2, [r3, #32]
1311:Drivers/STM32G4xx_HAL_Driver/Src/stm32g4xx_hal_rcc.c **** 
 2996              		.loc 1 1311 1 is_stmt 0 view .LVU873
 2997 001a F7E7     		b	.L285
 2998              	.L290:
 2999              		.align	2
ARM GAS  /tmp/ccz2x4IP.s 			page 92


 3000              	.L289:
 3001 001c 00100240 		.word	1073876992
 3002              		.cfi_endproc
 3003              	.LFE145:
 3005              		.text
 3006              	.Letext0:
 3007              		.file 2 "/home/key/github/STM-Linux/gcc-arm-none-eabi-9-2020-q2-update/arm-none-eabi/include/machi
 3008              		.file 3 "/home/key/github/STM-Linux/gcc-arm-none-eabi-9-2020-q2-update/arm-none-eabi/include/sys/_
 3009              		.file 4 "Drivers/CMSIS/Include/core_cm4.h"
 3010              		.file 5 "Drivers/CMSIS/Device/ST/STM32G4xx/Include/system_stm32g4xx.h"
 3011              		.file 6 "Drivers/CMSIS/Device/ST/STM32G4xx/Include/stm32g474xx.h"
 3012              		.file 7 "Drivers/CMSIS/Device/ST/STM32G4xx/Include/stm32g4xx.h"
 3013              		.file 8 "Drivers/STM32G4xx_HAL_Driver/Inc/stm32g4xx_hal_def.h"
 3014              		.file 9 "Drivers/STM32G4xx_HAL_Driver/Inc/stm32g4xx_hal_rcc.h"
 3015              		.file 10 "Drivers/STM32G4xx_HAL_Driver/Inc/stm32g4xx_hal_gpio.h"
 3016              		.file 11 "Drivers/STM32G4xx_HAL_Driver/Inc/stm32g4xx_hal_flash.h"
 3017              		.file 12 "Drivers/STM32G4xx_HAL_Driver/Inc/stm32g4xx_hal_uart.h"
 3018              		.file 13 "Drivers/STM32G4xx_HAL_Driver/Inc/stm32g4xx_hal.h"
 3019              		.file 14 "Core/Inc/stm32g4xx_hal_conf.h"
ARM GAS  /tmp/ccz2x4IP.s 			page 93


DEFINED SYMBOLS
                            *ABS*:0000000000000000 stm32g4xx_hal_rcc.c
     /tmp/ccz2x4IP.s:18     .text.RCC_GetSysClockFreqFromPLLSource:0000000000000000 $t
     /tmp/ccz2x4IP.s:25     .text.RCC_GetSysClockFreqFromPLLSource:0000000000000000 RCC_GetSysClockFreqFromPLLSource
     /tmp/ccz2x4IP.s:109    .text.RCC_GetSysClockFreqFromPLLSource:000000000000004c $d
     /tmp/ccz2x4IP.s:116    .text.HAL_RCC_DeInit:0000000000000000 $t
     /tmp/ccz2x4IP.s:123    .text.HAL_RCC_DeInit:0000000000000000 HAL_RCC_DeInit
     /tmp/ccz2x4IP.s:296    .text.HAL_RCC_DeInit:00000000000000bc $d
     /tmp/ccz2x4IP.s:304    .rodata.HAL_RCC_OscConfig.str1.4:0000000000000000 $d
     /tmp/ccz2x4IP.s:309    .text.HAL_RCC_OscConfig:0000000000000000 $t
     /tmp/ccz2x4IP.s:316    .text.HAL_RCC_OscConfig:0000000000000000 HAL_RCC_OscConfig
     /tmp/ccz2x4IP.s:929    .text.HAL_RCC_OscConfig:00000000000002f8 $d
     /tmp/ccz2x4IP.s:936    .text.HAL_RCC_OscConfig:0000000000000308 $t
     /tmp/ccz2x4IP.s:1400   .text.HAL_RCC_OscConfig:0000000000000598 $d
     /tmp/ccz2x4IP.s:1408   .text.HAL_RCC_OscConfig:00000000000005a8 $t
     /tmp/ccz2x4IP.s:1549   .text.HAL_RCC_OscConfig:0000000000000638 $d
     /tmp/ccz2x4IP.s:1554   .text.HAL_RCC_MCOConfig:0000000000000000 $t
     /tmp/ccz2x4IP.s:1561   .text.HAL_RCC_MCOConfig:0000000000000000 HAL_RCC_MCOConfig
     /tmp/ccz2x4IP.s:1714   .text.HAL_RCC_MCOConfig:00000000000000b8 $d
     /tmp/ccz2x4IP.s:1720   .text.HAL_RCC_GetSysClockFreq:0000000000000000 $t
     /tmp/ccz2x4IP.s:1727   .text.HAL_RCC_GetSysClockFreq:0000000000000000 HAL_RCC_GetSysClockFreq
     /tmp/ccz2x4IP.s:1850   .text.HAL_RCC_GetSysClockFreq:000000000000007c $d
     /tmp/ccz2x4IP.s:1857   .text.HAL_RCC_ClockConfig:0000000000000000 $t
     /tmp/ccz2x4IP.s:1864   .text.HAL_RCC_ClockConfig:0000000000000000 HAL_RCC_ClockConfig
     /tmp/ccz2x4IP.s:2383   .text.HAL_RCC_ClockConfig:000000000000029c $d
     /tmp/ccz2x4IP.s:2394   .text.HAL_RCC_GetHCLKFreq:0000000000000000 $t
     /tmp/ccz2x4IP.s:2401   .text.HAL_RCC_GetHCLKFreq:0000000000000000 HAL_RCC_GetHCLKFreq
     /tmp/ccz2x4IP.s:2416   .text.HAL_RCC_GetHCLKFreq:0000000000000008 $d
     /tmp/ccz2x4IP.s:2421   .text.HAL_RCC_GetPCLK1Freq:0000000000000000 $t
     /tmp/ccz2x4IP.s:2428   .text.HAL_RCC_GetPCLK1Freq:0000000000000000 HAL_RCC_GetPCLK1Freq
     /tmp/ccz2x4IP.s:2459   .text.HAL_RCC_GetPCLK1Freq:000000000000001c $d
     /tmp/ccz2x4IP.s:2465   .text.HAL_RCC_GetPCLK2Freq:0000000000000000 $t
     /tmp/ccz2x4IP.s:2472   .text.HAL_RCC_GetPCLK2Freq:0000000000000000 HAL_RCC_GetPCLK2Freq
     /tmp/ccz2x4IP.s:2503   .text.HAL_RCC_GetPCLK2Freq:000000000000001c $d
     /tmp/ccz2x4IP.s:2509   .text.HAL_RCC_GetOscConfig:0000000000000000 $t
     /tmp/ccz2x4IP.s:2516   .text.HAL_RCC_GetOscConfig:0000000000000000 HAL_RCC_GetOscConfig
     /tmp/ccz2x4IP.s:2747   .text.HAL_RCC_GetOscConfig:0000000000000104 $d
     /tmp/ccz2x4IP.s:2753   .text.HAL_RCC_GetClockConfig:0000000000000000 $t
     /tmp/ccz2x4IP.s:2760   .text.HAL_RCC_GetClockConfig:0000000000000000 HAL_RCC_GetClockConfig
     /tmp/ccz2x4IP.s:2846   .text.HAL_RCC_GetClockConfig:0000000000000058 $d
     /tmp/ccz2x4IP.s:2853   .text.HAL_RCC_EnableCSS:0000000000000000 $t
     /tmp/ccz2x4IP.s:2860   .text.HAL_RCC_EnableCSS:0000000000000000 HAL_RCC_EnableCSS
     /tmp/ccz2x4IP.s:2877   .text.HAL_RCC_EnableCSS:000000000000000c $d
     /tmp/ccz2x4IP.s:2882   .text.HAL_RCC_EnableLSECSS:0000000000000000 $t
     /tmp/ccz2x4IP.s:2889   .text.HAL_RCC_EnableLSECSS:0000000000000000 HAL_RCC_EnableLSECSS
     /tmp/ccz2x4IP.s:2906   .text.HAL_RCC_EnableLSECSS:0000000000000010 $d
     /tmp/ccz2x4IP.s:2911   .text.HAL_RCC_DisableLSECSS:0000000000000000 $t
     /tmp/ccz2x4IP.s:2918   .text.HAL_RCC_DisableLSECSS:0000000000000000 HAL_RCC_DisableLSECSS
     /tmp/ccz2x4IP.s:2935   .text.HAL_RCC_DisableLSECSS:0000000000000010 $d
     /tmp/ccz2x4IP.s:2940   .text.HAL_RCC_CSSCallback:0000000000000000 $t
     /tmp/ccz2x4IP.s:2947   .text.HAL_RCC_CSSCallback:0000000000000000 HAL_RCC_CSSCallback
     /tmp/ccz2x4IP.s:2960   .text.HAL_RCC_NMI_IRQHandler:0000000000000000 $t
     /tmp/ccz2x4IP.s:2967   .text.HAL_RCC_NMI_IRQHandler:0000000000000000 HAL_RCC_NMI_IRQHandler
     /tmp/ccz2x4IP.s:3001   .text.HAL_RCC_NMI_IRQHandler:000000000000001c $d

UNDEFINED SYMBOLS
HAL_GetTick
ARM GAS  /tmp/ccz2x4IP.s 			page 94


HAL_InitTick
SystemCoreClock
uwTickPrio
assert_failed
HAL_GPIO_Init
AHBPrescTable
APBPrescTable
