ARM GAS  /tmp/ccbMW3Yu.s 			page 1


   1              		.cpu cortex-m4
   2              		.eabi_attribute 27, 1
   3              		.eabi_attribute 28, 1
   4              		.eabi_attribute 20, 1
   5              		.eabi_attribute 21, 1
   6              		.eabi_attribute 23, 3
   7              		.eabi_attribute 24, 1
   8              		.eabi_attribute 25, 1
   9              		.eabi_attribute 26, 1
  10              		.eabi_attribute 30, 1
  11              		.eabi_attribute 34, 1
  12              		.eabi_attribute 18, 4
  13              		.file	"stm32g4xx_hal_uart_ex.c"
  14              		.text
  15              	.Ltext0:
  16              		.cfi_sections	.debug_frame
  17              		.section	.rodata.UARTEx_SetNbDataToProcess.str1.4,"aMS",%progbits,1
  18              		.align	2
  19              	.LC1:
  20 0000 08040204 		.ascii	"\010\004\002\004\010\001\001\001\000"
  20      08010101 
  20      00
  21              		.section	.text.UARTEx_SetNbDataToProcess,"ax",%progbits
  22              		.align	1
  23              		.arch armv7e-m
  24              		.syntax unified
  25              		.thumb
  26              		.thumb_func
  27              		.fpu fpv4-sp-d16
  29              	UARTEx_SetNbDataToProcess:
  30              	.LVL0:
  31              	.LFB145:
  32              		.file 1 "Drivers/STM32G4xx_HAL_Driver/Src/stm32g4xx_hal_uart_ex.c"
   1:Drivers/STM32G4xx_HAL_Driver/Src/stm32g4xx_hal_uart_ex.c **** /**
   2:Drivers/STM32G4xx_HAL_Driver/Src/stm32g4xx_hal_uart_ex.c ****   ******************************************************************************
   3:Drivers/STM32G4xx_HAL_Driver/Src/stm32g4xx_hal_uart_ex.c ****   * @file    stm32g4xx_hal_uart_ex.c
   4:Drivers/STM32G4xx_HAL_Driver/Src/stm32g4xx_hal_uart_ex.c ****   * @author  MCD Application Team
   5:Drivers/STM32G4xx_HAL_Driver/Src/stm32g4xx_hal_uart_ex.c ****   * @brief   Extended UART HAL module driver.
   6:Drivers/STM32G4xx_HAL_Driver/Src/stm32g4xx_hal_uart_ex.c ****   *          This file provides firmware functions to manage the following extended
   7:Drivers/STM32G4xx_HAL_Driver/Src/stm32g4xx_hal_uart_ex.c ****   *          functionalities of the Universal Asynchronous Receiver Transmitter Peripheral (UART).
   8:Drivers/STM32G4xx_HAL_Driver/Src/stm32g4xx_hal_uart_ex.c ****   *           + Initialization and de-initialization functions
   9:Drivers/STM32G4xx_HAL_Driver/Src/stm32g4xx_hal_uart_ex.c ****   *           + Peripheral Control functions
  10:Drivers/STM32G4xx_HAL_Driver/Src/stm32g4xx_hal_uart_ex.c ****   *
  11:Drivers/STM32G4xx_HAL_Driver/Src/stm32g4xx_hal_uart_ex.c ****   *
  12:Drivers/STM32G4xx_HAL_Driver/Src/stm32g4xx_hal_uart_ex.c ****   @verbatim
  13:Drivers/STM32G4xx_HAL_Driver/Src/stm32g4xx_hal_uart_ex.c ****   ==============================================================================
  14:Drivers/STM32G4xx_HAL_Driver/Src/stm32g4xx_hal_uart_ex.c ****                ##### UART peripheral extended features  #####
  15:Drivers/STM32G4xx_HAL_Driver/Src/stm32g4xx_hal_uart_ex.c ****   ==============================================================================
  16:Drivers/STM32G4xx_HAL_Driver/Src/stm32g4xx_hal_uart_ex.c **** 
  17:Drivers/STM32G4xx_HAL_Driver/Src/stm32g4xx_hal_uart_ex.c ****     (#) Declare a UART_HandleTypeDef handle structure.
  18:Drivers/STM32G4xx_HAL_Driver/Src/stm32g4xx_hal_uart_ex.c **** 
  19:Drivers/STM32G4xx_HAL_Driver/Src/stm32g4xx_hal_uart_ex.c ****     (#) For the UART RS485 Driver Enable mode, initialize the UART registers
  20:Drivers/STM32G4xx_HAL_Driver/Src/stm32g4xx_hal_uart_ex.c ****         by calling the HAL_RS485Ex_Init() API.
  21:Drivers/STM32G4xx_HAL_Driver/Src/stm32g4xx_hal_uart_ex.c **** 
  22:Drivers/STM32G4xx_HAL_Driver/Src/stm32g4xx_hal_uart_ex.c ****     (#) FIFO mode enabling/disabling and RX/TX FIFO threshold programming.
  23:Drivers/STM32G4xx_HAL_Driver/Src/stm32g4xx_hal_uart_ex.c **** 
  24:Drivers/STM32G4xx_HAL_Driver/Src/stm32g4xx_hal_uart_ex.c ****         -@- When UART operates in FIFO mode, FIFO mode must be enabled prior
ARM GAS  /tmp/ccbMW3Yu.s 			page 2


  25:Drivers/STM32G4xx_HAL_Driver/Src/stm32g4xx_hal_uart_ex.c ****             starting RX/TX transfers. Also RX/TX FIFO thresholds must be
  26:Drivers/STM32G4xx_HAL_Driver/Src/stm32g4xx_hal_uart_ex.c ****             configured prior starting RX/TX transfers.
  27:Drivers/STM32G4xx_HAL_Driver/Src/stm32g4xx_hal_uart_ex.c **** 
  28:Drivers/STM32G4xx_HAL_Driver/Src/stm32g4xx_hal_uart_ex.c ****   @endverbatim
  29:Drivers/STM32G4xx_HAL_Driver/Src/stm32g4xx_hal_uart_ex.c ****   ******************************************************************************
  30:Drivers/STM32G4xx_HAL_Driver/Src/stm32g4xx_hal_uart_ex.c ****   * @attention
  31:Drivers/STM32G4xx_HAL_Driver/Src/stm32g4xx_hal_uart_ex.c ****   *
  32:Drivers/STM32G4xx_HAL_Driver/Src/stm32g4xx_hal_uart_ex.c ****   * <h2><center>&copy; Copyright (c) 2019 STMicroelectronics.
  33:Drivers/STM32G4xx_HAL_Driver/Src/stm32g4xx_hal_uart_ex.c ****   * All rights reserved.</center></h2>
  34:Drivers/STM32G4xx_HAL_Driver/Src/stm32g4xx_hal_uart_ex.c ****   *
  35:Drivers/STM32G4xx_HAL_Driver/Src/stm32g4xx_hal_uart_ex.c ****   * This software component is licensed by ST under BSD 3-Clause license,
  36:Drivers/STM32G4xx_HAL_Driver/Src/stm32g4xx_hal_uart_ex.c ****   * the "License"; You may not use this file except in compliance with the
  37:Drivers/STM32G4xx_HAL_Driver/Src/stm32g4xx_hal_uart_ex.c ****   * License. You may obtain a copy of the License at:
  38:Drivers/STM32G4xx_HAL_Driver/Src/stm32g4xx_hal_uart_ex.c ****   *                        opensource.org/licenses/BSD-3-Clause
  39:Drivers/STM32G4xx_HAL_Driver/Src/stm32g4xx_hal_uart_ex.c ****   *
  40:Drivers/STM32G4xx_HAL_Driver/Src/stm32g4xx_hal_uart_ex.c ****   ******************************************************************************
  41:Drivers/STM32G4xx_HAL_Driver/Src/stm32g4xx_hal_uart_ex.c ****   */
  42:Drivers/STM32G4xx_HAL_Driver/Src/stm32g4xx_hal_uart_ex.c **** 
  43:Drivers/STM32G4xx_HAL_Driver/Src/stm32g4xx_hal_uart_ex.c **** /* Includes ------------------------------------------------------------------*/
  44:Drivers/STM32G4xx_HAL_Driver/Src/stm32g4xx_hal_uart_ex.c **** #include "stm32g4xx_hal.h"
  45:Drivers/STM32G4xx_HAL_Driver/Src/stm32g4xx_hal_uart_ex.c **** 
  46:Drivers/STM32G4xx_HAL_Driver/Src/stm32g4xx_hal_uart_ex.c **** /** @addtogroup STM32G4xx_HAL_Driver
  47:Drivers/STM32G4xx_HAL_Driver/Src/stm32g4xx_hal_uart_ex.c ****   * @{
  48:Drivers/STM32G4xx_HAL_Driver/Src/stm32g4xx_hal_uart_ex.c ****   */
  49:Drivers/STM32G4xx_HAL_Driver/Src/stm32g4xx_hal_uart_ex.c **** 
  50:Drivers/STM32G4xx_HAL_Driver/Src/stm32g4xx_hal_uart_ex.c **** /** @defgroup UARTEx UARTEx
  51:Drivers/STM32G4xx_HAL_Driver/Src/stm32g4xx_hal_uart_ex.c ****   * @brief UART Extended HAL module driver
  52:Drivers/STM32G4xx_HAL_Driver/Src/stm32g4xx_hal_uart_ex.c ****   * @{
  53:Drivers/STM32G4xx_HAL_Driver/Src/stm32g4xx_hal_uart_ex.c ****   */
  54:Drivers/STM32G4xx_HAL_Driver/Src/stm32g4xx_hal_uart_ex.c **** 
  55:Drivers/STM32G4xx_HAL_Driver/Src/stm32g4xx_hal_uart_ex.c **** #ifdef HAL_UART_MODULE_ENABLED
  56:Drivers/STM32G4xx_HAL_Driver/Src/stm32g4xx_hal_uart_ex.c **** 
  57:Drivers/STM32G4xx_HAL_Driver/Src/stm32g4xx_hal_uart_ex.c **** /* Private typedef -----------------------------------------------------------*/
  58:Drivers/STM32G4xx_HAL_Driver/Src/stm32g4xx_hal_uart_ex.c **** /* Private define ------------------------------------------------------------*/
  59:Drivers/STM32G4xx_HAL_Driver/Src/stm32g4xx_hal_uart_ex.c **** /** @defgroup UARTEX_Private_Constants UARTEx Private Constants
  60:Drivers/STM32G4xx_HAL_Driver/Src/stm32g4xx_hal_uart_ex.c ****   * @{
  61:Drivers/STM32G4xx_HAL_Driver/Src/stm32g4xx_hal_uart_ex.c ****   */
  62:Drivers/STM32G4xx_HAL_Driver/Src/stm32g4xx_hal_uart_ex.c **** /* UART RX FIFO depth */
  63:Drivers/STM32G4xx_HAL_Driver/Src/stm32g4xx_hal_uart_ex.c **** #define RX_FIFO_DEPTH 8U
  64:Drivers/STM32G4xx_HAL_Driver/Src/stm32g4xx_hal_uart_ex.c **** 
  65:Drivers/STM32G4xx_HAL_Driver/Src/stm32g4xx_hal_uart_ex.c **** /* UART TX FIFO depth */
  66:Drivers/STM32G4xx_HAL_Driver/Src/stm32g4xx_hal_uart_ex.c **** #define TX_FIFO_DEPTH 8U
  67:Drivers/STM32G4xx_HAL_Driver/Src/stm32g4xx_hal_uart_ex.c **** /**
  68:Drivers/STM32G4xx_HAL_Driver/Src/stm32g4xx_hal_uart_ex.c ****   * @}
  69:Drivers/STM32G4xx_HAL_Driver/Src/stm32g4xx_hal_uart_ex.c ****   */
  70:Drivers/STM32G4xx_HAL_Driver/Src/stm32g4xx_hal_uart_ex.c **** 
  71:Drivers/STM32G4xx_HAL_Driver/Src/stm32g4xx_hal_uart_ex.c **** /* Private macros ------------------------------------------------------------*/
  72:Drivers/STM32G4xx_HAL_Driver/Src/stm32g4xx_hal_uart_ex.c **** /* Private variables ---------------------------------------------------------*/
  73:Drivers/STM32G4xx_HAL_Driver/Src/stm32g4xx_hal_uart_ex.c **** /* Private function prototypes -----------------------------------------------*/
  74:Drivers/STM32G4xx_HAL_Driver/Src/stm32g4xx_hal_uart_ex.c **** /** @defgroup UARTEx_Private_Functions UARTEx Private Functions
  75:Drivers/STM32G4xx_HAL_Driver/Src/stm32g4xx_hal_uart_ex.c ****   * @{
  76:Drivers/STM32G4xx_HAL_Driver/Src/stm32g4xx_hal_uart_ex.c ****   */
  77:Drivers/STM32G4xx_HAL_Driver/Src/stm32g4xx_hal_uart_ex.c **** static void UARTEx_Wakeup_AddressConfig(UART_HandleTypeDef *huart, UART_WakeUpTypeDef WakeUpSelecti
  78:Drivers/STM32G4xx_HAL_Driver/Src/stm32g4xx_hal_uart_ex.c **** static void UARTEx_SetNbDataToProcess(UART_HandleTypeDef *huart);
  79:Drivers/STM32G4xx_HAL_Driver/Src/stm32g4xx_hal_uart_ex.c **** /**
  80:Drivers/STM32G4xx_HAL_Driver/Src/stm32g4xx_hal_uart_ex.c ****   * @}
  81:Drivers/STM32G4xx_HAL_Driver/Src/stm32g4xx_hal_uart_ex.c ****   */
ARM GAS  /tmp/ccbMW3Yu.s 			page 3


  82:Drivers/STM32G4xx_HAL_Driver/Src/stm32g4xx_hal_uart_ex.c **** 
  83:Drivers/STM32G4xx_HAL_Driver/Src/stm32g4xx_hal_uart_ex.c **** /* Exported functions --------------------------------------------------------*/
  84:Drivers/STM32G4xx_HAL_Driver/Src/stm32g4xx_hal_uart_ex.c **** 
  85:Drivers/STM32G4xx_HAL_Driver/Src/stm32g4xx_hal_uart_ex.c **** /** @defgroup UARTEx_Exported_Functions  UARTEx Exported Functions
  86:Drivers/STM32G4xx_HAL_Driver/Src/stm32g4xx_hal_uart_ex.c ****   * @{
  87:Drivers/STM32G4xx_HAL_Driver/Src/stm32g4xx_hal_uart_ex.c ****   */
  88:Drivers/STM32G4xx_HAL_Driver/Src/stm32g4xx_hal_uart_ex.c **** 
  89:Drivers/STM32G4xx_HAL_Driver/Src/stm32g4xx_hal_uart_ex.c **** /** @defgroup UARTEx_Exported_Functions_Group1 Initialization and de-initialization functions
  90:Drivers/STM32G4xx_HAL_Driver/Src/stm32g4xx_hal_uart_ex.c ****   * @brief    Extended Initialization and Configuration Functions
  91:Drivers/STM32G4xx_HAL_Driver/Src/stm32g4xx_hal_uart_ex.c ****   *
  92:Drivers/STM32G4xx_HAL_Driver/Src/stm32g4xx_hal_uart_ex.c **** @verbatim
  93:Drivers/STM32G4xx_HAL_Driver/Src/stm32g4xx_hal_uart_ex.c **** ===============================================================================
  94:Drivers/STM32G4xx_HAL_Driver/Src/stm32g4xx_hal_uart_ex.c ****             ##### Initialization and Configuration functions #####
  95:Drivers/STM32G4xx_HAL_Driver/Src/stm32g4xx_hal_uart_ex.c ****  ===============================================================================
  96:Drivers/STM32G4xx_HAL_Driver/Src/stm32g4xx_hal_uart_ex.c ****     [..]
  97:Drivers/STM32G4xx_HAL_Driver/Src/stm32g4xx_hal_uart_ex.c ****     This subsection provides a set of functions allowing to initialize the USARTx or the UARTy
  98:Drivers/STM32G4xx_HAL_Driver/Src/stm32g4xx_hal_uart_ex.c ****     in asynchronous mode.
  99:Drivers/STM32G4xx_HAL_Driver/Src/stm32g4xx_hal_uart_ex.c ****       (+) For the asynchronous mode the parameters below can be configured:
 100:Drivers/STM32G4xx_HAL_Driver/Src/stm32g4xx_hal_uart_ex.c ****         (++) Baud Rate
 101:Drivers/STM32G4xx_HAL_Driver/Src/stm32g4xx_hal_uart_ex.c ****         (++) Word Length
 102:Drivers/STM32G4xx_HAL_Driver/Src/stm32g4xx_hal_uart_ex.c ****         (++) Stop Bit
 103:Drivers/STM32G4xx_HAL_Driver/Src/stm32g4xx_hal_uart_ex.c ****         (++) Parity: If the parity is enabled, then the MSB bit of the data written
 104:Drivers/STM32G4xx_HAL_Driver/Src/stm32g4xx_hal_uart_ex.c ****              in the data register is transmitted but is changed by the parity bit.
 105:Drivers/STM32G4xx_HAL_Driver/Src/stm32g4xx_hal_uart_ex.c ****         (++) Hardware flow control
 106:Drivers/STM32G4xx_HAL_Driver/Src/stm32g4xx_hal_uart_ex.c ****         (++) Receiver/transmitter modes
 107:Drivers/STM32G4xx_HAL_Driver/Src/stm32g4xx_hal_uart_ex.c ****         (++) Over Sampling Method
 108:Drivers/STM32G4xx_HAL_Driver/Src/stm32g4xx_hal_uart_ex.c ****         (++) One-Bit Sampling Method
 109:Drivers/STM32G4xx_HAL_Driver/Src/stm32g4xx_hal_uart_ex.c ****       (+) For the asynchronous mode, the following advanced features can be configured as well:
 110:Drivers/STM32G4xx_HAL_Driver/Src/stm32g4xx_hal_uart_ex.c ****         (++) TX and/or RX pin level inversion
 111:Drivers/STM32G4xx_HAL_Driver/Src/stm32g4xx_hal_uart_ex.c ****         (++) data logical level inversion
 112:Drivers/STM32G4xx_HAL_Driver/Src/stm32g4xx_hal_uart_ex.c ****         (++) RX and TX pins swap
 113:Drivers/STM32G4xx_HAL_Driver/Src/stm32g4xx_hal_uart_ex.c ****         (++) RX overrun detection disabling
 114:Drivers/STM32G4xx_HAL_Driver/Src/stm32g4xx_hal_uart_ex.c ****         (++) DMA disabling on RX error
 115:Drivers/STM32G4xx_HAL_Driver/Src/stm32g4xx_hal_uart_ex.c ****         (++) MSB first on communication line
 116:Drivers/STM32G4xx_HAL_Driver/Src/stm32g4xx_hal_uart_ex.c ****         (++) auto Baud rate detection
 117:Drivers/STM32G4xx_HAL_Driver/Src/stm32g4xx_hal_uart_ex.c ****     [..]
 118:Drivers/STM32G4xx_HAL_Driver/Src/stm32g4xx_hal_uart_ex.c ****     The HAL_RS485Ex_Init() API follows the UART RS485 mode configuration
 119:Drivers/STM32G4xx_HAL_Driver/Src/stm32g4xx_hal_uart_ex.c ****      procedures (details for the procedures are available in reference manual).
 120:Drivers/STM32G4xx_HAL_Driver/Src/stm32g4xx_hal_uart_ex.c **** 
 121:Drivers/STM32G4xx_HAL_Driver/Src/stm32g4xx_hal_uart_ex.c **** @endverbatim
 122:Drivers/STM32G4xx_HAL_Driver/Src/stm32g4xx_hal_uart_ex.c **** 
 123:Drivers/STM32G4xx_HAL_Driver/Src/stm32g4xx_hal_uart_ex.c ****   Depending on the frame length defined by the M1 and M0 bits (7-bit,
 124:Drivers/STM32G4xx_HAL_Driver/Src/stm32g4xx_hal_uart_ex.c ****   8-bit or 9-bit), the possible UART formats are listed in the
 125:Drivers/STM32G4xx_HAL_Driver/Src/stm32g4xx_hal_uart_ex.c ****   following table.
 126:Drivers/STM32G4xx_HAL_Driver/Src/stm32g4xx_hal_uart_ex.c **** 
 127:Drivers/STM32G4xx_HAL_Driver/Src/stm32g4xx_hal_uart_ex.c ****     Table 1. UART frame format.
 128:Drivers/STM32G4xx_HAL_Driver/Src/stm32g4xx_hal_uart_ex.c ****     +-----------------------------------------------------------------------+
 129:Drivers/STM32G4xx_HAL_Driver/Src/stm32g4xx_hal_uart_ex.c ****     |  M1 bit |  M0 bit |  PCE bit  |             UART frame                |
 130:Drivers/STM32G4xx_HAL_Driver/Src/stm32g4xx_hal_uart_ex.c ****     |---------|---------|-----------|---------------------------------------|
 131:Drivers/STM32G4xx_HAL_Driver/Src/stm32g4xx_hal_uart_ex.c ****     |    0    |    0    |    0      |    | SB |    8 bit data   | STB |     |
 132:Drivers/STM32G4xx_HAL_Driver/Src/stm32g4xx_hal_uart_ex.c ****     |---------|---------|-----------|---------------------------------------|
 133:Drivers/STM32G4xx_HAL_Driver/Src/stm32g4xx_hal_uart_ex.c ****     |    0    |    0    |    1      |    | SB | 7 bit data | PB | STB |     |
 134:Drivers/STM32G4xx_HAL_Driver/Src/stm32g4xx_hal_uart_ex.c ****     |---------|---------|-----------|---------------------------------------|
 135:Drivers/STM32G4xx_HAL_Driver/Src/stm32g4xx_hal_uart_ex.c ****     |    0    |    1    |    0      |    | SB |    9 bit data   | STB |     |
 136:Drivers/STM32G4xx_HAL_Driver/Src/stm32g4xx_hal_uart_ex.c ****     |---------|---------|-----------|---------------------------------------|
 137:Drivers/STM32G4xx_HAL_Driver/Src/stm32g4xx_hal_uart_ex.c ****     |    0    |    1    |    1      |    | SB | 8 bit data | PB | STB |     |
 138:Drivers/STM32G4xx_HAL_Driver/Src/stm32g4xx_hal_uart_ex.c ****     |---------|---------|-----------|---------------------------------------|
ARM GAS  /tmp/ccbMW3Yu.s 			page 4


 139:Drivers/STM32G4xx_HAL_Driver/Src/stm32g4xx_hal_uart_ex.c ****     |    1    |    0    |    0      |    | SB |    7 bit data   | STB |     |
 140:Drivers/STM32G4xx_HAL_Driver/Src/stm32g4xx_hal_uart_ex.c ****     |---------|---------|-----------|---------------------------------------|
 141:Drivers/STM32G4xx_HAL_Driver/Src/stm32g4xx_hal_uart_ex.c ****     |    1    |    0    |    1      |    | SB | 6 bit data | PB | STB |     |
 142:Drivers/STM32G4xx_HAL_Driver/Src/stm32g4xx_hal_uart_ex.c ****     +-----------------------------------------------------------------------+
 143:Drivers/STM32G4xx_HAL_Driver/Src/stm32g4xx_hal_uart_ex.c **** 
 144:Drivers/STM32G4xx_HAL_Driver/Src/stm32g4xx_hal_uart_ex.c ****   * @{
 145:Drivers/STM32G4xx_HAL_Driver/Src/stm32g4xx_hal_uart_ex.c ****   */
 146:Drivers/STM32G4xx_HAL_Driver/Src/stm32g4xx_hal_uart_ex.c **** 
 147:Drivers/STM32G4xx_HAL_Driver/Src/stm32g4xx_hal_uart_ex.c **** /**
 148:Drivers/STM32G4xx_HAL_Driver/Src/stm32g4xx_hal_uart_ex.c ****   * @brief Initialize the RS485 Driver enable feature according to the specified
 149:Drivers/STM32G4xx_HAL_Driver/Src/stm32g4xx_hal_uart_ex.c ****   *         parameters in the UART_InitTypeDef and creates the associated handle.
 150:Drivers/STM32G4xx_HAL_Driver/Src/stm32g4xx_hal_uart_ex.c ****   * @param huart            UART handle.
 151:Drivers/STM32G4xx_HAL_Driver/Src/stm32g4xx_hal_uart_ex.c ****   * @param Polarity         Select the driver enable polarity.
 152:Drivers/STM32G4xx_HAL_Driver/Src/stm32g4xx_hal_uart_ex.c ****   *          This parameter can be one of the following values:
 153:Drivers/STM32G4xx_HAL_Driver/Src/stm32g4xx_hal_uart_ex.c ****   *          @arg @ref UART_DE_POLARITY_HIGH DE signal is active high
 154:Drivers/STM32G4xx_HAL_Driver/Src/stm32g4xx_hal_uart_ex.c ****   *          @arg @ref UART_DE_POLARITY_LOW  DE signal is active low
 155:Drivers/STM32G4xx_HAL_Driver/Src/stm32g4xx_hal_uart_ex.c ****   * @param AssertionTime    Driver Enable assertion time:
 156:Drivers/STM32G4xx_HAL_Driver/Src/stm32g4xx_hal_uart_ex.c ****   *       5-bit value defining the time between the activation of the DE (Driver Enable)
 157:Drivers/STM32G4xx_HAL_Driver/Src/stm32g4xx_hal_uart_ex.c ****   *       signal and the beginning of the start bit. It is expressed in sample time
 158:Drivers/STM32G4xx_HAL_Driver/Src/stm32g4xx_hal_uart_ex.c ****   *       units (1/8 or 1/16 bit time, depending on the oversampling rate)
 159:Drivers/STM32G4xx_HAL_Driver/Src/stm32g4xx_hal_uart_ex.c ****   * @param DeassertionTime  Driver Enable deassertion time:
 160:Drivers/STM32G4xx_HAL_Driver/Src/stm32g4xx_hal_uart_ex.c ****   *       5-bit value defining the time between the end of the last stop bit, in a
 161:Drivers/STM32G4xx_HAL_Driver/Src/stm32g4xx_hal_uart_ex.c ****   *       transmitted message, and the de-activation of the DE (Driver Enable) signal.
 162:Drivers/STM32G4xx_HAL_Driver/Src/stm32g4xx_hal_uart_ex.c ****   *       It is expressed in sample time units (1/8 or 1/16 bit time, depending on the
 163:Drivers/STM32G4xx_HAL_Driver/Src/stm32g4xx_hal_uart_ex.c ****   *       oversampling rate).
 164:Drivers/STM32G4xx_HAL_Driver/Src/stm32g4xx_hal_uart_ex.c ****   * @retval HAL status
 165:Drivers/STM32G4xx_HAL_Driver/Src/stm32g4xx_hal_uart_ex.c ****   */
 166:Drivers/STM32G4xx_HAL_Driver/Src/stm32g4xx_hal_uart_ex.c **** HAL_StatusTypeDef HAL_RS485Ex_Init(UART_HandleTypeDef *huart, uint32_t Polarity, uint32_t Assertion
 167:Drivers/STM32G4xx_HAL_Driver/Src/stm32g4xx_hal_uart_ex.c ****                                    uint32_t DeassertionTime)
 168:Drivers/STM32G4xx_HAL_Driver/Src/stm32g4xx_hal_uart_ex.c **** {
 169:Drivers/STM32G4xx_HAL_Driver/Src/stm32g4xx_hal_uart_ex.c ****   uint32_t temp;
 170:Drivers/STM32G4xx_HAL_Driver/Src/stm32g4xx_hal_uart_ex.c **** 
 171:Drivers/STM32G4xx_HAL_Driver/Src/stm32g4xx_hal_uart_ex.c ****   /* Check the UART handle allocation */
 172:Drivers/STM32G4xx_HAL_Driver/Src/stm32g4xx_hal_uart_ex.c ****   if (huart == NULL)
 173:Drivers/STM32G4xx_HAL_Driver/Src/stm32g4xx_hal_uart_ex.c ****   {
 174:Drivers/STM32G4xx_HAL_Driver/Src/stm32g4xx_hal_uart_ex.c ****     return HAL_ERROR;
 175:Drivers/STM32G4xx_HAL_Driver/Src/stm32g4xx_hal_uart_ex.c ****   }
 176:Drivers/STM32G4xx_HAL_Driver/Src/stm32g4xx_hal_uart_ex.c ****   /* Check the Driver Enable UART instance */
 177:Drivers/STM32G4xx_HAL_Driver/Src/stm32g4xx_hal_uart_ex.c ****   assert_param(IS_UART_DRIVER_ENABLE_INSTANCE(huart->Instance));
 178:Drivers/STM32G4xx_HAL_Driver/Src/stm32g4xx_hal_uart_ex.c **** 
 179:Drivers/STM32G4xx_HAL_Driver/Src/stm32g4xx_hal_uart_ex.c ****   /* Check the Driver Enable polarity */
 180:Drivers/STM32G4xx_HAL_Driver/Src/stm32g4xx_hal_uart_ex.c ****   assert_param(IS_UART_DE_POLARITY(Polarity));
 181:Drivers/STM32G4xx_HAL_Driver/Src/stm32g4xx_hal_uart_ex.c **** 
 182:Drivers/STM32G4xx_HAL_Driver/Src/stm32g4xx_hal_uart_ex.c ****   /* Check the Driver Enable assertion time */
 183:Drivers/STM32G4xx_HAL_Driver/Src/stm32g4xx_hal_uart_ex.c ****   assert_param(IS_UART_ASSERTIONTIME(AssertionTime));
 184:Drivers/STM32G4xx_HAL_Driver/Src/stm32g4xx_hal_uart_ex.c **** 
 185:Drivers/STM32G4xx_HAL_Driver/Src/stm32g4xx_hal_uart_ex.c ****   /* Check the Driver Enable deassertion time */
 186:Drivers/STM32G4xx_HAL_Driver/Src/stm32g4xx_hal_uart_ex.c ****   assert_param(IS_UART_DEASSERTIONTIME(DeassertionTime));
 187:Drivers/STM32G4xx_HAL_Driver/Src/stm32g4xx_hal_uart_ex.c **** 
 188:Drivers/STM32G4xx_HAL_Driver/Src/stm32g4xx_hal_uart_ex.c ****   if (huart->gState == HAL_UART_STATE_RESET)
 189:Drivers/STM32G4xx_HAL_Driver/Src/stm32g4xx_hal_uart_ex.c ****   {
 190:Drivers/STM32G4xx_HAL_Driver/Src/stm32g4xx_hal_uart_ex.c ****     /* Allocate lock resource and initialize it */
 191:Drivers/STM32G4xx_HAL_Driver/Src/stm32g4xx_hal_uart_ex.c ****     huart->Lock = HAL_UNLOCKED;
 192:Drivers/STM32G4xx_HAL_Driver/Src/stm32g4xx_hal_uart_ex.c **** 
 193:Drivers/STM32G4xx_HAL_Driver/Src/stm32g4xx_hal_uart_ex.c **** #if (USE_HAL_UART_REGISTER_CALLBACKS == 1)
 194:Drivers/STM32G4xx_HAL_Driver/Src/stm32g4xx_hal_uart_ex.c ****     UART_InitCallbacksToDefault(huart);
 195:Drivers/STM32G4xx_HAL_Driver/Src/stm32g4xx_hal_uart_ex.c **** 
ARM GAS  /tmp/ccbMW3Yu.s 			page 5


 196:Drivers/STM32G4xx_HAL_Driver/Src/stm32g4xx_hal_uart_ex.c ****     if (huart->MspInitCallback == NULL)
 197:Drivers/STM32G4xx_HAL_Driver/Src/stm32g4xx_hal_uart_ex.c ****     {
 198:Drivers/STM32G4xx_HAL_Driver/Src/stm32g4xx_hal_uart_ex.c ****       huart->MspInitCallback = HAL_UART_MspInit;
 199:Drivers/STM32G4xx_HAL_Driver/Src/stm32g4xx_hal_uart_ex.c ****     }
 200:Drivers/STM32G4xx_HAL_Driver/Src/stm32g4xx_hal_uart_ex.c **** 
 201:Drivers/STM32G4xx_HAL_Driver/Src/stm32g4xx_hal_uart_ex.c ****     /* Init the low level hardware */
 202:Drivers/STM32G4xx_HAL_Driver/Src/stm32g4xx_hal_uart_ex.c ****     huart->MspInitCallback(huart);
 203:Drivers/STM32G4xx_HAL_Driver/Src/stm32g4xx_hal_uart_ex.c **** #else
 204:Drivers/STM32G4xx_HAL_Driver/Src/stm32g4xx_hal_uart_ex.c ****     /* Init the low level hardware : GPIO, CLOCK, CORTEX */
 205:Drivers/STM32G4xx_HAL_Driver/Src/stm32g4xx_hal_uart_ex.c ****     HAL_UART_MspInit(huart);
 206:Drivers/STM32G4xx_HAL_Driver/Src/stm32g4xx_hal_uart_ex.c **** #endif /* (USE_HAL_UART_REGISTER_CALLBACKS) */
 207:Drivers/STM32G4xx_HAL_Driver/Src/stm32g4xx_hal_uart_ex.c ****   }
 208:Drivers/STM32G4xx_HAL_Driver/Src/stm32g4xx_hal_uart_ex.c **** 
 209:Drivers/STM32G4xx_HAL_Driver/Src/stm32g4xx_hal_uart_ex.c ****   huart->gState = HAL_UART_STATE_BUSY;
 210:Drivers/STM32G4xx_HAL_Driver/Src/stm32g4xx_hal_uart_ex.c **** 
 211:Drivers/STM32G4xx_HAL_Driver/Src/stm32g4xx_hal_uart_ex.c ****   /* Disable the Peripheral */
 212:Drivers/STM32G4xx_HAL_Driver/Src/stm32g4xx_hal_uart_ex.c ****   __HAL_UART_DISABLE(huart);
 213:Drivers/STM32G4xx_HAL_Driver/Src/stm32g4xx_hal_uart_ex.c **** 
 214:Drivers/STM32G4xx_HAL_Driver/Src/stm32g4xx_hal_uart_ex.c ****   /* Set the UART Communication parameters */
 215:Drivers/STM32G4xx_HAL_Driver/Src/stm32g4xx_hal_uart_ex.c ****   if (UART_SetConfig(huart) == HAL_ERROR)
 216:Drivers/STM32G4xx_HAL_Driver/Src/stm32g4xx_hal_uart_ex.c ****   {
 217:Drivers/STM32G4xx_HAL_Driver/Src/stm32g4xx_hal_uart_ex.c ****     return HAL_ERROR;
 218:Drivers/STM32G4xx_HAL_Driver/Src/stm32g4xx_hal_uart_ex.c ****   }
 219:Drivers/STM32G4xx_HAL_Driver/Src/stm32g4xx_hal_uart_ex.c **** 
 220:Drivers/STM32G4xx_HAL_Driver/Src/stm32g4xx_hal_uart_ex.c ****   if (huart->AdvancedInit.AdvFeatureInit != UART_ADVFEATURE_NO_INIT)
 221:Drivers/STM32G4xx_HAL_Driver/Src/stm32g4xx_hal_uart_ex.c ****   {
 222:Drivers/STM32G4xx_HAL_Driver/Src/stm32g4xx_hal_uart_ex.c ****     UART_AdvFeatureConfig(huart);
 223:Drivers/STM32G4xx_HAL_Driver/Src/stm32g4xx_hal_uart_ex.c ****   }
 224:Drivers/STM32G4xx_HAL_Driver/Src/stm32g4xx_hal_uart_ex.c **** 
 225:Drivers/STM32G4xx_HAL_Driver/Src/stm32g4xx_hal_uart_ex.c ****   /* Enable the Driver Enable mode by setting the DEM bit in the CR3 register */
 226:Drivers/STM32G4xx_HAL_Driver/Src/stm32g4xx_hal_uart_ex.c ****   SET_BIT(huart->Instance->CR3, USART_CR3_DEM);
 227:Drivers/STM32G4xx_HAL_Driver/Src/stm32g4xx_hal_uart_ex.c **** 
 228:Drivers/STM32G4xx_HAL_Driver/Src/stm32g4xx_hal_uart_ex.c ****   /* Set the Driver Enable polarity */
 229:Drivers/STM32G4xx_HAL_Driver/Src/stm32g4xx_hal_uart_ex.c ****   MODIFY_REG(huart->Instance->CR3, USART_CR3_DEP, Polarity);
 230:Drivers/STM32G4xx_HAL_Driver/Src/stm32g4xx_hal_uart_ex.c **** 
 231:Drivers/STM32G4xx_HAL_Driver/Src/stm32g4xx_hal_uart_ex.c ****   /* Set the Driver Enable assertion and deassertion times */
 232:Drivers/STM32G4xx_HAL_Driver/Src/stm32g4xx_hal_uart_ex.c ****   temp = (AssertionTime << UART_CR1_DEAT_ADDRESS_LSB_POS);
 233:Drivers/STM32G4xx_HAL_Driver/Src/stm32g4xx_hal_uart_ex.c ****   temp |= (DeassertionTime << UART_CR1_DEDT_ADDRESS_LSB_POS);
 234:Drivers/STM32G4xx_HAL_Driver/Src/stm32g4xx_hal_uart_ex.c ****   MODIFY_REG(huart->Instance->CR1, (USART_CR1_DEDT | USART_CR1_DEAT), temp);
 235:Drivers/STM32G4xx_HAL_Driver/Src/stm32g4xx_hal_uart_ex.c **** 
 236:Drivers/STM32G4xx_HAL_Driver/Src/stm32g4xx_hal_uart_ex.c ****   /* Enable the Peripheral */
 237:Drivers/STM32G4xx_HAL_Driver/Src/stm32g4xx_hal_uart_ex.c ****   __HAL_UART_ENABLE(huart);
 238:Drivers/STM32G4xx_HAL_Driver/Src/stm32g4xx_hal_uart_ex.c **** 
 239:Drivers/STM32G4xx_HAL_Driver/Src/stm32g4xx_hal_uart_ex.c ****   /* TEACK and/or REACK to check before moving huart->gState and huart->RxState to Ready */
 240:Drivers/STM32G4xx_HAL_Driver/Src/stm32g4xx_hal_uart_ex.c ****   return (UART_CheckIdleState(huart));
 241:Drivers/STM32G4xx_HAL_Driver/Src/stm32g4xx_hal_uart_ex.c **** }
 242:Drivers/STM32G4xx_HAL_Driver/Src/stm32g4xx_hal_uart_ex.c **** 
 243:Drivers/STM32G4xx_HAL_Driver/Src/stm32g4xx_hal_uart_ex.c **** /**
 244:Drivers/STM32G4xx_HAL_Driver/Src/stm32g4xx_hal_uart_ex.c ****   * @}
 245:Drivers/STM32G4xx_HAL_Driver/Src/stm32g4xx_hal_uart_ex.c ****   */
 246:Drivers/STM32G4xx_HAL_Driver/Src/stm32g4xx_hal_uart_ex.c **** 
 247:Drivers/STM32G4xx_HAL_Driver/Src/stm32g4xx_hal_uart_ex.c **** /** @defgroup UARTEx_Exported_Functions_Group2 IO operation functions
 248:Drivers/STM32G4xx_HAL_Driver/Src/stm32g4xx_hal_uart_ex.c ****   *  @brief Extended functions
 249:Drivers/STM32G4xx_HAL_Driver/Src/stm32g4xx_hal_uart_ex.c ****   *
 250:Drivers/STM32G4xx_HAL_Driver/Src/stm32g4xx_hal_uart_ex.c **** @verbatim
 251:Drivers/STM32G4xx_HAL_Driver/Src/stm32g4xx_hal_uart_ex.c ****  ===============================================================================
 252:Drivers/STM32G4xx_HAL_Driver/Src/stm32g4xx_hal_uart_ex.c ****                       ##### IO operation functions #####
ARM GAS  /tmp/ccbMW3Yu.s 			page 6


 253:Drivers/STM32G4xx_HAL_Driver/Src/stm32g4xx_hal_uart_ex.c ****  ===============================================================================
 254:Drivers/STM32G4xx_HAL_Driver/Src/stm32g4xx_hal_uart_ex.c ****     This subsection provides a set of Wakeup and FIFO mode related callback functions.
 255:Drivers/STM32G4xx_HAL_Driver/Src/stm32g4xx_hal_uart_ex.c **** 
 256:Drivers/STM32G4xx_HAL_Driver/Src/stm32g4xx_hal_uart_ex.c ****     (#) Wakeup from Stop mode Callback:
 257:Drivers/STM32G4xx_HAL_Driver/Src/stm32g4xx_hal_uart_ex.c ****         (+) HAL_UARTEx_WakeupCallback()
 258:Drivers/STM32G4xx_HAL_Driver/Src/stm32g4xx_hal_uart_ex.c **** 
 259:Drivers/STM32G4xx_HAL_Driver/Src/stm32g4xx_hal_uart_ex.c ****     (#) TX/RX Fifos Callbacks:
 260:Drivers/STM32G4xx_HAL_Driver/Src/stm32g4xx_hal_uart_ex.c ****         (+) HAL_UARTEx_RxFifoFullCallback()
 261:Drivers/STM32G4xx_HAL_Driver/Src/stm32g4xx_hal_uart_ex.c ****         (+) HAL_UARTEx_TxFifoEmptyCallback()
 262:Drivers/STM32G4xx_HAL_Driver/Src/stm32g4xx_hal_uart_ex.c **** 
 263:Drivers/STM32G4xx_HAL_Driver/Src/stm32g4xx_hal_uart_ex.c **** @endverbatim
 264:Drivers/STM32G4xx_HAL_Driver/Src/stm32g4xx_hal_uart_ex.c ****   * @{
 265:Drivers/STM32G4xx_HAL_Driver/Src/stm32g4xx_hal_uart_ex.c ****   */
 266:Drivers/STM32G4xx_HAL_Driver/Src/stm32g4xx_hal_uart_ex.c **** 
 267:Drivers/STM32G4xx_HAL_Driver/Src/stm32g4xx_hal_uart_ex.c **** /**
 268:Drivers/STM32G4xx_HAL_Driver/Src/stm32g4xx_hal_uart_ex.c ****   * @brief UART wakeup from Stop mode callback.
 269:Drivers/STM32G4xx_HAL_Driver/Src/stm32g4xx_hal_uart_ex.c ****   * @param huart UART handle.
 270:Drivers/STM32G4xx_HAL_Driver/Src/stm32g4xx_hal_uart_ex.c ****   * @retval None
 271:Drivers/STM32G4xx_HAL_Driver/Src/stm32g4xx_hal_uart_ex.c ****   */
 272:Drivers/STM32G4xx_HAL_Driver/Src/stm32g4xx_hal_uart_ex.c **** __weak void HAL_UARTEx_WakeupCallback(UART_HandleTypeDef *huart)
 273:Drivers/STM32G4xx_HAL_Driver/Src/stm32g4xx_hal_uart_ex.c **** {
 274:Drivers/STM32G4xx_HAL_Driver/Src/stm32g4xx_hal_uart_ex.c ****   /* Prevent unused argument(s) compilation warning */
 275:Drivers/STM32G4xx_HAL_Driver/Src/stm32g4xx_hal_uart_ex.c ****   UNUSED(huart);
 276:Drivers/STM32G4xx_HAL_Driver/Src/stm32g4xx_hal_uart_ex.c **** 
 277:Drivers/STM32G4xx_HAL_Driver/Src/stm32g4xx_hal_uart_ex.c ****   /* NOTE : This function should not be modified, when the callback is needed,
 278:Drivers/STM32G4xx_HAL_Driver/Src/stm32g4xx_hal_uart_ex.c ****             the HAL_UARTEx_WakeupCallback can be implemented in the user file.
 279:Drivers/STM32G4xx_HAL_Driver/Src/stm32g4xx_hal_uart_ex.c ****    */
 280:Drivers/STM32G4xx_HAL_Driver/Src/stm32g4xx_hal_uart_ex.c **** }
 281:Drivers/STM32G4xx_HAL_Driver/Src/stm32g4xx_hal_uart_ex.c **** 
 282:Drivers/STM32G4xx_HAL_Driver/Src/stm32g4xx_hal_uart_ex.c **** /**
 283:Drivers/STM32G4xx_HAL_Driver/Src/stm32g4xx_hal_uart_ex.c ****   * @brief  UART RX Fifo full callback.
 284:Drivers/STM32G4xx_HAL_Driver/Src/stm32g4xx_hal_uart_ex.c ****   * @param  huart UART handle.
 285:Drivers/STM32G4xx_HAL_Driver/Src/stm32g4xx_hal_uart_ex.c ****   * @retval None
 286:Drivers/STM32G4xx_HAL_Driver/Src/stm32g4xx_hal_uart_ex.c ****   */
 287:Drivers/STM32G4xx_HAL_Driver/Src/stm32g4xx_hal_uart_ex.c **** __weak void HAL_UARTEx_RxFifoFullCallback(UART_HandleTypeDef *huart)
 288:Drivers/STM32G4xx_HAL_Driver/Src/stm32g4xx_hal_uart_ex.c **** {
 289:Drivers/STM32G4xx_HAL_Driver/Src/stm32g4xx_hal_uart_ex.c ****   /* Prevent unused argument(s) compilation warning */
 290:Drivers/STM32G4xx_HAL_Driver/Src/stm32g4xx_hal_uart_ex.c ****   UNUSED(huart);
 291:Drivers/STM32G4xx_HAL_Driver/Src/stm32g4xx_hal_uart_ex.c **** 
 292:Drivers/STM32G4xx_HAL_Driver/Src/stm32g4xx_hal_uart_ex.c ****   /* NOTE : This function should not be modified, when the callback is needed,
 293:Drivers/STM32G4xx_HAL_Driver/Src/stm32g4xx_hal_uart_ex.c ****             the HAL_UARTEx_RxFifoFullCallback can be implemented in the user file.
 294:Drivers/STM32G4xx_HAL_Driver/Src/stm32g4xx_hal_uart_ex.c ****    */
 295:Drivers/STM32G4xx_HAL_Driver/Src/stm32g4xx_hal_uart_ex.c **** }
 296:Drivers/STM32G4xx_HAL_Driver/Src/stm32g4xx_hal_uart_ex.c **** 
 297:Drivers/STM32G4xx_HAL_Driver/Src/stm32g4xx_hal_uart_ex.c **** /**
 298:Drivers/STM32G4xx_HAL_Driver/Src/stm32g4xx_hal_uart_ex.c ****   * @brief  UART TX Fifo empty callback.
 299:Drivers/STM32G4xx_HAL_Driver/Src/stm32g4xx_hal_uart_ex.c ****   * @param  huart UART handle.
 300:Drivers/STM32G4xx_HAL_Driver/Src/stm32g4xx_hal_uart_ex.c ****   * @retval None
 301:Drivers/STM32G4xx_HAL_Driver/Src/stm32g4xx_hal_uart_ex.c ****   */
 302:Drivers/STM32G4xx_HAL_Driver/Src/stm32g4xx_hal_uart_ex.c **** __weak void HAL_UARTEx_TxFifoEmptyCallback(UART_HandleTypeDef *huart)
 303:Drivers/STM32G4xx_HAL_Driver/Src/stm32g4xx_hal_uart_ex.c **** {
 304:Drivers/STM32G4xx_HAL_Driver/Src/stm32g4xx_hal_uart_ex.c ****   /* Prevent unused argument(s) compilation warning */
 305:Drivers/STM32G4xx_HAL_Driver/Src/stm32g4xx_hal_uart_ex.c ****   UNUSED(huart);
 306:Drivers/STM32G4xx_HAL_Driver/Src/stm32g4xx_hal_uart_ex.c **** 
 307:Drivers/STM32G4xx_HAL_Driver/Src/stm32g4xx_hal_uart_ex.c ****   /* NOTE : This function should not be modified, when the callback is needed,
 308:Drivers/STM32G4xx_HAL_Driver/Src/stm32g4xx_hal_uart_ex.c ****             the HAL_UARTEx_TxFifoEmptyCallback can be implemented in the user file.
 309:Drivers/STM32G4xx_HAL_Driver/Src/stm32g4xx_hal_uart_ex.c ****    */
ARM GAS  /tmp/ccbMW3Yu.s 			page 7


 310:Drivers/STM32G4xx_HAL_Driver/Src/stm32g4xx_hal_uart_ex.c **** }
 311:Drivers/STM32G4xx_HAL_Driver/Src/stm32g4xx_hal_uart_ex.c **** 
 312:Drivers/STM32G4xx_HAL_Driver/Src/stm32g4xx_hal_uart_ex.c **** /**
 313:Drivers/STM32G4xx_HAL_Driver/Src/stm32g4xx_hal_uart_ex.c ****   * @}
 314:Drivers/STM32G4xx_HAL_Driver/Src/stm32g4xx_hal_uart_ex.c ****   */
 315:Drivers/STM32G4xx_HAL_Driver/Src/stm32g4xx_hal_uart_ex.c **** 
 316:Drivers/STM32G4xx_HAL_Driver/Src/stm32g4xx_hal_uart_ex.c **** /** @defgroup UARTEx_Exported_Functions_Group3 Peripheral Control functions
 317:Drivers/STM32G4xx_HAL_Driver/Src/stm32g4xx_hal_uart_ex.c ****   * @brief    Extended Peripheral Control functions
 318:Drivers/STM32G4xx_HAL_Driver/Src/stm32g4xx_hal_uart_ex.c ****   *
 319:Drivers/STM32G4xx_HAL_Driver/Src/stm32g4xx_hal_uart_ex.c **** @verbatim
 320:Drivers/STM32G4xx_HAL_Driver/Src/stm32g4xx_hal_uart_ex.c ****  ===============================================================================
 321:Drivers/STM32G4xx_HAL_Driver/Src/stm32g4xx_hal_uart_ex.c ****                       ##### Peripheral Control functions #####
 322:Drivers/STM32G4xx_HAL_Driver/Src/stm32g4xx_hal_uart_ex.c ****  ===============================================================================
 323:Drivers/STM32G4xx_HAL_Driver/Src/stm32g4xx_hal_uart_ex.c ****     [..] This section provides the following functions:
 324:Drivers/STM32G4xx_HAL_Driver/Src/stm32g4xx_hal_uart_ex.c ****      (+) HAL_MultiProcessorEx_AddressLength_Set() API optionally sets the UART node address
 325:Drivers/STM32G4xx_HAL_Driver/Src/stm32g4xx_hal_uart_ex.c ****          detection length to more than 4 bits for multiprocessor address mark wake up.
 326:Drivers/STM32G4xx_HAL_Driver/Src/stm32g4xx_hal_uart_ex.c ****      (+) HAL_UARTEx_StopModeWakeUpSourceConfig() API defines the wake-up from stop mode
 327:Drivers/STM32G4xx_HAL_Driver/Src/stm32g4xx_hal_uart_ex.c ****          trigger: address match, Start Bit detection or RXNE bit status.
 328:Drivers/STM32G4xx_HAL_Driver/Src/stm32g4xx_hal_uart_ex.c ****      (+) HAL_UARTEx_EnableStopMode() API enables the UART to wake up the MCU from stop mode
 329:Drivers/STM32G4xx_HAL_Driver/Src/stm32g4xx_hal_uart_ex.c ****      (+) HAL_UARTEx_DisableStopMode() API disables the above functionality
 330:Drivers/STM32G4xx_HAL_Driver/Src/stm32g4xx_hal_uart_ex.c ****      (+) HAL_UARTEx_EnableFifoMode() API enables the FIFO mode
 331:Drivers/STM32G4xx_HAL_Driver/Src/stm32g4xx_hal_uart_ex.c ****      (+) HAL_UARTEx_DisableFifoMode() API disables the FIFO mode
 332:Drivers/STM32G4xx_HAL_Driver/Src/stm32g4xx_hal_uart_ex.c ****      (+) HAL_UARTEx_SetTxFifoThreshold() API sets the TX FIFO threshold
 333:Drivers/STM32G4xx_HAL_Driver/Src/stm32g4xx_hal_uart_ex.c ****      (+) HAL_UARTEx_SetRxFifoThreshold() API sets the RX FIFO threshold
 334:Drivers/STM32G4xx_HAL_Driver/Src/stm32g4xx_hal_uart_ex.c **** 
 335:Drivers/STM32G4xx_HAL_Driver/Src/stm32g4xx_hal_uart_ex.c **** @endverbatim
 336:Drivers/STM32G4xx_HAL_Driver/Src/stm32g4xx_hal_uart_ex.c ****   * @{
 337:Drivers/STM32G4xx_HAL_Driver/Src/stm32g4xx_hal_uart_ex.c ****   */
 338:Drivers/STM32G4xx_HAL_Driver/Src/stm32g4xx_hal_uart_ex.c **** 
 339:Drivers/STM32G4xx_HAL_Driver/Src/stm32g4xx_hal_uart_ex.c **** /**
 340:Drivers/STM32G4xx_HAL_Driver/Src/stm32g4xx_hal_uart_ex.c ****   * @brief By default in multiprocessor mode, when the wake up method is set
 341:Drivers/STM32G4xx_HAL_Driver/Src/stm32g4xx_hal_uart_ex.c ****   *        to address mark, the UART handles only 4-bit long addresses detection;
 342:Drivers/STM32G4xx_HAL_Driver/Src/stm32g4xx_hal_uart_ex.c ****   *        this API allows to enable longer addresses detection (6-, 7- or 8-bit
 343:Drivers/STM32G4xx_HAL_Driver/Src/stm32g4xx_hal_uart_ex.c ****   *        long).
 344:Drivers/STM32G4xx_HAL_Driver/Src/stm32g4xx_hal_uart_ex.c ****   * @note  Addresses detection lengths are: 6-bit address detection in 7-bit data mode,
 345:Drivers/STM32G4xx_HAL_Driver/Src/stm32g4xx_hal_uart_ex.c ****   *        7-bit address detection in 8-bit data mode, 8-bit address detection in 9-bit data mode.
 346:Drivers/STM32G4xx_HAL_Driver/Src/stm32g4xx_hal_uart_ex.c ****   * @param huart         UART handle.
 347:Drivers/STM32G4xx_HAL_Driver/Src/stm32g4xx_hal_uart_ex.c ****   * @param AddressLength This parameter can be one of the following values:
 348:Drivers/STM32G4xx_HAL_Driver/Src/stm32g4xx_hal_uart_ex.c ****   *          @arg @ref UART_ADDRESS_DETECT_4B 4-bit long address
 349:Drivers/STM32G4xx_HAL_Driver/Src/stm32g4xx_hal_uart_ex.c ****   *          @arg @ref UART_ADDRESS_DETECT_7B 6-, 7- or 8-bit long address
 350:Drivers/STM32G4xx_HAL_Driver/Src/stm32g4xx_hal_uart_ex.c ****   * @retval HAL status
 351:Drivers/STM32G4xx_HAL_Driver/Src/stm32g4xx_hal_uart_ex.c ****   */
 352:Drivers/STM32G4xx_HAL_Driver/Src/stm32g4xx_hal_uart_ex.c **** HAL_StatusTypeDef HAL_MultiProcessorEx_AddressLength_Set(UART_HandleTypeDef *huart, uint32_t Addres
 353:Drivers/STM32G4xx_HAL_Driver/Src/stm32g4xx_hal_uart_ex.c **** {
 354:Drivers/STM32G4xx_HAL_Driver/Src/stm32g4xx_hal_uart_ex.c ****   /* Check the UART handle allocation */
 355:Drivers/STM32G4xx_HAL_Driver/Src/stm32g4xx_hal_uart_ex.c ****   if (huart == NULL)
 356:Drivers/STM32G4xx_HAL_Driver/Src/stm32g4xx_hal_uart_ex.c ****   {
 357:Drivers/STM32G4xx_HAL_Driver/Src/stm32g4xx_hal_uart_ex.c ****     return HAL_ERROR;
 358:Drivers/STM32G4xx_HAL_Driver/Src/stm32g4xx_hal_uart_ex.c ****   }
 359:Drivers/STM32G4xx_HAL_Driver/Src/stm32g4xx_hal_uart_ex.c **** 
 360:Drivers/STM32G4xx_HAL_Driver/Src/stm32g4xx_hal_uart_ex.c ****   /* Check the address length parameter */
 361:Drivers/STM32G4xx_HAL_Driver/Src/stm32g4xx_hal_uart_ex.c ****   assert_param(IS_UART_ADDRESSLENGTH_DETECT(AddressLength));
 362:Drivers/STM32G4xx_HAL_Driver/Src/stm32g4xx_hal_uart_ex.c **** 
 363:Drivers/STM32G4xx_HAL_Driver/Src/stm32g4xx_hal_uart_ex.c ****   huart->gState = HAL_UART_STATE_BUSY;
 364:Drivers/STM32G4xx_HAL_Driver/Src/stm32g4xx_hal_uart_ex.c **** 
 365:Drivers/STM32G4xx_HAL_Driver/Src/stm32g4xx_hal_uart_ex.c ****   /* Disable the Peripheral */
 366:Drivers/STM32G4xx_HAL_Driver/Src/stm32g4xx_hal_uart_ex.c ****   __HAL_UART_DISABLE(huart);
ARM GAS  /tmp/ccbMW3Yu.s 			page 8


 367:Drivers/STM32G4xx_HAL_Driver/Src/stm32g4xx_hal_uart_ex.c **** 
 368:Drivers/STM32G4xx_HAL_Driver/Src/stm32g4xx_hal_uart_ex.c ****   /* Set the address length */
 369:Drivers/STM32G4xx_HAL_Driver/Src/stm32g4xx_hal_uart_ex.c ****   MODIFY_REG(huart->Instance->CR2, USART_CR2_ADDM7, AddressLength);
 370:Drivers/STM32G4xx_HAL_Driver/Src/stm32g4xx_hal_uart_ex.c **** 
 371:Drivers/STM32G4xx_HAL_Driver/Src/stm32g4xx_hal_uart_ex.c ****   /* Enable the Peripheral */
 372:Drivers/STM32G4xx_HAL_Driver/Src/stm32g4xx_hal_uart_ex.c ****   __HAL_UART_ENABLE(huart);
 373:Drivers/STM32G4xx_HAL_Driver/Src/stm32g4xx_hal_uart_ex.c **** 
 374:Drivers/STM32G4xx_HAL_Driver/Src/stm32g4xx_hal_uart_ex.c ****   /* TEACK and/or REACK to check before moving huart->gState to Ready */
 375:Drivers/STM32G4xx_HAL_Driver/Src/stm32g4xx_hal_uart_ex.c ****   return (UART_CheckIdleState(huart));
 376:Drivers/STM32G4xx_HAL_Driver/Src/stm32g4xx_hal_uart_ex.c **** }
 377:Drivers/STM32G4xx_HAL_Driver/Src/stm32g4xx_hal_uart_ex.c **** 
 378:Drivers/STM32G4xx_HAL_Driver/Src/stm32g4xx_hal_uart_ex.c **** /**
 379:Drivers/STM32G4xx_HAL_Driver/Src/stm32g4xx_hal_uart_ex.c ****   * @brief Set Wakeup from Stop mode interrupt flag selection.
 380:Drivers/STM32G4xx_HAL_Driver/Src/stm32g4xx_hal_uart_ex.c ****   * @note It is the application responsibility to enable the interrupt used as
 381:Drivers/STM32G4xx_HAL_Driver/Src/stm32g4xx_hal_uart_ex.c ****   *       usart_wkup interrupt source before entering low-power mode.
 382:Drivers/STM32G4xx_HAL_Driver/Src/stm32g4xx_hal_uart_ex.c ****   * @param huart           UART handle.
 383:Drivers/STM32G4xx_HAL_Driver/Src/stm32g4xx_hal_uart_ex.c ****   * @param WakeUpSelection Address match, Start Bit detection or RXNE/RXFNE bit status.
 384:Drivers/STM32G4xx_HAL_Driver/Src/stm32g4xx_hal_uart_ex.c ****   *          This parameter can be one of the following values:
 385:Drivers/STM32G4xx_HAL_Driver/Src/stm32g4xx_hal_uart_ex.c ****   *          @arg @ref UART_WAKEUP_ON_ADDRESS
 386:Drivers/STM32G4xx_HAL_Driver/Src/stm32g4xx_hal_uart_ex.c ****   *          @arg @ref UART_WAKEUP_ON_STARTBIT
 387:Drivers/STM32G4xx_HAL_Driver/Src/stm32g4xx_hal_uart_ex.c ****   *          @arg @ref UART_WAKEUP_ON_READDATA_NONEMPTY
 388:Drivers/STM32G4xx_HAL_Driver/Src/stm32g4xx_hal_uart_ex.c ****   * @retval HAL status
 389:Drivers/STM32G4xx_HAL_Driver/Src/stm32g4xx_hal_uart_ex.c ****   */
 390:Drivers/STM32G4xx_HAL_Driver/Src/stm32g4xx_hal_uart_ex.c **** HAL_StatusTypeDef HAL_UARTEx_StopModeWakeUpSourceConfig(UART_HandleTypeDef *huart, UART_WakeUpTypeD
 391:Drivers/STM32G4xx_HAL_Driver/Src/stm32g4xx_hal_uart_ex.c **** {
 392:Drivers/STM32G4xx_HAL_Driver/Src/stm32g4xx_hal_uart_ex.c ****   HAL_StatusTypeDef status = HAL_OK;
 393:Drivers/STM32G4xx_HAL_Driver/Src/stm32g4xx_hal_uart_ex.c ****   uint32_t tickstart;
 394:Drivers/STM32G4xx_HAL_Driver/Src/stm32g4xx_hal_uart_ex.c **** 
 395:Drivers/STM32G4xx_HAL_Driver/Src/stm32g4xx_hal_uart_ex.c ****   /* check the wake-up from stop mode UART instance */
 396:Drivers/STM32G4xx_HAL_Driver/Src/stm32g4xx_hal_uart_ex.c ****   assert_param(IS_UART_WAKEUP_FROMSTOP_INSTANCE(huart->Instance));
 397:Drivers/STM32G4xx_HAL_Driver/Src/stm32g4xx_hal_uart_ex.c ****   /* check the wake-up selection parameter */
 398:Drivers/STM32G4xx_HAL_Driver/Src/stm32g4xx_hal_uart_ex.c ****   assert_param(IS_UART_WAKEUP_SELECTION(WakeUpSelection.WakeUpEvent));
 399:Drivers/STM32G4xx_HAL_Driver/Src/stm32g4xx_hal_uart_ex.c **** 
 400:Drivers/STM32G4xx_HAL_Driver/Src/stm32g4xx_hal_uart_ex.c ****   /* Process Locked */
 401:Drivers/STM32G4xx_HAL_Driver/Src/stm32g4xx_hal_uart_ex.c ****   __HAL_LOCK(huart);
 402:Drivers/STM32G4xx_HAL_Driver/Src/stm32g4xx_hal_uart_ex.c **** 
 403:Drivers/STM32G4xx_HAL_Driver/Src/stm32g4xx_hal_uart_ex.c ****   huart->gState = HAL_UART_STATE_BUSY;
 404:Drivers/STM32G4xx_HAL_Driver/Src/stm32g4xx_hal_uart_ex.c **** 
 405:Drivers/STM32G4xx_HAL_Driver/Src/stm32g4xx_hal_uart_ex.c ****   /* Disable the Peripheral */
 406:Drivers/STM32G4xx_HAL_Driver/Src/stm32g4xx_hal_uart_ex.c ****   __HAL_UART_DISABLE(huart);
 407:Drivers/STM32G4xx_HAL_Driver/Src/stm32g4xx_hal_uart_ex.c **** 
 408:Drivers/STM32G4xx_HAL_Driver/Src/stm32g4xx_hal_uart_ex.c ****   /* Set the wake-up selection scheme */
 409:Drivers/STM32G4xx_HAL_Driver/Src/stm32g4xx_hal_uart_ex.c ****   MODIFY_REG(huart->Instance->CR3, USART_CR3_WUS, WakeUpSelection.WakeUpEvent);
 410:Drivers/STM32G4xx_HAL_Driver/Src/stm32g4xx_hal_uart_ex.c **** 
 411:Drivers/STM32G4xx_HAL_Driver/Src/stm32g4xx_hal_uart_ex.c ****   if (WakeUpSelection.WakeUpEvent == UART_WAKEUP_ON_ADDRESS)
 412:Drivers/STM32G4xx_HAL_Driver/Src/stm32g4xx_hal_uart_ex.c ****   {
 413:Drivers/STM32G4xx_HAL_Driver/Src/stm32g4xx_hal_uart_ex.c ****     UARTEx_Wakeup_AddressConfig(huart, WakeUpSelection);
 414:Drivers/STM32G4xx_HAL_Driver/Src/stm32g4xx_hal_uart_ex.c ****   }
 415:Drivers/STM32G4xx_HAL_Driver/Src/stm32g4xx_hal_uart_ex.c **** 
 416:Drivers/STM32G4xx_HAL_Driver/Src/stm32g4xx_hal_uart_ex.c ****   /* Enable the Peripheral */
 417:Drivers/STM32G4xx_HAL_Driver/Src/stm32g4xx_hal_uart_ex.c ****   __HAL_UART_ENABLE(huart);
 418:Drivers/STM32G4xx_HAL_Driver/Src/stm32g4xx_hal_uart_ex.c **** 
 419:Drivers/STM32G4xx_HAL_Driver/Src/stm32g4xx_hal_uart_ex.c ****   /* Init tickstart for timeout management */
 420:Drivers/STM32G4xx_HAL_Driver/Src/stm32g4xx_hal_uart_ex.c ****   tickstart = HAL_GetTick();
 421:Drivers/STM32G4xx_HAL_Driver/Src/stm32g4xx_hal_uart_ex.c **** 
 422:Drivers/STM32G4xx_HAL_Driver/Src/stm32g4xx_hal_uart_ex.c ****   /* Wait until REACK flag is set */
 423:Drivers/STM32G4xx_HAL_Driver/Src/stm32g4xx_hal_uart_ex.c ****   if (UART_WaitOnFlagUntilTimeout(huart, USART_ISR_REACK, RESET, tickstart, HAL_UART_TIMEOUT_VALUE)
ARM GAS  /tmp/ccbMW3Yu.s 			page 9


 424:Drivers/STM32G4xx_HAL_Driver/Src/stm32g4xx_hal_uart_ex.c ****   {
 425:Drivers/STM32G4xx_HAL_Driver/Src/stm32g4xx_hal_uart_ex.c ****     status = HAL_TIMEOUT;
 426:Drivers/STM32G4xx_HAL_Driver/Src/stm32g4xx_hal_uart_ex.c ****   }
 427:Drivers/STM32G4xx_HAL_Driver/Src/stm32g4xx_hal_uart_ex.c ****   else
 428:Drivers/STM32G4xx_HAL_Driver/Src/stm32g4xx_hal_uart_ex.c ****   {
 429:Drivers/STM32G4xx_HAL_Driver/Src/stm32g4xx_hal_uart_ex.c ****     /* Initialize the UART State */
 430:Drivers/STM32G4xx_HAL_Driver/Src/stm32g4xx_hal_uart_ex.c ****     huart->gState = HAL_UART_STATE_READY;
 431:Drivers/STM32G4xx_HAL_Driver/Src/stm32g4xx_hal_uart_ex.c ****   }
 432:Drivers/STM32G4xx_HAL_Driver/Src/stm32g4xx_hal_uart_ex.c **** 
 433:Drivers/STM32G4xx_HAL_Driver/Src/stm32g4xx_hal_uart_ex.c ****   /* Process Unlocked */
 434:Drivers/STM32G4xx_HAL_Driver/Src/stm32g4xx_hal_uart_ex.c ****   __HAL_UNLOCK(huart);
 435:Drivers/STM32G4xx_HAL_Driver/Src/stm32g4xx_hal_uart_ex.c **** 
 436:Drivers/STM32G4xx_HAL_Driver/Src/stm32g4xx_hal_uart_ex.c ****   return status;
 437:Drivers/STM32G4xx_HAL_Driver/Src/stm32g4xx_hal_uart_ex.c **** }
 438:Drivers/STM32G4xx_HAL_Driver/Src/stm32g4xx_hal_uart_ex.c **** 
 439:Drivers/STM32G4xx_HAL_Driver/Src/stm32g4xx_hal_uart_ex.c **** /**
 440:Drivers/STM32G4xx_HAL_Driver/Src/stm32g4xx_hal_uart_ex.c ****   * @brief Enable UART Stop Mode.
 441:Drivers/STM32G4xx_HAL_Driver/Src/stm32g4xx_hal_uart_ex.c ****   * @note The UART is able to wake up the MCU from Stop 1 mode as long as UART clock is HSI or LSE.
 442:Drivers/STM32G4xx_HAL_Driver/Src/stm32g4xx_hal_uart_ex.c ****   * @param huart UART handle.
 443:Drivers/STM32G4xx_HAL_Driver/Src/stm32g4xx_hal_uart_ex.c ****   * @retval HAL status
 444:Drivers/STM32G4xx_HAL_Driver/Src/stm32g4xx_hal_uart_ex.c ****   */
 445:Drivers/STM32G4xx_HAL_Driver/Src/stm32g4xx_hal_uart_ex.c **** HAL_StatusTypeDef HAL_UARTEx_EnableStopMode(UART_HandleTypeDef *huart)
 446:Drivers/STM32G4xx_HAL_Driver/Src/stm32g4xx_hal_uart_ex.c **** {
 447:Drivers/STM32G4xx_HAL_Driver/Src/stm32g4xx_hal_uart_ex.c ****   /* Process Locked */
 448:Drivers/STM32G4xx_HAL_Driver/Src/stm32g4xx_hal_uart_ex.c ****   __HAL_LOCK(huart);
 449:Drivers/STM32G4xx_HAL_Driver/Src/stm32g4xx_hal_uart_ex.c **** 
 450:Drivers/STM32G4xx_HAL_Driver/Src/stm32g4xx_hal_uart_ex.c ****   /* Set UESM bit */
 451:Drivers/STM32G4xx_HAL_Driver/Src/stm32g4xx_hal_uart_ex.c ****   SET_BIT(huart->Instance->CR1, USART_CR1_UESM);
 452:Drivers/STM32G4xx_HAL_Driver/Src/stm32g4xx_hal_uart_ex.c **** 
 453:Drivers/STM32G4xx_HAL_Driver/Src/stm32g4xx_hal_uart_ex.c ****   /* Process Unlocked */
 454:Drivers/STM32G4xx_HAL_Driver/Src/stm32g4xx_hal_uart_ex.c ****   __HAL_UNLOCK(huart);
 455:Drivers/STM32G4xx_HAL_Driver/Src/stm32g4xx_hal_uart_ex.c **** 
 456:Drivers/STM32G4xx_HAL_Driver/Src/stm32g4xx_hal_uart_ex.c ****   return HAL_OK;
 457:Drivers/STM32G4xx_HAL_Driver/Src/stm32g4xx_hal_uart_ex.c **** }
 458:Drivers/STM32G4xx_HAL_Driver/Src/stm32g4xx_hal_uart_ex.c **** 
 459:Drivers/STM32G4xx_HAL_Driver/Src/stm32g4xx_hal_uart_ex.c **** /**
 460:Drivers/STM32G4xx_HAL_Driver/Src/stm32g4xx_hal_uart_ex.c ****   * @brief Disable UART Stop Mode.
 461:Drivers/STM32G4xx_HAL_Driver/Src/stm32g4xx_hal_uart_ex.c ****   * @param huart UART handle.
 462:Drivers/STM32G4xx_HAL_Driver/Src/stm32g4xx_hal_uart_ex.c ****   * @retval HAL status
 463:Drivers/STM32G4xx_HAL_Driver/Src/stm32g4xx_hal_uart_ex.c ****   */
 464:Drivers/STM32G4xx_HAL_Driver/Src/stm32g4xx_hal_uart_ex.c **** HAL_StatusTypeDef HAL_UARTEx_DisableStopMode(UART_HandleTypeDef *huart)
 465:Drivers/STM32G4xx_HAL_Driver/Src/stm32g4xx_hal_uart_ex.c **** {
 466:Drivers/STM32G4xx_HAL_Driver/Src/stm32g4xx_hal_uart_ex.c ****   /* Process Locked */
 467:Drivers/STM32G4xx_HAL_Driver/Src/stm32g4xx_hal_uart_ex.c ****   __HAL_LOCK(huart);
 468:Drivers/STM32G4xx_HAL_Driver/Src/stm32g4xx_hal_uart_ex.c **** 
 469:Drivers/STM32G4xx_HAL_Driver/Src/stm32g4xx_hal_uart_ex.c ****   /* Clear UESM bit */
 470:Drivers/STM32G4xx_HAL_Driver/Src/stm32g4xx_hal_uart_ex.c ****   CLEAR_BIT(huart->Instance->CR1, USART_CR1_UESM);
 471:Drivers/STM32G4xx_HAL_Driver/Src/stm32g4xx_hal_uart_ex.c **** 
 472:Drivers/STM32G4xx_HAL_Driver/Src/stm32g4xx_hal_uart_ex.c ****   /* Process Unlocked */
 473:Drivers/STM32G4xx_HAL_Driver/Src/stm32g4xx_hal_uart_ex.c ****   __HAL_UNLOCK(huart);
 474:Drivers/STM32G4xx_HAL_Driver/Src/stm32g4xx_hal_uart_ex.c **** 
 475:Drivers/STM32G4xx_HAL_Driver/Src/stm32g4xx_hal_uart_ex.c ****   return HAL_OK;
 476:Drivers/STM32G4xx_HAL_Driver/Src/stm32g4xx_hal_uart_ex.c **** }
 477:Drivers/STM32G4xx_HAL_Driver/Src/stm32g4xx_hal_uart_ex.c **** 
 478:Drivers/STM32G4xx_HAL_Driver/Src/stm32g4xx_hal_uart_ex.c **** /**
 479:Drivers/STM32G4xx_HAL_Driver/Src/stm32g4xx_hal_uart_ex.c ****   * @brief  Enable the FIFO mode.
 480:Drivers/STM32G4xx_HAL_Driver/Src/stm32g4xx_hal_uart_ex.c ****   * @param huart      UART handle.
ARM GAS  /tmp/ccbMW3Yu.s 			page 10


 481:Drivers/STM32G4xx_HAL_Driver/Src/stm32g4xx_hal_uart_ex.c ****   * @retval HAL status
 482:Drivers/STM32G4xx_HAL_Driver/Src/stm32g4xx_hal_uart_ex.c ****   */
 483:Drivers/STM32G4xx_HAL_Driver/Src/stm32g4xx_hal_uart_ex.c **** HAL_StatusTypeDef HAL_UARTEx_EnableFifoMode(UART_HandleTypeDef *huart)
 484:Drivers/STM32G4xx_HAL_Driver/Src/stm32g4xx_hal_uart_ex.c **** {
 485:Drivers/STM32G4xx_HAL_Driver/Src/stm32g4xx_hal_uart_ex.c ****   uint32_t tmpcr1;
 486:Drivers/STM32G4xx_HAL_Driver/Src/stm32g4xx_hal_uart_ex.c **** 
 487:Drivers/STM32G4xx_HAL_Driver/Src/stm32g4xx_hal_uart_ex.c ****   /* Check parameters */
 488:Drivers/STM32G4xx_HAL_Driver/Src/stm32g4xx_hal_uart_ex.c ****   assert_param(IS_UART_FIFO_INSTANCE(huart->Instance));
 489:Drivers/STM32G4xx_HAL_Driver/Src/stm32g4xx_hal_uart_ex.c **** 
 490:Drivers/STM32G4xx_HAL_Driver/Src/stm32g4xx_hal_uart_ex.c ****   /* Process Locked */
 491:Drivers/STM32G4xx_HAL_Driver/Src/stm32g4xx_hal_uart_ex.c ****   __HAL_LOCK(huart);
 492:Drivers/STM32G4xx_HAL_Driver/Src/stm32g4xx_hal_uart_ex.c **** 
 493:Drivers/STM32G4xx_HAL_Driver/Src/stm32g4xx_hal_uart_ex.c ****   huart->gState = HAL_UART_STATE_BUSY;
 494:Drivers/STM32G4xx_HAL_Driver/Src/stm32g4xx_hal_uart_ex.c **** 
 495:Drivers/STM32G4xx_HAL_Driver/Src/stm32g4xx_hal_uart_ex.c ****   /* Save actual UART configuration */
 496:Drivers/STM32G4xx_HAL_Driver/Src/stm32g4xx_hal_uart_ex.c ****   tmpcr1 = READ_REG(huart->Instance->CR1);
 497:Drivers/STM32G4xx_HAL_Driver/Src/stm32g4xx_hal_uart_ex.c **** 
 498:Drivers/STM32G4xx_HAL_Driver/Src/stm32g4xx_hal_uart_ex.c ****   /* Disable UART */
 499:Drivers/STM32G4xx_HAL_Driver/Src/stm32g4xx_hal_uart_ex.c ****   __HAL_UART_DISABLE(huart);
 500:Drivers/STM32G4xx_HAL_Driver/Src/stm32g4xx_hal_uart_ex.c **** 
 501:Drivers/STM32G4xx_HAL_Driver/Src/stm32g4xx_hal_uart_ex.c ****   /* Enable FIFO mode */
 502:Drivers/STM32G4xx_HAL_Driver/Src/stm32g4xx_hal_uart_ex.c ****   SET_BIT(tmpcr1, USART_CR1_FIFOEN);
 503:Drivers/STM32G4xx_HAL_Driver/Src/stm32g4xx_hal_uart_ex.c ****   huart->FifoMode = UART_FIFOMODE_ENABLE;
 504:Drivers/STM32G4xx_HAL_Driver/Src/stm32g4xx_hal_uart_ex.c **** 
 505:Drivers/STM32G4xx_HAL_Driver/Src/stm32g4xx_hal_uart_ex.c ****   /* Restore UART configuration */
 506:Drivers/STM32G4xx_HAL_Driver/Src/stm32g4xx_hal_uart_ex.c ****   WRITE_REG(huart->Instance->CR1, tmpcr1);
 507:Drivers/STM32G4xx_HAL_Driver/Src/stm32g4xx_hal_uart_ex.c **** 
 508:Drivers/STM32G4xx_HAL_Driver/Src/stm32g4xx_hal_uart_ex.c ****   /* Determine the number of data to process during RX/TX ISR execution */
 509:Drivers/STM32G4xx_HAL_Driver/Src/stm32g4xx_hal_uart_ex.c ****   UARTEx_SetNbDataToProcess(huart);
 510:Drivers/STM32G4xx_HAL_Driver/Src/stm32g4xx_hal_uart_ex.c **** 
 511:Drivers/STM32G4xx_HAL_Driver/Src/stm32g4xx_hal_uart_ex.c ****   huart->gState = HAL_UART_STATE_READY;
 512:Drivers/STM32G4xx_HAL_Driver/Src/stm32g4xx_hal_uart_ex.c **** 
 513:Drivers/STM32G4xx_HAL_Driver/Src/stm32g4xx_hal_uart_ex.c ****   /* Process Unlocked */
 514:Drivers/STM32G4xx_HAL_Driver/Src/stm32g4xx_hal_uart_ex.c ****   __HAL_UNLOCK(huart);
 515:Drivers/STM32G4xx_HAL_Driver/Src/stm32g4xx_hal_uart_ex.c **** 
 516:Drivers/STM32G4xx_HAL_Driver/Src/stm32g4xx_hal_uart_ex.c ****   return HAL_OK;
 517:Drivers/STM32G4xx_HAL_Driver/Src/stm32g4xx_hal_uart_ex.c **** }
 518:Drivers/STM32G4xx_HAL_Driver/Src/stm32g4xx_hal_uart_ex.c **** 
 519:Drivers/STM32G4xx_HAL_Driver/Src/stm32g4xx_hal_uart_ex.c **** /**
 520:Drivers/STM32G4xx_HAL_Driver/Src/stm32g4xx_hal_uart_ex.c ****   * @brief  Disable the FIFO mode.
 521:Drivers/STM32G4xx_HAL_Driver/Src/stm32g4xx_hal_uart_ex.c ****   * @param huart      UART handle.
 522:Drivers/STM32G4xx_HAL_Driver/Src/stm32g4xx_hal_uart_ex.c ****   * @retval HAL status
 523:Drivers/STM32G4xx_HAL_Driver/Src/stm32g4xx_hal_uart_ex.c ****   */
 524:Drivers/STM32G4xx_HAL_Driver/Src/stm32g4xx_hal_uart_ex.c **** HAL_StatusTypeDef HAL_UARTEx_DisableFifoMode(UART_HandleTypeDef *huart)
 525:Drivers/STM32G4xx_HAL_Driver/Src/stm32g4xx_hal_uart_ex.c **** {
 526:Drivers/STM32G4xx_HAL_Driver/Src/stm32g4xx_hal_uart_ex.c ****   uint32_t tmpcr1;
 527:Drivers/STM32G4xx_HAL_Driver/Src/stm32g4xx_hal_uart_ex.c **** 
 528:Drivers/STM32G4xx_HAL_Driver/Src/stm32g4xx_hal_uart_ex.c ****   /* Check parameters */
 529:Drivers/STM32G4xx_HAL_Driver/Src/stm32g4xx_hal_uart_ex.c ****   assert_param(IS_UART_FIFO_INSTANCE(huart->Instance));
 530:Drivers/STM32G4xx_HAL_Driver/Src/stm32g4xx_hal_uart_ex.c **** 
 531:Drivers/STM32G4xx_HAL_Driver/Src/stm32g4xx_hal_uart_ex.c ****   /* Process Locked */
 532:Drivers/STM32G4xx_HAL_Driver/Src/stm32g4xx_hal_uart_ex.c ****   __HAL_LOCK(huart);
 533:Drivers/STM32G4xx_HAL_Driver/Src/stm32g4xx_hal_uart_ex.c **** 
 534:Drivers/STM32G4xx_HAL_Driver/Src/stm32g4xx_hal_uart_ex.c ****   huart->gState = HAL_UART_STATE_BUSY;
 535:Drivers/STM32G4xx_HAL_Driver/Src/stm32g4xx_hal_uart_ex.c **** 
 536:Drivers/STM32G4xx_HAL_Driver/Src/stm32g4xx_hal_uart_ex.c ****   /* Save actual UART configuration */
 537:Drivers/STM32G4xx_HAL_Driver/Src/stm32g4xx_hal_uart_ex.c ****   tmpcr1 = READ_REG(huart->Instance->CR1);
ARM GAS  /tmp/ccbMW3Yu.s 			page 11


 538:Drivers/STM32G4xx_HAL_Driver/Src/stm32g4xx_hal_uart_ex.c **** 
 539:Drivers/STM32G4xx_HAL_Driver/Src/stm32g4xx_hal_uart_ex.c ****   /* Disable UART */
 540:Drivers/STM32G4xx_HAL_Driver/Src/stm32g4xx_hal_uart_ex.c ****   __HAL_UART_DISABLE(huart);
 541:Drivers/STM32G4xx_HAL_Driver/Src/stm32g4xx_hal_uart_ex.c **** 
 542:Drivers/STM32G4xx_HAL_Driver/Src/stm32g4xx_hal_uart_ex.c ****   /* Enable FIFO mode */
 543:Drivers/STM32G4xx_HAL_Driver/Src/stm32g4xx_hal_uart_ex.c ****   CLEAR_BIT(tmpcr1, USART_CR1_FIFOEN);
 544:Drivers/STM32G4xx_HAL_Driver/Src/stm32g4xx_hal_uart_ex.c ****   huart->FifoMode = UART_FIFOMODE_DISABLE;
 545:Drivers/STM32G4xx_HAL_Driver/Src/stm32g4xx_hal_uart_ex.c **** 
 546:Drivers/STM32G4xx_HAL_Driver/Src/stm32g4xx_hal_uart_ex.c ****   /* Restore UART configuration */
 547:Drivers/STM32G4xx_HAL_Driver/Src/stm32g4xx_hal_uart_ex.c ****   WRITE_REG(huart->Instance->CR1, tmpcr1);
 548:Drivers/STM32G4xx_HAL_Driver/Src/stm32g4xx_hal_uart_ex.c **** 
 549:Drivers/STM32G4xx_HAL_Driver/Src/stm32g4xx_hal_uart_ex.c ****   huart->gState = HAL_UART_STATE_READY;
 550:Drivers/STM32G4xx_HAL_Driver/Src/stm32g4xx_hal_uart_ex.c **** 
 551:Drivers/STM32G4xx_HAL_Driver/Src/stm32g4xx_hal_uart_ex.c ****   /* Process Unlocked */
 552:Drivers/STM32G4xx_HAL_Driver/Src/stm32g4xx_hal_uart_ex.c ****   __HAL_UNLOCK(huart);
 553:Drivers/STM32G4xx_HAL_Driver/Src/stm32g4xx_hal_uart_ex.c **** 
 554:Drivers/STM32G4xx_HAL_Driver/Src/stm32g4xx_hal_uart_ex.c ****   return HAL_OK;
 555:Drivers/STM32G4xx_HAL_Driver/Src/stm32g4xx_hal_uart_ex.c **** }
 556:Drivers/STM32G4xx_HAL_Driver/Src/stm32g4xx_hal_uart_ex.c **** 
 557:Drivers/STM32G4xx_HAL_Driver/Src/stm32g4xx_hal_uart_ex.c **** /**
 558:Drivers/STM32G4xx_HAL_Driver/Src/stm32g4xx_hal_uart_ex.c ****   * @brief  Set the TXFIFO threshold.
 559:Drivers/STM32G4xx_HAL_Driver/Src/stm32g4xx_hal_uart_ex.c ****   * @param huart      UART handle.
 560:Drivers/STM32G4xx_HAL_Driver/Src/stm32g4xx_hal_uart_ex.c ****   * @param Threshold  TX FIFO threshold value
 561:Drivers/STM32G4xx_HAL_Driver/Src/stm32g4xx_hal_uart_ex.c ****   *          This parameter can be one of the following values:
 562:Drivers/STM32G4xx_HAL_Driver/Src/stm32g4xx_hal_uart_ex.c ****   *            @arg @ref UART_TXFIFO_THRESHOLD_1_8
 563:Drivers/STM32G4xx_HAL_Driver/Src/stm32g4xx_hal_uart_ex.c ****   *            @arg @ref UART_TXFIFO_THRESHOLD_1_4
 564:Drivers/STM32G4xx_HAL_Driver/Src/stm32g4xx_hal_uart_ex.c ****   *            @arg @ref UART_TXFIFO_THRESHOLD_1_2
 565:Drivers/STM32G4xx_HAL_Driver/Src/stm32g4xx_hal_uart_ex.c ****   *            @arg @ref UART_TXFIFO_THRESHOLD_3_4
 566:Drivers/STM32G4xx_HAL_Driver/Src/stm32g4xx_hal_uart_ex.c ****   *            @arg @ref UART_TXFIFO_THRESHOLD_7_8
 567:Drivers/STM32G4xx_HAL_Driver/Src/stm32g4xx_hal_uart_ex.c ****   *            @arg @ref UART_TXFIFO_THRESHOLD_8_8
 568:Drivers/STM32G4xx_HAL_Driver/Src/stm32g4xx_hal_uart_ex.c ****   * @retval HAL status
 569:Drivers/STM32G4xx_HAL_Driver/Src/stm32g4xx_hal_uart_ex.c ****   */
 570:Drivers/STM32G4xx_HAL_Driver/Src/stm32g4xx_hal_uart_ex.c **** HAL_StatusTypeDef HAL_UARTEx_SetTxFifoThreshold(UART_HandleTypeDef *huart, uint32_t Threshold)
 571:Drivers/STM32G4xx_HAL_Driver/Src/stm32g4xx_hal_uart_ex.c **** {
 572:Drivers/STM32G4xx_HAL_Driver/Src/stm32g4xx_hal_uart_ex.c ****   uint32_t tmpcr1;
 573:Drivers/STM32G4xx_HAL_Driver/Src/stm32g4xx_hal_uart_ex.c **** 
 574:Drivers/STM32G4xx_HAL_Driver/Src/stm32g4xx_hal_uart_ex.c ****   /* Check parameters */
 575:Drivers/STM32G4xx_HAL_Driver/Src/stm32g4xx_hal_uart_ex.c ****   assert_param(IS_UART_FIFO_INSTANCE(huart->Instance));
 576:Drivers/STM32G4xx_HAL_Driver/Src/stm32g4xx_hal_uart_ex.c ****   assert_param(IS_UART_TXFIFO_THRESHOLD(Threshold));
 577:Drivers/STM32G4xx_HAL_Driver/Src/stm32g4xx_hal_uart_ex.c **** 
 578:Drivers/STM32G4xx_HAL_Driver/Src/stm32g4xx_hal_uart_ex.c ****   /* Process Locked */
 579:Drivers/STM32G4xx_HAL_Driver/Src/stm32g4xx_hal_uart_ex.c ****   __HAL_LOCK(huart);
 580:Drivers/STM32G4xx_HAL_Driver/Src/stm32g4xx_hal_uart_ex.c **** 
 581:Drivers/STM32G4xx_HAL_Driver/Src/stm32g4xx_hal_uart_ex.c ****   huart->gState = HAL_UART_STATE_BUSY;
 582:Drivers/STM32G4xx_HAL_Driver/Src/stm32g4xx_hal_uart_ex.c **** 
 583:Drivers/STM32G4xx_HAL_Driver/Src/stm32g4xx_hal_uart_ex.c ****   /* Save actual UART configuration */
 584:Drivers/STM32G4xx_HAL_Driver/Src/stm32g4xx_hal_uart_ex.c ****   tmpcr1 = READ_REG(huart->Instance->CR1);
 585:Drivers/STM32G4xx_HAL_Driver/Src/stm32g4xx_hal_uart_ex.c **** 
 586:Drivers/STM32G4xx_HAL_Driver/Src/stm32g4xx_hal_uart_ex.c ****   /* Disable UART */
 587:Drivers/STM32G4xx_HAL_Driver/Src/stm32g4xx_hal_uart_ex.c ****   __HAL_UART_DISABLE(huart);
 588:Drivers/STM32G4xx_HAL_Driver/Src/stm32g4xx_hal_uart_ex.c **** 
 589:Drivers/STM32G4xx_HAL_Driver/Src/stm32g4xx_hal_uart_ex.c ****   /* Update TX threshold configuration */
 590:Drivers/STM32G4xx_HAL_Driver/Src/stm32g4xx_hal_uart_ex.c ****   MODIFY_REG(huart->Instance->CR3, USART_CR3_TXFTCFG, Threshold);
 591:Drivers/STM32G4xx_HAL_Driver/Src/stm32g4xx_hal_uart_ex.c **** 
 592:Drivers/STM32G4xx_HAL_Driver/Src/stm32g4xx_hal_uart_ex.c ****   /* Determine the number of data to process during RX/TX ISR execution */
 593:Drivers/STM32G4xx_HAL_Driver/Src/stm32g4xx_hal_uart_ex.c ****   UARTEx_SetNbDataToProcess(huart);
 594:Drivers/STM32G4xx_HAL_Driver/Src/stm32g4xx_hal_uart_ex.c **** 
ARM GAS  /tmp/ccbMW3Yu.s 			page 12


 595:Drivers/STM32G4xx_HAL_Driver/Src/stm32g4xx_hal_uart_ex.c ****   /* Restore UART configuration */
 596:Drivers/STM32G4xx_HAL_Driver/Src/stm32g4xx_hal_uart_ex.c ****   WRITE_REG(huart->Instance->CR1, tmpcr1);
 597:Drivers/STM32G4xx_HAL_Driver/Src/stm32g4xx_hal_uart_ex.c **** 
 598:Drivers/STM32G4xx_HAL_Driver/Src/stm32g4xx_hal_uart_ex.c ****   huart->gState = HAL_UART_STATE_READY;
 599:Drivers/STM32G4xx_HAL_Driver/Src/stm32g4xx_hal_uart_ex.c **** 
 600:Drivers/STM32G4xx_HAL_Driver/Src/stm32g4xx_hal_uart_ex.c ****   /* Process Unlocked */
 601:Drivers/STM32G4xx_HAL_Driver/Src/stm32g4xx_hal_uart_ex.c ****   __HAL_UNLOCK(huart);
 602:Drivers/STM32G4xx_HAL_Driver/Src/stm32g4xx_hal_uart_ex.c **** 
 603:Drivers/STM32G4xx_HAL_Driver/Src/stm32g4xx_hal_uart_ex.c ****   return HAL_OK;
 604:Drivers/STM32G4xx_HAL_Driver/Src/stm32g4xx_hal_uart_ex.c **** }
 605:Drivers/STM32G4xx_HAL_Driver/Src/stm32g4xx_hal_uart_ex.c **** 
 606:Drivers/STM32G4xx_HAL_Driver/Src/stm32g4xx_hal_uart_ex.c **** /**
 607:Drivers/STM32G4xx_HAL_Driver/Src/stm32g4xx_hal_uart_ex.c ****   * @brief  Set the RXFIFO threshold.
 608:Drivers/STM32G4xx_HAL_Driver/Src/stm32g4xx_hal_uart_ex.c ****   * @param huart      UART handle.
 609:Drivers/STM32G4xx_HAL_Driver/Src/stm32g4xx_hal_uart_ex.c ****   * @param Threshold  RX FIFO threshold value
 610:Drivers/STM32G4xx_HAL_Driver/Src/stm32g4xx_hal_uart_ex.c ****   *          This parameter can be one of the following values:
 611:Drivers/STM32G4xx_HAL_Driver/Src/stm32g4xx_hal_uart_ex.c ****   *            @arg @ref UART_RXFIFO_THRESHOLD_1_8
 612:Drivers/STM32G4xx_HAL_Driver/Src/stm32g4xx_hal_uart_ex.c ****   *            @arg @ref UART_RXFIFO_THRESHOLD_1_4
 613:Drivers/STM32G4xx_HAL_Driver/Src/stm32g4xx_hal_uart_ex.c ****   *            @arg @ref UART_RXFIFO_THRESHOLD_1_2
 614:Drivers/STM32G4xx_HAL_Driver/Src/stm32g4xx_hal_uart_ex.c ****   *            @arg @ref UART_RXFIFO_THRESHOLD_3_4
 615:Drivers/STM32G4xx_HAL_Driver/Src/stm32g4xx_hal_uart_ex.c ****   *            @arg @ref UART_RXFIFO_THRESHOLD_7_8
 616:Drivers/STM32G4xx_HAL_Driver/Src/stm32g4xx_hal_uart_ex.c ****   *            @arg @ref UART_RXFIFO_THRESHOLD_8_8
 617:Drivers/STM32G4xx_HAL_Driver/Src/stm32g4xx_hal_uart_ex.c ****   * @retval HAL status
 618:Drivers/STM32G4xx_HAL_Driver/Src/stm32g4xx_hal_uart_ex.c ****   */
 619:Drivers/STM32G4xx_HAL_Driver/Src/stm32g4xx_hal_uart_ex.c **** HAL_StatusTypeDef HAL_UARTEx_SetRxFifoThreshold(UART_HandleTypeDef *huart, uint32_t Threshold)
 620:Drivers/STM32G4xx_HAL_Driver/Src/stm32g4xx_hal_uart_ex.c **** {
 621:Drivers/STM32G4xx_HAL_Driver/Src/stm32g4xx_hal_uart_ex.c ****   uint32_t tmpcr1;
 622:Drivers/STM32G4xx_HAL_Driver/Src/stm32g4xx_hal_uart_ex.c **** 
 623:Drivers/STM32G4xx_HAL_Driver/Src/stm32g4xx_hal_uart_ex.c ****   /* Check the parameters */
 624:Drivers/STM32G4xx_HAL_Driver/Src/stm32g4xx_hal_uart_ex.c ****   assert_param(IS_UART_FIFO_INSTANCE(huart->Instance));
 625:Drivers/STM32G4xx_HAL_Driver/Src/stm32g4xx_hal_uart_ex.c ****   assert_param(IS_UART_RXFIFO_THRESHOLD(Threshold));
 626:Drivers/STM32G4xx_HAL_Driver/Src/stm32g4xx_hal_uart_ex.c **** 
 627:Drivers/STM32G4xx_HAL_Driver/Src/stm32g4xx_hal_uart_ex.c ****   /* Process Locked */
 628:Drivers/STM32G4xx_HAL_Driver/Src/stm32g4xx_hal_uart_ex.c ****   __HAL_LOCK(huart);
 629:Drivers/STM32G4xx_HAL_Driver/Src/stm32g4xx_hal_uart_ex.c **** 
 630:Drivers/STM32G4xx_HAL_Driver/Src/stm32g4xx_hal_uart_ex.c ****   huart->gState = HAL_UART_STATE_BUSY;
 631:Drivers/STM32G4xx_HAL_Driver/Src/stm32g4xx_hal_uart_ex.c **** 
 632:Drivers/STM32G4xx_HAL_Driver/Src/stm32g4xx_hal_uart_ex.c ****   /* Save actual UART configuration */
 633:Drivers/STM32G4xx_HAL_Driver/Src/stm32g4xx_hal_uart_ex.c ****   tmpcr1 = READ_REG(huart->Instance->CR1);
 634:Drivers/STM32G4xx_HAL_Driver/Src/stm32g4xx_hal_uart_ex.c **** 
 635:Drivers/STM32G4xx_HAL_Driver/Src/stm32g4xx_hal_uart_ex.c ****   /* Disable UART */
 636:Drivers/STM32G4xx_HAL_Driver/Src/stm32g4xx_hal_uart_ex.c ****   __HAL_UART_DISABLE(huart);
 637:Drivers/STM32G4xx_HAL_Driver/Src/stm32g4xx_hal_uart_ex.c **** 
 638:Drivers/STM32G4xx_HAL_Driver/Src/stm32g4xx_hal_uart_ex.c ****   /* Update RX threshold configuration */
 639:Drivers/STM32G4xx_HAL_Driver/Src/stm32g4xx_hal_uart_ex.c ****   MODIFY_REG(huart->Instance->CR3, USART_CR3_RXFTCFG, Threshold);
 640:Drivers/STM32G4xx_HAL_Driver/Src/stm32g4xx_hal_uart_ex.c **** 
 641:Drivers/STM32G4xx_HAL_Driver/Src/stm32g4xx_hal_uart_ex.c ****   /* Determine the number of data to process during RX/TX ISR execution */
 642:Drivers/STM32G4xx_HAL_Driver/Src/stm32g4xx_hal_uart_ex.c ****   UARTEx_SetNbDataToProcess(huart);
 643:Drivers/STM32G4xx_HAL_Driver/Src/stm32g4xx_hal_uart_ex.c **** 
 644:Drivers/STM32G4xx_HAL_Driver/Src/stm32g4xx_hal_uart_ex.c ****   /* Restore UART configuration */
 645:Drivers/STM32G4xx_HAL_Driver/Src/stm32g4xx_hal_uart_ex.c ****   WRITE_REG(huart->Instance->CR1, tmpcr1);
 646:Drivers/STM32G4xx_HAL_Driver/Src/stm32g4xx_hal_uart_ex.c **** 
 647:Drivers/STM32G4xx_HAL_Driver/Src/stm32g4xx_hal_uart_ex.c ****   huart->gState = HAL_UART_STATE_READY;
 648:Drivers/STM32G4xx_HAL_Driver/Src/stm32g4xx_hal_uart_ex.c **** 
 649:Drivers/STM32G4xx_HAL_Driver/Src/stm32g4xx_hal_uart_ex.c ****   /* Process Unlocked */
 650:Drivers/STM32G4xx_HAL_Driver/Src/stm32g4xx_hal_uart_ex.c ****   __HAL_UNLOCK(huart);
 651:Drivers/STM32G4xx_HAL_Driver/Src/stm32g4xx_hal_uart_ex.c **** 
ARM GAS  /tmp/ccbMW3Yu.s 			page 13


 652:Drivers/STM32G4xx_HAL_Driver/Src/stm32g4xx_hal_uart_ex.c ****   return HAL_OK;
 653:Drivers/STM32G4xx_HAL_Driver/Src/stm32g4xx_hal_uart_ex.c **** }
 654:Drivers/STM32G4xx_HAL_Driver/Src/stm32g4xx_hal_uart_ex.c **** 
 655:Drivers/STM32G4xx_HAL_Driver/Src/stm32g4xx_hal_uart_ex.c **** /**
 656:Drivers/STM32G4xx_HAL_Driver/Src/stm32g4xx_hal_uart_ex.c ****   * @}
 657:Drivers/STM32G4xx_HAL_Driver/Src/stm32g4xx_hal_uart_ex.c ****   */
 658:Drivers/STM32G4xx_HAL_Driver/Src/stm32g4xx_hal_uart_ex.c **** 
 659:Drivers/STM32G4xx_HAL_Driver/Src/stm32g4xx_hal_uart_ex.c **** /**
 660:Drivers/STM32G4xx_HAL_Driver/Src/stm32g4xx_hal_uart_ex.c ****   * @}
 661:Drivers/STM32G4xx_HAL_Driver/Src/stm32g4xx_hal_uart_ex.c ****   */
 662:Drivers/STM32G4xx_HAL_Driver/Src/stm32g4xx_hal_uart_ex.c **** 
 663:Drivers/STM32G4xx_HAL_Driver/Src/stm32g4xx_hal_uart_ex.c **** /** @addtogroup UARTEx_Private_Functions
 664:Drivers/STM32G4xx_HAL_Driver/Src/stm32g4xx_hal_uart_ex.c ****   * @{
 665:Drivers/STM32G4xx_HAL_Driver/Src/stm32g4xx_hal_uart_ex.c ****   */
 666:Drivers/STM32G4xx_HAL_Driver/Src/stm32g4xx_hal_uart_ex.c **** 
 667:Drivers/STM32G4xx_HAL_Driver/Src/stm32g4xx_hal_uart_ex.c **** /**
 668:Drivers/STM32G4xx_HAL_Driver/Src/stm32g4xx_hal_uart_ex.c ****   * @brief Initialize the UART wake-up from stop mode parameters when triggered by address detectio
 669:Drivers/STM32G4xx_HAL_Driver/Src/stm32g4xx_hal_uart_ex.c ****   * @param huart           UART handle.
 670:Drivers/STM32G4xx_HAL_Driver/Src/stm32g4xx_hal_uart_ex.c ****   * @param WakeUpSelection UART wake up from stop mode parameters.
 671:Drivers/STM32G4xx_HAL_Driver/Src/stm32g4xx_hal_uart_ex.c ****   * @retval None
 672:Drivers/STM32G4xx_HAL_Driver/Src/stm32g4xx_hal_uart_ex.c ****   */
 673:Drivers/STM32G4xx_HAL_Driver/Src/stm32g4xx_hal_uart_ex.c **** static void UARTEx_Wakeup_AddressConfig(UART_HandleTypeDef *huart, UART_WakeUpTypeDef WakeUpSelecti
 674:Drivers/STM32G4xx_HAL_Driver/Src/stm32g4xx_hal_uart_ex.c **** {
 675:Drivers/STM32G4xx_HAL_Driver/Src/stm32g4xx_hal_uart_ex.c ****   assert_param(IS_UART_ADDRESSLENGTH_DETECT(WakeUpSelection.AddressLength));
 676:Drivers/STM32G4xx_HAL_Driver/Src/stm32g4xx_hal_uart_ex.c **** 
 677:Drivers/STM32G4xx_HAL_Driver/Src/stm32g4xx_hal_uart_ex.c ****   /* Set the USART address length */
 678:Drivers/STM32G4xx_HAL_Driver/Src/stm32g4xx_hal_uart_ex.c ****   MODIFY_REG(huart->Instance->CR2, USART_CR2_ADDM7, WakeUpSelection.AddressLength);
 679:Drivers/STM32G4xx_HAL_Driver/Src/stm32g4xx_hal_uart_ex.c **** 
 680:Drivers/STM32G4xx_HAL_Driver/Src/stm32g4xx_hal_uart_ex.c ****   /* Set the USART address node */
 681:Drivers/STM32G4xx_HAL_Driver/Src/stm32g4xx_hal_uart_ex.c ****   MODIFY_REG(huart->Instance->CR2, USART_CR2_ADD, ((uint32_t)WakeUpSelection.Address << UART_CR2_AD
 682:Drivers/STM32G4xx_HAL_Driver/Src/stm32g4xx_hal_uart_ex.c **** }
 683:Drivers/STM32G4xx_HAL_Driver/Src/stm32g4xx_hal_uart_ex.c **** 
 684:Drivers/STM32G4xx_HAL_Driver/Src/stm32g4xx_hal_uart_ex.c **** /**
 685:Drivers/STM32G4xx_HAL_Driver/Src/stm32g4xx_hal_uart_ex.c ****   * @brief Calculate the number of data to process in RX/TX ISR.
 686:Drivers/STM32G4xx_HAL_Driver/Src/stm32g4xx_hal_uart_ex.c ****   * @note The RX FIFO depth and the TX FIFO depth is extracted from
 687:Drivers/STM32G4xx_HAL_Driver/Src/stm32g4xx_hal_uart_ex.c ****   *       the UART configuration registers.
 688:Drivers/STM32G4xx_HAL_Driver/Src/stm32g4xx_hal_uart_ex.c ****   * @param huart UART handle.
 689:Drivers/STM32G4xx_HAL_Driver/Src/stm32g4xx_hal_uart_ex.c ****   * @retval None
 690:Drivers/STM32G4xx_HAL_Driver/Src/stm32g4xx_hal_uart_ex.c ****   */
 691:Drivers/STM32G4xx_HAL_Driver/Src/stm32g4xx_hal_uart_ex.c **** static void UARTEx_SetNbDataToProcess(UART_HandleTypeDef *huart)
 692:Drivers/STM32G4xx_HAL_Driver/Src/stm32g4xx_hal_uart_ex.c **** {
  33              		.loc 1 692 1 view -0
  34              		.cfi_startproc
  35              		@ args = 0, pretend = 0, frame = 16
  36              		@ frame_needed = 0, uses_anonymous_args = 0
  37              		@ link register save eliminated.
  38              		.loc 1 692 1 is_stmt 0 view .LVU1
  39 0000 84B0     		sub	sp, sp, #16
  40              	.LCFI0:
  41              		.cfi_def_cfa_offset 16
  42 0002 0346     		mov	r3, r0
 693:Drivers/STM32G4xx_HAL_Driver/Src/stm32g4xx_hal_uart_ex.c ****   uint8_t rx_fifo_depth;
  43              		.loc 1 693 3 is_stmt 1 view .LVU2
 694:Drivers/STM32G4xx_HAL_Driver/Src/stm32g4xx_hal_uart_ex.c ****   uint8_t tx_fifo_depth;
  44              		.loc 1 694 3 view .LVU3
 695:Drivers/STM32G4xx_HAL_Driver/Src/stm32g4xx_hal_uart_ex.c ****   uint8_t rx_fifo_threshold;
  45              		.loc 1 695 3 view .LVU4
ARM GAS  /tmp/ccbMW3Yu.s 			page 14


 696:Drivers/STM32G4xx_HAL_Driver/Src/stm32g4xx_hal_uart_ex.c ****   uint8_t tx_fifo_threshold;
  46              		.loc 1 696 3 view .LVU5
 697:Drivers/STM32G4xx_HAL_Driver/Src/stm32g4xx_hal_uart_ex.c ****   uint8_t numerator[] = {1U, 1U, 1U, 3U, 7U, 1U, 0U, 0U};
  47              		.loc 1 697 3 view .LVU6
  48              		.loc 1 697 11 is_stmt 0 view .LVU7
  49 0004 184A     		ldr	r2, .L5
  50 0006 92E80300 		ldm	r2, {r0, r1}
  51              	.LVL1:
  52              		.loc 1 697 11 view .LVU8
  53 000a 04AA     		add	r2, sp, #16
  54 000c 02E90300 		stmdb	r2, {r0, r1}
 698:Drivers/STM32G4xx_HAL_Driver/Src/stm32g4xx_hal_uart_ex.c ****   uint8_t denominator[] = {8U, 4U, 2U, 4U, 8U, 1U, 1U, 1U};
  55              		.loc 1 698 3 is_stmt 1 view .LVU9
  56              		.loc 1 698 11 is_stmt 0 view .LVU10
  57 0010 1649     		ldr	r1, .L5+4
  58 0012 6A46     		mov	r2, sp
  59 0014 03C9     		ldm	r1, {r0, r1}
  60 0016 82E80300 		stm	r2, {r0, r1}
 699:Drivers/STM32G4xx_HAL_Driver/Src/stm32g4xx_hal_uart_ex.c **** 
 700:Drivers/STM32G4xx_HAL_Driver/Src/stm32g4xx_hal_uart_ex.c ****   if (huart->FifoMode == UART_FIFOMODE_DISABLE)
  61              		.loc 1 700 3 is_stmt 1 view .LVU11
  62              		.loc 1 700 12 is_stmt 0 view .LVU12
  63 001a 5A6E     		ldr	r2, [r3, #100]
  64              		.loc 1 700 6 view .LVU13
  65 001c 32B9     		cbnz	r2, .L2
 701:Drivers/STM32G4xx_HAL_Driver/Src/stm32g4xx_hal_uart_ex.c ****   {
 702:Drivers/STM32G4xx_HAL_Driver/Src/stm32g4xx_hal_uart_ex.c ****     huart->NbTxDataToProcess = 1U;
  66              		.loc 1 702 5 is_stmt 1 view .LVU14
  67              		.loc 1 702 30 is_stmt 0 view .LVU15
  68 001e 0122     		movs	r2, #1
  69 0020 A3F86A20 		strh	r2, [r3, #106]	@ movhi
 703:Drivers/STM32G4xx_HAL_Driver/Src/stm32g4xx_hal_uart_ex.c ****     huart->NbRxDataToProcess = 1U;
  70              		.loc 1 703 5 is_stmt 1 view .LVU16
  71              		.loc 1 703 30 is_stmt 0 view .LVU17
  72 0024 A3F86820 		strh	r2, [r3, #104]	@ movhi
  73              	.L1:
 704:Drivers/STM32G4xx_HAL_Driver/Src/stm32g4xx_hal_uart_ex.c ****   }
 705:Drivers/STM32G4xx_HAL_Driver/Src/stm32g4xx_hal_uart_ex.c ****   else
 706:Drivers/STM32G4xx_HAL_Driver/Src/stm32g4xx_hal_uart_ex.c ****   {
 707:Drivers/STM32G4xx_HAL_Driver/Src/stm32g4xx_hal_uart_ex.c ****     rx_fifo_depth = RX_FIFO_DEPTH;
 708:Drivers/STM32G4xx_HAL_Driver/Src/stm32g4xx_hal_uart_ex.c ****     tx_fifo_depth = TX_FIFO_DEPTH;
 709:Drivers/STM32G4xx_HAL_Driver/Src/stm32g4xx_hal_uart_ex.c ****     rx_fifo_threshold = (uint8_t)(READ_BIT(huart->Instance->CR3, USART_CR3_RXFTCFG) >> USART_CR3_RX
 710:Drivers/STM32G4xx_HAL_Driver/Src/stm32g4xx_hal_uart_ex.c ****     tx_fifo_threshold = (uint8_t)(READ_BIT(huart->Instance->CR3, USART_CR3_TXFTCFG) >> USART_CR3_TX
 711:Drivers/STM32G4xx_HAL_Driver/Src/stm32g4xx_hal_uart_ex.c ****     huart->NbTxDataToProcess = ((uint16_t)tx_fifo_depth * numerator[tx_fifo_threshold]) /
 712:Drivers/STM32G4xx_HAL_Driver/Src/stm32g4xx_hal_uart_ex.c ****                                (uint16_t)denominator[tx_fifo_threshold];
 713:Drivers/STM32G4xx_HAL_Driver/Src/stm32g4xx_hal_uart_ex.c ****     huart->NbRxDataToProcess = ((uint16_t)rx_fifo_depth * numerator[rx_fifo_threshold]) /
 714:Drivers/STM32G4xx_HAL_Driver/Src/stm32g4xx_hal_uart_ex.c ****                                (uint16_t)denominator[rx_fifo_threshold];
 715:Drivers/STM32G4xx_HAL_Driver/Src/stm32g4xx_hal_uart_ex.c ****   }
 716:Drivers/STM32G4xx_HAL_Driver/Src/stm32g4xx_hal_uart_ex.c **** }
  74              		.loc 1 716 1 view .LVU18
  75 0028 04B0     		add	sp, sp, #16
  76              	.LCFI1:
  77              		.cfi_remember_state
  78              		.cfi_def_cfa_offset 0
  79              		@ sp needed
  80 002a 7047     		bx	lr
  81              	.L2:
ARM GAS  /tmp/ccbMW3Yu.s 			page 15


  82              	.LCFI2:
  83              		.cfi_restore_state
 707:Drivers/STM32G4xx_HAL_Driver/Src/stm32g4xx_hal_uart_ex.c ****     tx_fifo_depth = TX_FIFO_DEPTH;
  84              		.loc 1 707 5 is_stmt 1 view .LVU19
  85              	.LVL2:
 708:Drivers/STM32G4xx_HAL_Driver/Src/stm32g4xx_hal_uart_ex.c ****     rx_fifo_threshold = (uint8_t)(READ_BIT(huart->Instance->CR3, USART_CR3_RXFTCFG) >> USART_CR3_RX
  86              		.loc 1 708 5 view .LVU20
 709:Drivers/STM32G4xx_HAL_Driver/Src/stm32g4xx_hal_uart_ex.c ****     tx_fifo_threshold = (uint8_t)(READ_BIT(huart->Instance->CR3, USART_CR3_TXFTCFG) >> USART_CR3_TX
  87              		.loc 1 709 5 view .LVU21
 709:Drivers/STM32G4xx_HAL_Driver/Src/stm32g4xx_hal_uart_ex.c ****     tx_fifo_threshold = (uint8_t)(READ_BIT(huart->Instance->CR3, USART_CR3_TXFTCFG) >> USART_CR3_TX
  88              		.loc 1 709 35 is_stmt 0 view .LVU22
  89 002c 1968     		ldr	r1, [r3]
  90 002e 8A68     		ldr	r2, [r1, #8]
 709:Drivers/STM32G4xx_HAL_Driver/Src/stm32g4xx_hal_uart_ex.c ****     tx_fifo_threshold = (uint8_t)(READ_BIT(huart->Instance->CR3, USART_CR3_TXFTCFG) >> USART_CR3_TX
  91              		.loc 1 709 23 view .LVU23
  92 0030 C2F34262 		ubfx	r2, r2, #25, #3
  93              	.LVL3:
 710:Drivers/STM32G4xx_HAL_Driver/Src/stm32g4xx_hal_uart_ex.c ****     huart->NbTxDataToProcess = ((uint16_t)tx_fifo_depth * numerator[tx_fifo_threshold]) /
  94              		.loc 1 710 5 is_stmt 1 view .LVU24
 710:Drivers/STM32G4xx_HAL_Driver/Src/stm32g4xx_hal_uart_ex.c ****     huart->NbTxDataToProcess = ((uint16_t)tx_fifo_depth * numerator[tx_fifo_threshold]) /
  95              		.loc 1 710 35 is_stmt 0 view .LVU25
  96 0034 8868     		ldr	r0, [r1, #8]
  97              	.LVL4:
 711:Drivers/STM32G4xx_HAL_Driver/Src/stm32g4xx_hal_uart_ex.c ****                                (uint16_t)denominator[tx_fifo_threshold];
  98              		.loc 1 711 5 is_stmt 1 view .LVU26
 711:Drivers/STM32G4xx_HAL_Driver/Src/stm32g4xx_hal_uart_ex.c ****                                (uint16_t)denominator[tx_fifo_threshold];
  99              		.loc 1 711 68 is_stmt 0 view .LVU27
 100 0036 04A9     		add	r1, sp, #16
 101 0038 01EB5070 		add	r0, r1, r0, lsr #29
 102              	.LVL5:
 711:Drivers/STM32G4xx_HAL_Driver/Src/stm32g4xx_hal_uart_ex.c ****                                (uint16_t)denominator[tx_fifo_threshold];
 103              		.loc 1 711 68 view .LVU28
 104 003c 10F8081C 		ldrb	r1, [r0, #-8]	@ zero_extendqisi2
 711:Drivers/STM32G4xx_HAL_Driver/Src/stm32g4xx_hal_uart_ex.c ****                                (uint16_t)denominator[tx_fifo_threshold];
 105              		.loc 1 711 57 view .LVU29
 106 0040 C900     		lsls	r1, r1, #3
 712:Drivers/STM32G4xx_HAL_Driver/Src/stm32g4xx_hal_uart_ex.c ****     huart->NbRxDataToProcess = ((uint16_t)rx_fifo_depth * numerator[rx_fifo_threshold]) /
 107              		.loc 1 712 53 view .LVU30
 108 0042 10F8100C 		ldrb	r0, [r0, #-16]	@ zero_extendqisi2
 711:Drivers/STM32G4xx_HAL_Driver/Src/stm32g4xx_hal_uart_ex.c ****                                (uint16_t)denominator[tx_fifo_threshold];
 109              		.loc 1 711 89 view .LVU31
 110 0046 91FBF0F1 		sdiv	r1, r1, r0
 711:Drivers/STM32G4xx_HAL_Driver/Src/stm32g4xx_hal_uart_ex.c ****                                (uint16_t)denominator[tx_fifo_threshold];
 111              		.loc 1 711 30 view .LVU32
 112 004a A3F86A10 		strh	r1, [r3, #106]	@ movhi
 713:Drivers/STM32G4xx_HAL_Driver/Src/stm32g4xx_hal_uart_ex.c ****                                (uint16_t)denominator[rx_fifo_threshold];
 113              		.loc 1 713 5 is_stmt 1 view .LVU33
 713:Drivers/STM32G4xx_HAL_Driver/Src/stm32g4xx_hal_uart_ex.c ****                                (uint16_t)denominator[rx_fifo_threshold];
 114              		.loc 1 713 68 is_stmt 0 view .LVU34
 115 004e 04A9     		add	r1, sp, #16
 116 0050 0A44     		add	r2, r2, r1
 117              	.LVL6:
 713:Drivers/STM32G4xx_HAL_Driver/Src/stm32g4xx_hal_uart_ex.c ****                                (uint16_t)denominator[rx_fifo_threshold];
 118              		.loc 1 713 68 view .LVU35
 119 0052 12F8081C 		ldrb	r1, [r2, #-8]	@ zero_extendqisi2
 713:Drivers/STM32G4xx_HAL_Driver/Src/stm32g4xx_hal_uart_ex.c ****                                (uint16_t)denominator[rx_fifo_threshold];
 120              		.loc 1 713 57 view .LVU36
ARM GAS  /tmp/ccbMW3Yu.s 			page 16


 121 0056 C900     		lsls	r1, r1, #3
 714:Drivers/STM32G4xx_HAL_Driver/Src/stm32g4xx_hal_uart_ex.c ****   }
 122              		.loc 1 714 53 view .LVU37
 123 0058 12F8102C 		ldrb	r2, [r2, #-16]	@ zero_extendqisi2
 713:Drivers/STM32G4xx_HAL_Driver/Src/stm32g4xx_hal_uart_ex.c ****                                (uint16_t)denominator[rx_fifo_threshold];
 124              		.loc 1 713 89 view .LVU38
 125 005c 91FBF2F2 		sdiv	r2, r1, r2
 713:Drivers/STM32G4xx_HAL_Driver/Src/stm32g4xx_hal_uart_ex.c ****                                (uint16_t)denominator[rx_fifo_threshold];
 126              		.loc 1 713 30 view .LVU39
 127 0060 A3F86820 		strh	r2, [r3, #104]	@ movhi
 128              		.loc 1 716 1 view .LVU40
 129 0064 E0E7     		b	.L1
 130              	.L6:
 131 0066 00BF     		.align	2
 132              	.L5:
 133 0068 00000000 		.word	.LANCHOR0
 134 006c 00000000 		.word	.LC1
 135              		.cfi_endproc
 136              	.LFE145:
 138              		.section	.rodata.UARTEx_Wakeup_AddressConfig.str1.4,"aMS",%progbits,1
 139              		.align	2
 140              	.LC2:
 141 0000 44726976 		.ascii	"Drivers/STM32G4xx_HAL_Driver/Src/stm32g4xx_hal_uart"
 141      6572732F 
 141      53544D33 
 141      32473478 
 141      785F4841 
 142 0033 5F65782E 		.ascii	"_ex.c\000"
 142      6300
 143              		.section	.text.UARTEx_Wakeup_AddressConfig,"ax",%progbits
 144              		.align	1
 145              		.syntax unified
 146              		.thumb
 147              		.thumb_func
 148              		.fpu fpv4-sp-d16
 150              	UARTEx_Wakeup_AddressConfig:
 151              	.LVL7:
 152              	.LFB144:
 674:Drivers/STM32G4xx_HAL_Driver/Src/stm32g4xx_hal_uart_ex.c ****   assert_param(IS_UART_ADDRESSLENGTH_DETECT(WakeUpSelection.AddressLength));
 153              		.loc 1 674 1 is_stmt 1 view -0
 154              		.cfi_startproc
 155              		@ args = 0, pretend = 0, frame = 8
 156              		@ frame_needed = 0, uses_anonymous_args = 0
 674:Drivers/STM32G4xx_HAL_Driver/Src/stm32g4xx_hal_uart_ex.c ****   assert_param(IS_UART_ADDRESSLENGTH_DETECT(WakeUpSelection.AddressLength));
 157              		.loc 1 674 1 is_stmt 0 view .LVU42
 158 0000 30B5     		push	{r4, r5, lr}
 159              	.LCFI3:
 160              		.cfi_def_cfa_offset 12
 161              		.cfi_offset 4, -12
 162              		.cfi_offset 5, -8
 163              		.cfi_offset 14, -4
 164 0002 83B0     		sub	sp, sp, #12
 165              	.LCFI4:
 166              		.cfi_def_cfa_offset 24
 167 0004 0446     		mov	r4, r0
 168 0006 02AB     		add	r3, sp, #8
 169 0008 03E90600 		stmdb	r3, {r1, r2}
ARM GAS  /tmp/ccbMW3Yu.s 			page 17


 675:Drivers/STM32G4xx_HAL_Driver/Src/stm32g4xx_hal_uart_ex.c **** 
 170              		.loc 1 675 3 is_stmt 1 view .LVU43
 171 000c BDF80450 		ldrh	r5, [sp, #4]
 172 0010 0DB1     		cbz	r5, .L8
 675:Drivers/STM32G4xx_HAL_Driver/Src/stm32g4xx_hal_uart_ex.c **** 
 173              		.loc 1 675 3 is_stmt 0 discriminator 1 view .LVU44
 174 0012 102D     		cmp	r5, #16
 175 0014 10D1     		bne	.L10
 176              	.LVL8:
 177              	.L8:
 678:Drivers/STM32G4xx_HAL_Driver/Src/stm32g4xx_hal_uart_ex.c **** 
 178              		.loc 1 678 3 is_stmt 1 view .LVU45
 179 0016 2268     		ldr	r2, [r4]
 180 0018 5368     		ldr	r3, [r2, #4]
 181 001a 23F01003 		bic	r3, r3, #16
 182 001e 2B43     		orrs	r3, r3, r5
 183 0020 5360     		str	r3, [r2, #4]
 681:Drivers/STM32G4xx_HAL_Driver/Src/stm32g4xx_hal_uart_ex.c **** }
 184              		.loc 1 681 3 view .LVU46
 185 0022 2268     		ldr	r2, [r4]
 186 0024 5368     		ldr	r3, [r2, #4]
 187 0026 23F07F43 		bic	r3, r3, #-16777216
 188 002a 9DF80610 		ldrb	r1, [sp, #6]	@ zero_extendqisi2
 189 002e 43EA0163 		orr	r3, r3, r1, lsl #24
 190 0032 5360     		str	r3, [r2, #4]
 682:Drivers/STM32G4xx_HAL_Driver/Src/stm32g4xx_hal_uart_ex.c **** 
 191              		.loc 1 682 1 is_stmt 0 view .LVU47
 192 0034 03B0     		add	sp, sp, #12
 193              	.LCFI5:
 194              		.cfi_remember_state
 195              		.cfi_def_cfa_offset 12
 196              		@ sp needed
 197 0036 30BD     		pop	{r4, r5, pc}
 198              	.LVL9:
 199              	.L10:
 200              	.LCFI6:
 201              		.cfi_restore_state
 675:Drivers/STM32G4xx_HAL_Driver/Src/stm32g4xx_hal_uart_ex.c **** 
 202              		.loc 1 675 3 discriminator 2 view .LVU48
 203 0038 40F2A321 		movw	r1, #675
 204 003c 0148     		ldr	r0, .L11
 205              	.LVL10:
 675:Drivers/STM32G4xx_HAL_Driver/Src/stm32g4xx_hal_uart_ex.c **** 
 206              		.loc 1 675 3 discriminator 2 view .LVU49
 207 003e FFF7FEFF 		bl	assert_failed
 208              	.LVL11:
 209 0042 E8E7     		b	.L8
 210              	.L12:
 211              		.align	2
 212              	.L11:
 213 0044 00000000 		.word	.LC2
 214              		.cfi_endproc
 215              	.LFE144:
 217              		.section	.text.HAL_RS485Ex_Init,"ax",%progbits
 218              		.align	1
 219              		.global	HAL_RS485Ex_Init
 220              		.syntax unified
ARM GAS  /tmp/ccbMW3Yu.s 			page 18


 221              		.thumb
 222              		.thumb_func
 223              		.fpu fpv4-sp-d16
 225              	HAL_RS485Ex_Init:
 226              	.LVL12:
 227              	.LFB132:
 168:Drivers/STM32G4xx_HAL_Driver/Src/stm32g4xx_hal_uart_ex.c ****   uint32_t temp;
 228              		.loc 1 168 1 is_stmt 1 view -0
 229              		.cfi_startproc
 230              		@ args = 0, pretend = 0, frame = 0
 231              		@ frame_needed = 0, uses_anonymous_args = 0
 169:Drivers/STM32G4xx_HAL_Driver/Src/stm32g4xx_hal_uart_ex.c **** 
 232              		.loc 1 169 3 view .LVU51
 172:Drivers/STM32G4xx_HAL_Driver/Src/stm32g4xx_hal_uart_ex.c ****   {
 233              		.loc 1 172 3 view .LVU52
 172:Drivers/STM32G4xx_HAL_Driver/Src/stm32g4xx_hal_uart_ex.c ****   {
 234              		.loc 1 172 6 is_stmt 0 view .LVU53
 235 0000 0028     		cmp	r0, #0
 236 0002 74D0     		beq	.L21
 168:Drivers/STM32G4xx_HAL_Driver/Src/stm32g4xx_hal_uart_ex.c ****   uint32_t temp;
 237              		.loc 1 168 1 view .LVU54
 238 0004 F8B5     		push	{r3, r4, r5, r6, r7, lr}
 239              	.LCFI7:
 240              		.cfi_def_cfa_offset 24
 241              		.cfi_offset 3, -24
 242              		.cfi_offset 4, -20
 243              		.cfi_offset 5, -16
 244              		.cfi_offset 6, -12
 245              		.cfi_offset 7, -8
 246              		.cfi_offset 14, -4
 247 0006 0E46     		mov	r6, r1
 248 0008 1746     		mov	r7, r2
 249 000a 1D46     		mov	r5, r3
 250 000c 0446     		mov	r4, r0
 177:Drivers/STM32G4xx_HAL_Driver/Src/stm32g4xx_hal_uart_ex.c **** 
 251              		.loc 1 177 3 is_stmt 1 view .LVU55
 252 000e 0368     		ldr	r3, [r0]
 253              	.LVL13:
 177:Drivers/STM32G4xx_HAL_Driver/Src/stm32g4xx_hal_uart_ex.c **** 
 254              		.loc 1 177 3 is_stmt 0 view .LVU56
 255 0010 384A     		ldr	r2, .L31
 256              	.LVL14:
 177:Drivers/STM32G4xx_HAL_Driver/Src/stm32g4xx_hal_uart_ex.c **** 
 257              		.loc 1 177 3 view .LVU57
 258 0012 9342     		cmp	r3, r2
 259 0014 17D0     		beq	.L15
 177:Drivers/STM32G4xx_HAL_Driver/Src/stm32g4xx_hal_uart_ex.c **** 
 260              		.loc 1 177 3 discriminator 1 view .LVU58
 261 0016 A2F57442 		sub	r2, r2, #62464
 262 001a 9342     		cmp	r3, r2
 263 001c 13D0     		beq	.L15
 177:Drivers/STM32G4xx_HAL_Driver/Src/stm32g4xx_hal_uart_ex.c **** 
 264              		.loc 1 177 3 discriminator 2 view .LVU59
 265 001e 02F58062 		add	r2, r2, #1024
 266 0022 9342     		cmp	r3, r2
 267 0024 0FD0     		beq	.L15
 177:Drivers/STM32G4xx_HAL_Driver/Src/stm32g4xx_hal_uart_ex.c **** 
ARM GAS  /tmp/ccbMW3Yu.s 			page 19


 268              		.loc 1 177 3 discriminator 3 view .LVU60
 269 0026 02F58062 		add	r2, r2, #1024
 270 002a 9342     		cmp	r3, r2
 271 002c 0BD0     		beq	.L15
 177:Drivers/STM32G4xx_HAL_Driver/Src/stm32g4xx_hal_uart_ex.c **** 
 272              		.loc 1 177 3 discriminator 4 view .LVU61
 273 002e 02F58062 		add	r2, r2, #1024
 274 0032 9342     		cmp	r3, r2
 275 0034 07D0     		beq	.L15
 177:Drivers/STM32G4xx_HAL_Driver/Src/stm32g4xx_hal_uart_ex.c **** 
 276              		.loc 1 177 3 discriminator 5 view .LVU62
 277 0036 02F54052 		add	r2, r2, #12288
 278 003a 9342     		cmp	r3, r2
 279 003c 03D0     		beq	.L15
 177:Drivers/STM32G4xx_HAL_Driver/Src/stm32g4xx_hal_uart_ex.c **** 
 280              		.loc 1 177 3 discriminator 6 view .LVU63
 281 003e B121     		movs	r1, #177
 282              	.LVL15:
 177:Drivers/STM32G4xx_HAL_Driver/Src/stm32g4xx_hal_uart_ex.c **** 
 283              		.loc 1 177 3 discriminator 6 view .LVU64
 284 0040 2D48     		ldr	r0, .L31+4
 285              	.LVL16:
 177:Drivers/STM32G4xx_HAL_Driver/Src/stm32g4xx_hal_uart_ex.c **** 
 286              		.loc 1 177 3 discriminator 6 view .LVU65
 287 0042 FFF7FEFF 		bl	assert_failed
 288              	.LVL17:
 289              	.L15:
 180:Drivers/STM32G4xx_HAL_Driver/Src/stm32g4xx_hal_uart_ex.c **** 
 290              		.loc 1 180 3 is_stmt 1 view .LVU66
 291 0046 16B1     		cbz	r6, .L16
 180:Drivers/STM32G4xx_HAL_Driver/Src/stm32g4xx_hal_uart_ex.c **** 
 292              		.loc 1 180 3 is_stmt 0 discriminator 1 view .LVU67
 293 0048 B6F5004F 		cmp	r6, #32768
 294 004c 36D1     		bne	.L26
 295              	.L16:
 183:Drivers/STM32G4xx_HAL_Driver/Src/stm32g4xx_hal_uart_ex.c **** 
 296              		.loc 1 183 3 is_stmt 1 view .LVU68
 297 004e 1F2F     		cmp	r7, #31
 298 0050 39D8     		bhi	.L27
 299              	.L17:
 186:Drivers/STM32G4xx_HAL_Driver/Src/stm32g4xx_hal_uart_ex.c **** 
 300              		.loc 1 186 3 view .LVU69
 301 0052 1F2D     		cmp	r5, #31
 302 0054 3CD8     		bhi	.L28
 303              	.L18:
 188:Drivers/STM32G4xx_HAL_Driver/Src/stm32g4xx_hal_uart_ex.c ****   {
 304              		.loc 1 188 3 view .LVU70
 188:Drivers/STM32G4xx_HAL_Driver/Src/stm32g4xx_hal_uart_ex.c ****   {
 305              		.loc 1 188 12 is_stmt 0 view .LVU71
 306 0056 D4F88030 		ldr	r3, [r4, #128]
 188:Drivers/STM32G4xx_HAL_Driver/Src/stm32g4xx_hal_uart_ex.c ****   {
 307              		.loc 1 188 6 view .LVU72
 308 005a 002B     		cmp	r3, #0
 309 005c 3DD0     		beq	.L29
 310              	.L19:
 209:Drivers/STM32G4xx_HAL_Driver/Src/stm32g4xx_hal_uart_ex.c **** 
 311              		.loc 1 209 3 is_stmt 1 view .LVU73
ARM GAS  /tmp/ccbMW3Yu.s 			page 20


 209:Drivers/STM32G4xx_HAL_Driver/Src/stm32g4xx_hal_uart_ex.c **** 
 312              		.loc 1 209 17 is_stmt 0 view .LVU74
 313 005e 2423     		movs	r3, #36
 314 0060 C4F88030 		str	r3, [r4, #128]
 212:Drivers/STM32G4xx_HAL_Driver/Src/stm32g4xx_hal_uart_ex.c **** 
 315              		.loc 1 212 3 is_stmt 1 view .LVU75
 316 0064 2268     		ldr	r2, [r4]
 317 0066 1368     		ldr	r3, [r2]
 318 0068 23F00103 		bic	r3, r3, #1
 319 006c 1360     		str	r3, [r2]
 215:Drivers/STM32G4xx_HAL_Driver/Src/stm32g4xx_hal_uart_ex.c ****   {
 320              		.loc 1 215 3 view .LVU76
 215:Drivers/STM32G4xx_HAL_Driver/Src/stm32g4xx_hal_uart_ex.c ****   {
 321              		.loc 1 215 7 is_stmt 0 view .LVU77
 322 006e 2046     		mov	r0, r4
 323 0070 FFF7FEFF 		bl	UART_SetConfig
 324              	.LVL18:
 215:Drivers/STM32G4xx_HAL_Driver/Src/stm32g4xx_hal_uart_ex.c ****   {
 325              		.loc 1 215 6 view .LVU78
 326 0074 0128     		cmp	r0, #1
 327 0076 20D0     		beq	.L14
 220:Drivers/STM32G4xx_HAL_Driver/Src/stm32g4xx_hal_uart_ex.c ****   {
 328              		.loc 1 220 3 is_stmt 1 view .LVU79
 220:Drivers/STM32G4xx_HAL_Driver/Src/stm32g4xx_hal_uart_ex.c ****   {
 329              		.loc 1 220 26 is_stmt 0 view .LVU80
 330 0078 A36A     		ldr	r3, [r4, #40]
 220:Drivers/STM32G4xx_HAL_Driver/Src/stm32g4xx_hal_uart_ex.c ****   {
 331              		.loc 1 220 6 view .LVU81
 332 007a 002B     		cmp	r3, #0
 333 007c 33D1     		bne	.L30
 334              	.L20:
 226:Drivers/STM32G4xx_HAL_Driver/Src/stm32g4xx_hal_uart_ex.c **** 
 335              		.loc 1 226 3 is_stmt 1 view .LVU82
 336 007e 2268     		ldr	r2, [r4]
 337 0080 9368     		ldr	r3, [r2, #8]
 338 0082 43F48043 		orr	r3, r3, #16384
 339 0086 9360     		str	r3, [r2, #8]
 229:Drivers/STM32G4xx_HAL_Driver/Src/stm32g4xx_hal_uart_ex.c **** 
 340              		.loc 1 229 3 view .LVU83
 341 0088 2368     		ldr	r3, [r4]
 342 008a 9968     		ldr	r1, [r3, #8]
 343 008c 21F40041 		bic	r1, r1, #32768
 344 0090 0E43     		orrs	r6, r6, r1
 345              	.LVL19:
 229:Drivers/STM32G4xx_HAL_Driver/Src/stm32g4xx_hal_uart_ex.c **** 
 346              		.loc 1 229 3 is_stmt 0 view .LVU84
 347 0092 9E60     		str	r6, [r3, #8]
 232:Drivers/STM32G4xx_HAL_Driver/Src/stm32g4xx_hal_uart_ex.c ****   temp |= (DeassertionTime << UART_CR1_DEDT_ADDRESS_LSB_POS);
 348              		.loc 1 232 3 is_stmt 1 view .LVU85
 349              	.LVL20:
 233:Drivers/STM32G4xx_HAL_Driver/Src/stm32g4xx_hal_uart_ex.c ****   MODIFY_REG(huart->Instance->CR1, (USART_CR1_DEDT | USART_CR1_DEAT), temp);
 350              		.loc 1 233 3 view .LVU86
 233:Drivers/STM32G4xx_HAL_Driver/Src/stm32g4xx_hal_uart_ex.c ****   MODIFY_REG(huart->Instance->CR1, (USART_CR1_DEDT | USART_CR1_DEAT), temp);
 351              		.loc 1 233 28 is_stmt 0 view .LVU87
 352 0094 2904     		lsls	r1, r5, #16
 233:Drivers/STM32G4xx_HAL_Driver/Src/stm32g4xx_hal_uart_ex.c ****   MODIFY_REG(huart->Instance->CR1, (USART_CR1_DEDT | USART_CR1_DEAT), temp);
 353              		.loc 1 233 8 view .LVU88
ARM GAS  /tmp/ccbMW3Yu.s 			page 21


 354 0096 41EA4752 		orr	r2, r1, r7, lsl #21
 355              	.LVL21:
 234:Drivers/STM32G4xx_HAL_Driver/Src/stm32g4xx_hal_uart_ex.c **** 
 356              		.loc 1 234 3 is_stmt 1 view .LVU89
 357 009a 2368     		ldr	r3, [r4]
 358 009c 1968     		ldr	r1, [r3]
 359 009e 21F07F71 		bic	r1, r1, #66846720
 360 00a2 21F44031 		bic	r1, r1, #196608
 361 00a6 1143     		orrs	r1, r1, r2
 362 00a8 1960     		str	r1, [r3]
 237:Drivers/STM32G4xx_HAL_Driver/Src/stm32g4xx_hal_uart_ex.c **** 
 363              		.loc 1 237 3 view .LVU90
 364 00aa 2268     		ldr	r2, [r4]
 365              	.LVL22:
 237:Drivers/STM32G4xx_HAL_Driver/Src/stm32g4xx_hal_uart_ex.c **** 
 366              		.loc 1 237 3 is_stmt 0 view .LVU91
 367 00ac 1368     		ldr	r3, [r2]
 368 00ae 43F00103 		orr	r3, r3, #1
 369 00b2 1360     		str	r3, [r2]
 240:Drivers/STM32G4xx_HAL_Driver/Src/stm32g4xx_hal_uart_ex.c **** }
 370              		.loc 1 240 3 is_stmt 1 view .LVU92
 240:Drivers/STM32G4xx_HAL_Driver/Src/stm32g4xx_hal_uart_ex.c **** }
 371              		.loc 1 240 11 is_stmt 0 view .LVU93
 372 00b4 2046     		mov	r0, r4
 373 00b6 FFF7FEFF 		bl	UART_CheckIdleState
 374              	.LVL23:
 375              	.L14:
 241:Drivers/STM32G4xx_HAL_Driver/Src/stm32g4xx_hal_uart_ex.c **** 
 376              		.loc 1 241 1 view .LVU94
 377 00ba F8BD     		pop	{r3, r4, r5, r6, r7, pc}
 378              	.LVL24:
 379              	.L26:
 180:Drivers/STM32G4xx_HAL_Driver/Src/stm32g4xx_hal_uart_ex.c **** 
 380              		.loc 1 180 3 discriminator 2 view .LVU95
 381 00bc B421     		movs	r1, #180
 382 00be 0E48     		ldr	r0, .L31+4
 383 00c0 FFF7FEFF 		bl	assert_failed
 384              	.LVL25:
 385 00c4 C3E7     		b	.L16
 386              	.L27:
 183:Drivers/STM32G4xx_HAL_Driver/Src/stm32g4xx_hal_uart_ex.c **** 
 387              		.loc 1 183 3 discriminator 1 view .LVU96
 388 00c6 B721     		movs	r1, #183
 389 00c8 0B48     		ldr	r0, .L31+4
 390 00ca FFF7FEFF 		bl	assert_failed
 391              	.LVL26:
 392 00ce C0E7     		b	.L17
 393              	.L28:
 186:Drivers/STM32G4xx_HAL_Driver/Src/stm32g4xx_hal_uart_ex.c **** 
 394              		.loc 1 186 3 discriminator 1 view .LVU97
 395 00d0 BA21     		movs	r1, #186
 396 00d2 0948     		ldr	r0, .L31+4
 397 00d4 FFF7FEFF 		bl	assert_failed
 398              	.LVL27:
 399 00d8 BDE7     		b	.L18
 400              	.L29:
 191:Drivers/STM32G4xx_HAL_Driver/Src/stm32g4xx_hal_uart_ex.c **** 
ARM GAS  /tmp/ccbMW3Yu.s 			page 22


 401              		.loc 1 191 5 is_stmt 1 view .LVU98
 191:Drivers/STM32G4xx_HAL_Driver/Src/stm32g4xx_hal_uart_ex.c **** 
 402              		.loc 1 191 17 is_stmt 0 view .LVU99
 403 00da 84F87C30 		strb	r3, [r4, #124]
 205:Drivers/STM32G4xx_HAL_Driver/Src/stm32g4xx_hal_uart_ex.c **** #endif /* (USE_HAL_UART_REGISTER_CALLBACKS) */
 404              		.loc 1 205 5 is_stmt 1 view .LVU100
 405 00de 2046     		mov	r0, r4
 406 00e0 FFF7FEFF 		bl	HAL_UART_MspInit
 407              	.LVL28:
 408 00e4 BBE7     		b	.L19
 409              	.L30:
 222:Drivers/STM32G4xx_HAL_Driver/Src/stm32g4xx_hal_uart_ex.c ****   }
 410              		.loc 1 222 5 view .LVU101
 411 00e6 2046     		mov	r0, r4
 412 00e8 FFF7FEFF 		bl	UART_AdvFeatureConfig
 413              	.LVL29:
 414 00ec C7E7     		b	.L20
 415              	.LVL30:
 416              	.L21:
 417              	.LCFI8:
 418              		.cfi_def_cfa_offset 0
 419              		.cfi_restore 3
 420              		.cfi_restore 4
 421              		.cfi_restore 5
 422              		.cfi_restore 6
 423              		.cfi_restore 7
 424              		.cfi_restore 14
 174:Drivers/STM32G4xx_HAL_Driver/Src/stm32g4xx_hal_uart_ex.c ****   }
 425              		.loc 1 174 12 is_stmt 0 view .LVU102
 426 00ee 0120     		movs	r0, #1
 427              	.LVL31:
 241:Drivers/STM32G4xx_HAL_Driver/Src/stm32g4xx_hal_uart_ex.c **** 
 428              		.loc 1 241 1 view .LVU103
 429 00f0 7047     		bx	lr
 430              	.L32:
 431 00f2 00BF     		.align	2
 432              	.L31:
 433 00f4 00380140 		.word	1073821696
 434 00f8 00000000 		.word	.LC2
 435              		.cfi_endproc
 436              	.LFE132:
 438              		.section	.text.HAL_UARTEx_WakeupCallback,"ax",%progbits
 439              		.align	1
 440              		.weak	HAL_UARTEx_WakeupCallback
 441              		.syntax unified
 442              		.thumb
 443              		.thumb_func
 444              		.fpu fpv4-sp-d16
 446              	HAL_UARTEx_WakeupCallback:
 447              	.LVL32:
 448              	.LFB133:
 273:Drivers/STM32G4xx_HAL_Driver/Src/stm32g4xx_hal_uart_ex.c ****   /* Prevent unused argument(s) compilation warning */
 449              		.loc 1 273 1 is_stmt 1 view -0
 450              		.cfi_startproc
 451              		@ args = 0, pretend = 0, frame = 0
 452              		@ frame_needed = 0, uses_anonymous_args = 0
 453              		@ link register save eliminated.
ARM GAS  /tmp/ccbMW3Yu.s 			page 23


 275:Drivers/STM32G4xx_HAL_Driver/Src/stm32g4xx_hal_uart_ex.c **** 
 454              		.loc 1 275 3 view .LVU105
 280:Drivers/STM32G4xx_HAL_Driver/Src/stm32g4xx_hal_uart_ex.c **** 
 455              		.loc 1 280 1 is_stmt 0 view .LVU106
 456 0000 7047     		bx	lr
 457              		.cfi_endproc
 458              	.LFE133:
 460              		.section	.text.HAL_UARTEx_RxFifoFullCallback,"ax",%progbits
 461              		.align	1
 462              		.weak	HAL_UARTEx_RxFifoFullCallback
 463              		.syntax unified
 464              		.thumb
 465              		.thumb_func
 466              		.fpu fpv4-sp-d16
 468              	HAL_UARTEx_RxFifoFullCallback:
 469              	.LVL33:
 470              	.LFB134:
 288:Drivers/STM32G4xx_HAL_Driver/Src/stm32g4xx_hal_uart_ex.c ****   /* Prevent unused argument(s) compilation warning */
 471              		.loc 1 288 1 is_stmt 1 view -0
 472              		.cfi_startproc
 473              		@ args = 0, pretend = 0, frame = 0
 474              		@ frame_needed = 0, uses_anonymous_args = 0
 475              		@ link register save eliminated.
 290:Drivers/STM32G4xx_HAL_Driver/Src/stm32g4xx_hal_uart_ex.c **** 
 476              		.loc 1 290 3 view .LVU108
 295:Drivers/STM32G4xx_HAL_Driver/Src/stm32g4xx_hal_uart_ex.c **** 
 477              		.loc 1 295 1 is_stmt 0 view .LVU109
 478 0000 7047     		bx	lr
 479              		.cfi_endproc
 480              	.LFE134:
 482              		.section	.text.HAL_UARTEx_TxFifoEmptyCallback,"ax",%progbits
 483              		.align	1
 484              		.weak	HAL_UARTEx_TxFifoEmptyCallback
 485              		.syntax unified
 486              		.thumb
 487              		.thumb_func
 488              		.fpu fpv4-sp-d16
 490              	HAL_UARTEx_TxFifoEmptyCallback:
 491              	.LVL34:
 492              	.LFB135:
 303:Drivers/STM32G4xx_HAL_Driver/Src/stm32g4xx_hal_uart_ex.c ****   /* Prevent unused argument(s) compilation warning */
 493              		.loc 1 303 1 is_stmt 1 view -0
 494              		.cfi_startproc
 495              		@ args = 0, pretend = 0, frame = 0
 496              		@ frame_needed = 0, uses_anonymous_args = 0
 497              		@ link register save eliminated.
 305:Drivers/STM32G4xx_HAL_Driver/Src/stm32g4xx_hal_uart_ex.c **** 
 498              		.loc 1 305 3 view .LVU111
 310:Drivers/STM32G4xx_HAL_Driver/Src/stm32g4xx_hal_uart_ex.c **** 
 499              		.loc 1 310 1 is_stmt 0 view .LVU112
 500 0000 7047     		bx	lr
 501              		.cfi_endproc
 502              	.LFE135:
 504              		.section	.text.HAL_MultiProcessorEx_AddressLength_Set,"ax",%progbits
 505              		.align	1
 506              		.global	HAL_MultiProcessorEx_AddressLength_Set
 507              		.syntax unified
ARM GAS  /tmp/ccbMW3Yu.s 			page 24


 508              		.thumb
 509              		.thumb_func
 510              		.fpu fpv4-sp-d16
 512              	HAL_MultiProcessorEx_AddressLength_Set:
 513              	.LVL35:
 514              	.LFB136:
 353:Drivers/STM32G4xx_HAL_Driver/Src/stm32g4xx_hal_uart_ex.c ****   /* Check the UART handle allocation */
 515              		.loc 1 353 1 is_stmt 1 view -0
 516              		.cfi_startproc
 517              		@ args = 0, pretend = 0, frame = 0
 518              		@ frame_needed = 0, uses_anonymous_args = 0
 355:Drivers/STM32G4xx_HAL_Driver/Src/stm32g4xx_hal_uart_ex.c ****   {
 519              		.loc 1 355 3 view .LVU114
 355:Drivers/STM32G4xx_HAL_Driver/Src/stm32g4xx_hal_uart_ex.c ****   {
 520              		.loc 1 355 6 is_stmt 0 view .LVU115
 521 0000 10B3     		cbz	r0, .L39
 353:Drivers/STM32G4xx_HAL_Driver/Src/stm32g4xx_hal_uart_ex.c ****   /* Check the UART handle allocation */
 522              		.loc 1 353 1 view .LVU116
 523 0002 38B5     		push	{r3, r4, r5, lr}
 524              	.LCFI9:
 525              		.cfi_def_cfa_offset 16
 526              		.cfi_offset 3, -16
 527              		.cfi_offset 4, -12
 528              		.cfi_offset 5, -8
 529              		.cfi_offset 14, -4
 530 0004 0D46     		mov	r5, r1
 531 0006 0446     		mov	r4, r0
 361:Drivers/STM32G4xx_HAL_Driver/Src/stm32g4xx_hal_uart_ex.c **** 
 532              		.loc 1 361 3 is_stmt 1 view .LVU117
 533 0008 09B1     		cbz	r1, .L38
 361:Drivers/STM32G4xx_HAL_Driver/Src/stm32g4xx_hal_uart_ex.c **** 
 534              		.loc 1 361 3 is_stmt 0 discriminator 1 view .LVU118
 535 000a 1029     		cmp	r1, #16
 536 000c 16D1     		bne	.L44
 537              	.LVL36:
 538              	.L38:
 363:Drivers/STM32G4xx_HAL_Driver/Src/stm32g4xx_hal_uart_ex.c **** 
 539              		.loc 1 363 3 is_stmt 1 view .LVU119
 363:Drivers/STM32G4xx_HAL_Driver/Src/stm32g4xx_hal_uart_ex.c **** 
 540              		.loc 1 363 17 is_stmt 0 view .LVU120
 541 000e 2423     		movs	r3, #36
 542 0010 C4F88030 		str	r3, [r4, #128]
 366:Drivers/STM32G4xx_HAL_Driver/Src/stm32g4xx_hal_uart_ex.c **** 
 543              		.loc 1 366 3 is_stmt 1 view .LVU121
 544 0014 2268     		ldr	r2, [r4]
 545 0016 1368     		ldr	r3, [r2]
 546 0018 23F00103 		bic	r3, r3, #1
 547 001c 1360     		str	r3, [r2]
 369:Drivers/STM32G4xx_HAL_Driver/Src/stm32g4xx_hal_uart_ex.c **** 
 548              		.loc 1 369 3 view .LVU122
 549 001e 2368     		ldr	r3, [r4]
 550 0020 5968     		ldr	r1, [r3, #4]
 551 0022 21F01001 		bic	r1, r1, #16
 552 0026 0D43     		orrs	r5, r5, r1
 553              	.LVL37:
 369:Drivers/STM32G4xx_HAL_Driver/Src/stm32g4xx_hal_uart_ex.c **** 
 554              		.loc 1 369 3 is_stmt 0 view .LVU123
ARM GAS  /tmp/ccbMW3Yu.s 			page 25


 555 0028 5D60     		str	r5, [r3, #4]
 372:Drivers/STM32G4xx_HAL_Driver/Src/stm32g4xx_hal_uart_ex.c **** 
 556              		.loc 1 372 3 is_stmt 1 view .LVU124
 557 002a 2268     		ldr	r2, [r4]
 558 002c 1368     		ldr	r3, [r2]
 559 002e 43F00103 		orr	r3, r3, #1
 560 0032 1360     		str	r3, [r2]
 375:Drivers/STM32G4xx_HAL_Driver/Src/stm32g4xx_hal_uart_ex.c **** }
 561              		.loc 1 375 3 view .LVU125
 375:Drivers/STM32G4xx_HAL_Driver/Src/stm32g4xx_hal_uart_ex.c **** }
 562              		.loc 1 375 11 is_stmt 0 view .LVU126
 563 0034 2046     		mov	r0, r4
 564 0036 FFF7FEFF 		bl	UART_CheckIdleState
 565              	.LVL38:
 376:Drivers/STM32G4xx_HAL_Driver/Src/stm32g4xx_hal_uart_ex.c **** 
 566              		.loc 1 376 1 view .LVU127
 567 003a 38BD     		pop	{r3, r4, r5, pc}
 568              	.LVL39:
 569              	.L44:
 361:Drivers/STM32G4xx_HAL_Driver/Src/stm32g4xx_hal_uart_ex.c **** 
 570              		.loc 1 361 3 discriminator 2 view .LVU128
 571 003c 40F26911 		movw	r1, #361
 572              	.LVL40:
 361:Drivers/STM32G4xx_HAL_Driver/Src/stm32g4xx_hal_uart_ex.c **** 
 573              		.loc 1 361 3 discriminator 2 view .LVU129
 574 0040 0248     		ldr	r0, .L45
 575              	.LVL41:
 361:Drivers/STM32G4xx_HAL_Driver/Src/stm32g4xx_hal_uart_ex.c **** 
 576              		.loc 1 361 3 discriminator 2 view .LVU130
 577 0042 FFF7FEFF 		bl	assert_failed
 578              	.LVL42:
 579 0046 E2E7     		b	.L38
 580              	.LVL43:
 581              	.L39:
 582              	.LCFI10:
 583              		.cfi_def_cfa_offset 0
 584              		.cfi_restore 3
 585              		.cfi_restore 4
 586              		.cfi_restore 5
 587              		.cfi_restore 14
 357:Drivers/STM32G4xx_HAL_Driver/Src/stm32g4xx_hal_uart_ex.c ****   }
 588              		.loc 1 357 12 view .LVU131
 589 0048 0120     		movs	r0, #1
 590              	.LVL44:
 376:Drivers/STM32G4xx_HAL_Driver/Src/stm32g4xx_hal_uart_ex.c **** 
 591              		.loc 1 376 1 view .LVU132
 592 004a 7047     		bx	lr
 593              	.L46:
 594              		.align	2
 595              	.L45:
 596 004c 00000000 		.word	.LC2
 597              		.cfi_endproc
 598              	.LFE136:
 600              		.section	.text.HAL_UARTEx_StopModeWakeUpSourceConfig,"ax",%progbits
 601              		.align	1
 602              		.global	HAL_UARTEx_StopModeWakeUpSourceConfig
 603              		.syntax unified
ARM GAS  /tmp/ccbMW3Yu.s 			page 26


 604              		.thumb
 605              		.thumb_func
 606              		.fpu fpv4-sp-d16
 608              	HAL_UARTEx_StopModeWakeUpSourceConfig:
 609              	.LVL45:
 610              	.LFB137:
 391:Drivers/STM32G4xx_HAL_Driver/Src/stm32g4xx_hal_uart_ex.c ****   HAL_StatusTypeDef status = HAL_OK;
 611              		.loc 1 391 1 is_stmt 1 view -0
 612              		.cfi_startproc
 613              		@ args = 0, pretend = 0, frame = 8
 614              		@ frame_needed = 0, uses_anonymous_args = 0
 391:Drivers/STM32G4xx_HAL_Driver/Src/stm32g4xx_hal_uart_ex.c ****   HAL_StatusTypeDef status = HAL_OK;
 615              		.loc 1 391 1 is_stmt 0 view .LVU134
 616 0000 30B5     		push	{r4, r5, lr}
 617              	.LCFI11:
 618              		.cfi_def_cfa_offset 12
 619              		.cfi_offset 4, -12
 620              		.cfi_offset 5, -8
 621              		.cfi_offset 14, -4
 622 0002 85B0     		sub	sp, sp, #20
 623              	.LCFI12:
 624              		.cfi_def_cfa_offset 32
 625 0004 0446     		mov	r4, r0
 626 0006 04AB     		add	r3, sp, #16
 627 0008 03E90600 		stmdb	r3, {r1, r2}
 392:Drivers/STM32G4xx_HAL_Driver/Src/stm32g4xx_hal_uart_ex.c ****   uint32_t tickstart;
 628              		.loc 1 392 3 is_stmt 1 view .LVU135
 629              	.LVL46:
 393:Drivers/STM32G4xx_HAL_Driver/Src/stm32g4xx_hal_uart_ex.c **** 
 630              		.loc 1 393 3 view .LVU136
 396:Drivers/STM32G4xx_HAL_Driver/Src/stm32g4xx_hal_uart_ex.c ****   /* check the wake-up selection parameter */
 631              		.loc 1 396 3 view .LVU137
 632 000c 0368     		ldr	r3, [r0]
 633 000e 324A     		ldr	r2, .L58
 634 0010 9342     		cmp	r3, r2
 635 0012 18D0     		beq	.L48
 396:Drivers/STM32G4xx_HAL_Driver/Src/stm32g4xx_hal_uart_ex.c ****   /* check the wake-up selection parameter */
 636              		.loc 1 396 3 is_stmt 0 discriminator 1 view .LVU138
 637 0014 A2F57442 		sub	r2, r2, #62464
 638 0018 9342     		cmp	r3, r2
 639 001a 14D0     		beq	.L48
 396:Drivers/STM32G4xx_HAL_Driver/Src/stm32g4xx_hal_uart_ex.c ****   /* check the wake-up selection parameter */
 640              		.loc 1 396 3 discriminator 2 view .LVU139
 641 001c 02F58062 		add	r2, r2, #1024
 642 0020 9342     		cmp	r3, r2
 643 0022 10D0     		beq	.L48
 396:Drivers/STM32G4xx_HAL_Driver/Src/stm32g4xx_hal_uart_ex.c ****   /* check the wake-up selection parameter */
 644              		.loc 1 396 3 discriminator 3 view .LVU140
 645 0024 02F58062 		add	r2, r2, #1024
 646 0028 9342     		cmp	r3, r2
 647 002a 0CD0     		beq	.L48
 396:Drivers/STM32G4xx_HAL_Driver/Src/stm32g4xx_hal_uart_ex.c ****   /* check the wake-up selection parameter */
 648              		.loc 1 396 3 discriminator 4 view .LVU141
 649 002c 02F58062 		add	r2, r2, #1024
 650 0030 9342     		cmp	r3, r2
 651 0032 08D0     		beq	.L48
 396:Drivers/STM32G4xx_HAL_Driver/Src/stm32g4xx_hal_uart_ex.c ****   /* check the wake-up selection parameter */
ARM GAS  /tmp/ccbMW3Yu.s 			page 27


 652              		.loc 1 396 3 discriminator 5 view .LVU142
 653 0034 02F54052 		add	r2, r2, #12288
 654 0038 9342     		cmp	r3, r2
 655 003a 04D0     		beq	.L48
 396:Drivers/STM32G4xx_HAL_Driver/Src/stm32g4xx_hal_uart_ex.c ****   /* check the wake-up selection parameter */
 656              		.loc 1 396 3 discriminator 6 view .LVU143
 657 003c 4FF4C671 		mov	r1, #396
 658 0040 2648     		ldr	r0, .L58+4
 659              	.LVL47:
 396:Drivers/STM32G4xx_HAL_Driver/Src/stm32g4xx_hal_uart_ex.c ****   /* check the wake-up selection parameter */
 660              		.loc 1 396 3 discriminator 6 view .LVU144
 661 0042 FFF7FEFF 		bl	assert_failed
 662              	.LVL48:
 663              	.L48:
 398:Drivers/STM32G4xx_HAL_Driver/Src/stm32g4xx_hal_uart_ex.c **** 
 664              		.loc 1 398 3 is_stmt 1 view .LVU145
 665 0046 029D     		ldr	r5, [sp, #8]
 666 0048 2DB1     		cbz	r5, .L49
 398:Drivers/STM32G4xx_HAL_Driver/Src/stm32g4xx_hal_uart_ex.c **** 
 667              		.loc 1 398 3 is_stmt 0 discriminator 1 view .LVU146
 668 004a B5F5001F 		cmp	r5, #2097152
 669 004e 02D0     		beq	.L49
 398:Drivers/STM32G4xx_HAL_Driver/Src/stm32g4xx_hal_uart_ex.c **** 
 670              		.loc 1 398 3 discriminator 2 view .LVU147
 671 0050 B5F5401F 		cmp	r5, #3145728
 672 0054 2FD1     		bne	.L56
 673              	.L49:
 401:Drivers/STM32G4xx_HAL_Driver/Src/stm32g4xx_hal_uart_ex.c **** 
 674              		.loc 1 401 3 is_stmt 1 view .LVU148
 401:Drivers/STM32G4xx_HAL_Driver/Src/stm32g4xx_hal_uart_ex.c **** 
 675              		.loc 1 401 3 view .LVU149
 676 0056 94F87C30 		ldrb	r3, [r4, #124]	@ zero_extendqisi2
 677 005a 012B     		cmp	r3, #1
 678 005c 3AD0     		beq	.L53
 401:Drivers/STM32G4xx_HAL_Driver/Src/stm32g4xx_hal_uart_ex.c **** 
 679              		.loc 1 401 3 discriminator 2 view .LVU150
 680 005e 0123     		movs	r3, #1
 681 0060 84F87C30 		strb	r3, [r4, #124]
 401:Drivers/STM32G4xx_HAL_Driver/Src/stm32g4xx_hal_uart_ex.c **** 
 682              		.loc 1 401 3 discriminator 2 view .LVU151
 403:Drivers/STM32G4xx_HAL_Driver/Src/stm32g4xx_hal_uart_ex.c **** 
 683              		.loc 1 403 3 discriminator 2 view .LVU152
 403:Drivers/STM32G4xx_HAL_Driver/Src/stm32g4xx_hal_uart_ex.c **** 
 684              		.loc 1 403 17 is_stmt 0 discriminator 2 view .LVU153
 685 0064 2423     		movs	r3, #36
 686 0066 C4F88030 		str	r3, [r4, #128]
 406:Drivers/STM32G4xx_HAL_Driver/Src/stm32g4xx_hal_uart_ex.c **** 
 687              		.loc 1 406 3 is_stmt 1 discriminator 2 view .LVU154
 688 006a 2268     		ldr	r2, [r4]
 689 006c 1368     		ldr	r3, [r2]
 690 006e 23F00103 		bic	r3, r3, #1
 691 0072 1360     		str	r3, [r2]
 409:Drivers/STM32G4xx_HAL_Driver/Src/stm32g4xx_hal_uart_ex.c **** 
 692              		.loc 1 409 3 discriminator 2 view .LVU155
 693 0074 2268     		ldr	r2, [r4]
 694 0076 9368     		ldr	r3, [r2, #8]
 695 0078 23F44013 		bic	r3, r3, #3145728
ARM GAS  /tmp/ccbMW3Yu.s 			page 28


 696 007c 2B43     		orrs	r3, r3, r5
 697 007e 9360     		str	r3, [r2, #8]
 411:Drivers/STM32G4xx_HAL_Driver/Src/stm32g4xx_hal_uart_ex.c ****   {
 698              		.loc 1 411 3 discriminator 2 view .LVU156
 411:Drivers/STM32G4xx_HAL_Driver/Src/stm32g4xx_hal_uart_ex.c ****   {
 699              		.loc 1 411 6 is_stmt 0 discriminator 2 view .LVU157
 700 0080 FDB1     		cbz	r5, .L57
 701              	.L51:
 417:Drivers/STM32G4xx_HAL_Driver/Src/stm32g4xx_hal_uart_ex.c **** 
 702              		.loc 1 417 3 is_stmt 1 view .LVU158
 703 0082 2268     		ldr	r2, [r4]
 704 0084 1368     		ldr	r3, [r2]
 705 0086 43F00103 		orr	r3, r3, #1
 706 008a 1360     		str	r3, [r2]
 420:Drivers/STM32G4xx_HAL_Driver/Src/stm32g4xx_hal_uart_ex.c **** 
 707              		.loc 1 420 3 view .LVU159
 420:Drivers/STM32G4xx_HAL_Driver/Src/stm32g4xx_hal_uart_ex.c **** 
 708              		.loc 1 420 15 is_stmt 0 view .LVU160
 709 008c FFF7FEFF 		bl	HAL_GetTick
 710              	.LVL49:
 711 0090 0346     		mov	r3, r0
 712              	.LVL50:
 423:Drivers/STM32G4xx_HAL_Driver/Src/stm32g4xx_hal_uart_ex.c ****   {
 713              		.loc 1 423 3 is_stmt 1 view .LVU161
 423:Drivers/STM32G4xx_HAL_Driver/Src/stm32g4xx_hal_uart_ex.c ****   {
 714              		.loc 1 423 7 is_stmt 0 view .LVU162
 715 0092 6FF07E42 		mvn	r2, #-33554432
 716 0096 0092     		str	r2, [sp]
 717 0098 0022     		movs	r2, #0
 718 009a 4FF48001 		mov	r1, #4194304
 719 009e 2046     		mov	r0, r4
 720              	.LVL51:
 423:Drivers/STM32G4xx_HAL_Driver/Src/stm32g4xx_hal_uart_ex.c ****   {
 721              		.loc 1 423 7 view .LVU163
 722 00a0 FFF7FEFF 		bl	UART_WaitOnFlagUntilTimeout
 723              	.LVL52:
 423:Drivers/STM32G4xx_HAL_Driver/Src/stm32g4xx_hal_uart_ex.c ****   {
 724              		.loc 1 423 6 view .LVU164
 725 00a4 A0B9     		cbnz	r0, .L54
 430:Drivers/STM32G4xx_HAL_Driver/Src/stm32g4xx_hal_uart_ex.c ****   }
 726              		.loc 1 430 5 is_stmt 1 view .LVU165
 430:Drivers/STM32G4xx_HAL_Driver/Src/stm32g4xx_hal_uart_ex.c ****   }
 727              		.loc 1 430 19 is_stmt 0 view .LVU166
 728 00a6 2023     		movs	r3, #32
 729 00a8 C4F88030 		str	r3, [r4, #128]
 730              	.L52:
 731              	.LVL53:
 434:Drivers/STM32G4xx_HAL_Driver/Src/stm32g4xx_hal_uart_ex.c **** 
 732              		.loc 1 434 3 is_stmt 1 view .LVU167
 434:Drivers/STM32G4xx_HAL_Driver/Src/stm32g4xx_hal_uart_ex.c **** 
 733              		.loc 1 434 3 view .LVU168
 734 00ac 0023     		movs	r3, #0
 735 00ae 84F87C30 		strb	r3, [r4, #124]
 434:Drivers/STM32G4xx_HAL_Driver/Src/stm32g4xx_hal_uart_ex.c **** 
 736              		.loc 1 434 3 view .LVU169
 436:Drivers/STM32G4xx_HAL_Driver/Src/stm32g4xx_hal_uart_ex.c **** }
 737              		.loc 1 436 3 view .LVU170
ARM GAS  /tmp/ccbMW3Yu.s 			page 29


 738              	.LVL54:
 739              	.L50:
 437:Drivers/STM32G4xx_HAL_Driver/Src/stm32g4xx_hal_uart_ex.c **** 
 740              		.loc 1 437 1 is_stmt 0 view .LVU171
 741 00b2 05B0     		add	sp, sp, #20
 742              	.LCFI13:
 743              		.cfi_remember_state
 744              		.cfi_def_cfa_offset 12
 745              		@ sp needed
 746 00b4 30BD     		pop	{r4, r5, pc}
 747              	.LVL55:
 748              	.L56:
 749              	.LCFI14:
 750              		.cfi_restore_state
 398:Drivers/STM32G4xx_HAL_Driver/Src/stm32g4xx_hal_uart_ex.c **** 
 751              		.loc 1 398 3 discriminator 3 view .LVU172
 752 00b6 4FF4C771 		mov	r1, #398
 753 00ba 0848     		ldr	r0, .L58+4
 754 00bc FFF7FEFF 		bl	assert_failed
 755              	.LVL56:
 756 00c0 C9E7     		b	.L49
 757              	.L57:
 413:Drivers/STM32G4xx_HAL_Driver/Src/stm32g4xx_hal_uart_ex.c ****   }
 758              		.loc 1 413 5 is_stmt 1 view .LVU173
 759 00c2 04AB     		add	r3, sp, #16
 760 00c4 13E90600 		ldmdb	r3, {r1, r2}
 761 00c8 2046     		mov	r0, r4
 762 00ca FFF7FEFF 		bl	UARTEx_Wakeup_AddressConfig
 763              	.LVL57:
 764 00ce D8E7     		b	.L51
 765              	.L54:
 425:Drivers/STM32G4xx_HAL_Driver/Src/stm32g4xx_hal_uart_ex.c ****   }
 766              		.loc 1 425 12 is_stmt 0 view .LVU174
 767 00d0 0320     		movs	r0, #3
 768 00d2 EBE7     		b	.L52
 769              	.L53:
 401:Drivers/STM32G4xx_HAL_Driver/Src/stm32g4xx_hal_uart_ex.c **** 
 770              		.loc 1 401 3 view .LVU175
 771 00d4 0220     		movs	r0, #2
 772 00d6 ECE7     		b	.L50
 773              	.L59:
 774              		.align	2
 775              	.L58:
 776 00d8 00380140 		.word	1073821696
 777 00dc 00000000 		.word	.LC2
 778              		.cfi_endproc
 779              	.LFE137:
 781              		.section	.text.HAL_UARTEx_EnableStopMode,"ax",%progbits
 782              		.align	1
 783              		.global	HAL_UARTEx_EnableStopMode
 784              		.syntax unified
 785              		.thumb
 786              		.thumb_func
 787              		.fpu fpv4-sp-d16
 789              	HAL_UARTEx_EnableStopMode:
 790              	.LVL58:
 791              	.LFB138:
ARM GAS  /tmp/ccbMW3Yu.s 			page 30


 446:Drivers/STM32G4xx_HAL_Driver/Src/stm32g4xx_hal_uart_ex.c ****   /* Process Locked */
 792              		.loc 1 446 1 is_stmt 1 view -0
 793              		.cfi_startproc
 794              		@ args = 0, pretend = 0, frame = 0
 795              		@ frame_needed = 0, uses_anonymous_args = 0
 796              		@ link register save eliminated.
 448:Drivers/STM32G4xx_HAL_Driver/Src/stm32g4xx_hal_uart_ex.c **** 
 797              		.loc 1 448 3 view .LVU177
 448:Drivers/STM32G4xx_HAL_Driver/Src/stm32g4xx_hal_uart_ex.c **** 
 798              		.loc 1 448 3 view .LVU178
 799 0000 90F87C30 		ldrb	r3, [r0, #124]	@ zero_extendqisi2
 800 0004 012B     		cmp	r3, #1
 801 0006 0CD0     		beq	.L62
 448:Drivers/STM32G4xx_HAL_Driver/Src/stm32g4xx_hal_uart_ex.c **** 
 802              		.loc 1 448 3 discriminator 2 view .LVU179
 803 0008 0123     		movs	r3, #1
 804 000a 80F87C30 		strb	r3, [r0, #124]
 448:Drivers/STM32G4xx_HAL_Driver/Src/stm32g4xx_hal_uart_ex.c **** 
 805              		.loc 1 448 3 discriminator 2 view .LVU180
 451:Drivers/STM32G4xx_HAL_Driver/Src/stm32g4xx_hal_uart_ex.c **** 
 806              		.loc 1 451 3 discriminator 2 view .LVU181
 807 000e 0268     		ldr	r2, [r0]
 808 0010 1368     		ldr	r3, [r2]
 809 0012 43F00203 		orr	r3, r3, #2
 810 0016 1360     		str	r3, [r2]
 454:Drivers/STM32G4xx_HAL_Driver/Src/stm32g4xx_hal_uart_ex.c **** 
 811              		.loc 1 454 3 discriminator 2 view .LVU182
 454:Drivers/STM32G4xx_HAL_Driver/Src/stm32g4xx_hal_uart_ex.c **** 
 812              		.loc 1 454 3 discriminator 2 view .LVU183
 813 0018 0023     		movs	r3, #0
 814 001a 80F87C30 		strb	r3, [r0, #124]
 454:Drivers/STM32G4xx_HAL_Driver/Src/stm32g4xx_hal_uart_ex.c **** 
 815              		.loc 1 454 3 discriminator 2 view .LVU184
 456:Drivers/STM32G4xx_HAL_Driver/Src/stm32g4xx_hal_uart_ex.c **** }
 816              		.loc 1 456 3 discriminator 2 view .LVU185
 456:Drivers/STM32G4xx_HAL_Driver/Src/stm32g4xx_hal_uart_ex.c **** }
 817              		.loc 1 456 10 is_stmt 0 discriminator 2 view .LVU186
 818 001e 1846     		mov	r0, r3
 819              	.LVL59:
 456:Drivers/STM32G4xx_HAL_Driver/Src/stm32g4xx_hal_uart_ex.c **** }
 820              		.loc 1 456 10 discriminator 2 view .LVU187
 821 0020 7047     		bx	lr
 822              	.LVL60:
 823              	.L62:
 448:Drivers/STM32G4xx_HAL_Driver/Src/stm32g4xx_hal_uart_ex.c **** 
 824              		.loc 1 448 3 view .LVU188
 825 0022 0220     		movs	r0, #2
 826              	.LVL61:
 457:Drivers/STM32G4xx_HAL_Driver/Src/stm32g4xx_hal_uart_ex.c **** 
 827              		.loc 1 457 1 view .LVU189
 828 0024 7047     		bx	lr
 829              		.cfi_endproc
 830              	.LFE138:
 832              		.section	.text.HAL_UARTEx_DisableStopMode,"ax",%progbits
 833              		.align	1
 834              		.global	HAL_UARTEx_DisableStopMode
 835              		.syntax unified
ARM GAS  /tmp/ccbMW3Yu.s 			page 31


 836              		.thumb
 837              		.thumb_func
 838              		.fpu fpv4-sp-d16
 840              	HAL_UARTEx_DisableStopMode:
 841              	.LVL62:
 842              	.LFB139:
 465:Drivers/STM32G4xx_HAL_Driver/Src/stm32g4xx_hal_uart_ex.c ****   /* Process Locked */
 843              		.loc 1 465 1 is_stmt 1 view -0
 844              		.cfi_startproc
 845              		@ args = 0, pretend = 0, frame = 0
 846              		@ frame_needed = 0, uses_anonymous_args = 0
 847              		@ link register save eliminated.
 467:Drivers/STM32G4xx_HAL_Driver/Src/stm32g4xx_hal_uart_ex.c **** 
 848              		.loc 1 467 3 view .LVU191
 467:Drivers/STM32G4xx_HAL_Driver/Src/stm32g4xx_hal_uart_ex.c **** 
 849              		.loc 1 467 3 view .LVU192
 850 0000 90F87C30 		ldrb	r3, [r0, #124]	@ zero_extendqisi2
 851 0004 012B     		cmp	r3, #1
 852 0006 0CD0     		beq	.L65
 467:Drivers/STM32G4xx_HAL_Driver/Src/stm32g4xx_hal_uart_ex.c **** 
 853              		.loc 1 467 3 discriminator 2 view .LVU193
 854 0008 0123     		movs	r3, #1
 855 000a 80F87C30 		strb	r3, [r0, #124]
 467:Drivers/STM32G4xx_HAL_Driver/Src/stm32g4xx_hal_uart_ex.c **** 
 856              		.loc 1 467 3 discriminator 2 view .LVU194
 470:Drivers/STM32G4xx_HAL_Driver/Src/stm32g4xx_hal_uart_ex.c **** 
 857              		.loc 1 470 3 discriminator 2 view .LVU195
 858 000e 0268     		ldr	r2, [r0]
 859 0010 1368     		ldr	r3, [r2]
 860 0012 23F00203 		bic	r3, r3, #2
 861 0016 1360     		str	r3, [r2]
 473:Drivers/STM32G4xx_HAL_Driver/Src/stm32g4xx_hal_uart_ex.c **** 
 862              		.loc 1 473 3 discriminator 2 view .LVU196
 473:Drivers/STM32G4xx_HAL_Driver/Src/stm32g4xx_hal_uart_ex.c **** 
 863              		.loc 1 473 3 discriminator 2 view .LVU197
 864 0018 0023     		movs	r3, #0
 865 001a 80F87C30 		strb	r3, [r0, #124]
 473:Drivers/STM32G4xx_HAL_Driver/Src/stm32g4xx_hal_uart_ex.c **** 
 866              		.loc 1 473 3 discriminator 2 view .LVU198
 475:Drivers/STM32G4xx_HAL_Driver/Src/stm32g4xx_hal_uart_ex.c **** }
 867              		.loc 1 475 3 discriminator 2 view .LVU199
 475:Drivers/STM32G4xx_HAL_Driver/Src/stm32g4xx_hal_uart_ex.c **** }
 868              		.loc 1 475 10 is_stmt 0 discriminator 2 view .LVU200
 869 001e 1846     		mov	r0, r3
 870              	.LVL63:
 475:Drivers/STM32G4xx_HAL_Driver/Src/stm32g4xx_hal_uart_ex.c **** }
 871              		.loc 1 475 10 discriminator 2 view .LVU201
 872 0020 7047     		bx	lr
 873              	.LVL64:
 874              	.L65:
 467:Drivers/STM32G4xx_HAL_Driver/Src/stm32g4xx_hal_uart_ex.c **** 
 875              		.loc 1 467 3 view .LVU202
 876 0022 0220     		movs	r0, #2
 877              	.LVL65:
 476:Drivers/STM32G4xx_HAL_Driver/Src/stm32g4xx_hal_uart_ex.c **** 
 878              		.loc 1 476 1 view .LVU203
 879 0024 7047     		bx	lr
ARM GAS  /tmp/ccbMW3Yu.s 			page 32


 880              		.cfi_endproc
 881              	.LFE139:
 883              		.section	.text.HAL_UARTEx_EnableFifoMode,"ax",%progbits
 884              		.align	1
 885              		.global	HAL_UARTEx_EnableFifoMode
 886              		.syntax unified
 887              		.thumb
 888              		.thumb_func
 889              		.fpu fpv4-sp-d16
 891              	HAL_UARTEx_EnableFifoMode:
 892              	.LVL66:
 893              	.LFB140:
 484:Drivers/STM32G4xx_HAL_Driver/Src/stm32g4xx_hal_uart_ex.c ****   uint32_t tmpcr1;
 894              		.loc 1 484 1 is_stmt 1 view -0
 895              		.cfi_startproc
 896              		@ args = 0, pretend = 0, frame = 0
 897              		@ frame_needed = 0, uses_anonymous_args = 0
 484:Drivers/STM32G4xx_HAL_Driver/Src/stm32g4xx_hal_uart_ex.c ****   uint32_t tmpcr1;
 898              		.loc 1 484 1 is_stmt 0 view .LVU205
 899 0000 10B5     		push	{r4, lr}
 900              	.LCFI15:
 901              		.cfi_def_cfa_offset 8
 902              		.cfi_offset 4, -8
 903              		.cfi_offset 14, -4
 904 0002 0446     		mov	r4, r0
 485:Drivers/STM32G4xx_HAL_Driver/Src/stm32g4xx_hal_uart_ex.c **** 
 905              		.loc 1 485 3 is_stmt 1 view .LVU206
 488:Drivers/STM32G4xx_HAL_Driver/Src/stm32g4xx_hal_uart_ex.c **** 
 906              		.loc 1 488 3 view .LVU207
 907 0004 0368     		ldr	r3, [r0]
 908 0006 1F4A     		ldr	r2, .L71
 909 0008 9342     		cmp	r3, r2
 910 000a 18D0     		beq	.L67
 488:Drivers/STM32G4xx_HAL_Driver/Src/stm32g4xx_hal_uart_ex.c **** 
 911              		.loc 1 488 3 is_stmt 0 discriminator 1 view .LVU208
 912 000c A2F57442 		sub	r2, r2, #62464
 913 0010 9342     		cmp	r3, r2
 914 0012 14D0     		beq	.L67
 488:Drivers/STM32G4xx_HAL_Driver/Src/stm32g4xx_hal_uart_ex.c **** 
 915              		.loc 1 488 3 discriminator 2 view .LVU209
 916 0014 02F58062 		add	r2, r2, #1024
 917 0018 9342     		cmp	r3, r2
 918 001a 10D0     		beq	.L67
 488:Drivers/STM32G4xx_HAL_Driver/Src/stm32g4xx_hal_uart_ex.c **** 
 919              		.loc 1 488 3 discriminator 3 view .LVU210
 920 001c 02F58062 		add	r2, r2, #1024
 921 0020 9342     		cmp	r3, r2
 922 0022 0CD0     		beq	.L67
 488:Drivers/STM32G4xx_HAL_Driver/Src/stm32g4xx_hal_uart_ex.c **** 
 923              		.loc 1 488 3 discriminator 4 view .LVU211
 924 0024 02F58062 		add	r2, r2, #1024
 925 0028 9342     		cmp	r3, r2
 926 002a 08D0     		beq	.L67
 488:Drivers/STM32G4xx_HAL_Driver/Src/stm32g4xx_hal_uart_ex.c **** 
 927              		.loc 1 488 3 discriminator 5 view .LVU212
 928 002c 02F54052 		add	r2, r2, #12288
 929 0030 9342     		cmp	r3, r2
ARM GAS  /tmp/ccbMW3Yu.s 			page 33


 930 0032 04D0     		beq	.L67
 488:Drivers/STM32G4xx_HAL_Driver/Src/stm32g4xx_hal_uart_ex.c **** 
 931              		.loc 1 488 3 discriminator 6 view .LVU213
 932 0034 4FF4F471 		mov	r1, #488
 933 0038 1348     		ldr	r0, .L71+4
 934              	.LVL67:
 488:Drivers/STM32G4xx_HAL_Driver/Src/stm32g4xx_hal_uart_ex.c **** 
 935              		.loc 1 488 3 discriminator 6 view .LVU214
 936 003a FFF7FEFF 		bl	assert_failed
 937              	.LVL68:
 938              	.L67:
 491:Drivers/STM32G4xx_HAL_Driver/Src/stm32g4xx_hal_uart_ex.c **** 
 939              		.loc 1 491 3 is_stmt 1 view .LVU215
 491:Drivers/STM32G4xx_HAL_Driver/Src/stm32g4xx_hal_uart_ex.c **** 
 940              		.loc 1 491 3 view .LVU216
 941 003e 94F87C30 		ldrb	r3, [r4, #124]	@ zero_extendqisi2
 942 0042 012B     		cmp	r3, #1
 943 0044 1CD0     		beq	.L69
 491:Drivers/STM32G4xx_HAL_Driver/Src/stm32g4xx_hal_uart_ex.c **** 
 944              		.loc 1 491 3 discriminator 2 view .LVU217
 945 0046 0123     		movs	r3, #1
 946 0048 84F87C30 		strb	r3, [r4, #124]
 491:Drivers/STM32G4xx_HAL_Driver/Src/stm32g4xx_hal_uart_ex.c **** 
 947              		.loc 1 491 3 discriminator 2 view .LVU218
 493:Drivers/STM32G4xx_HAL_Driver/Src/stm32g4xx_hal_uart_ex.c **** 
 948              		.loc 1 493 3 discriminator 2 view .LVU219
 493:Drivers/STM32G4xx_HAL_Driver/Src/stm32g4xx_hal_uart_ex.c **** 
 949              		.loc 1 493 17 is_stmt 0 discriminator 2 view .LVU220
 950 004c 2423     		movs	r3, #36
 951 004e C4F88030 		str	r3, [r4, #128]
 496:Drivers/STM32G4xx_HAL_Driver/Src/stm32g4xx_hal_uart_ex.c **** 
 952              		.loc 1 496 3 is_stmt 1 discriminator 2 view .LVU221
 496:Drivers/STM32G4xx_HAL_Driver/Src/stm32g4xx_hal_uart_ex.c **** 
 953              		.loc 1 496 12 is_stmt 0 discriminator 2 view .LVU222
 954 0052 2268     		ldr	r2, [r4]
 496:Drivers/STM32G4xx_HAL_Driver/Src/stm32g4xx_hal_uart_ex.c **** 
 955              		.loc 1 496 10 discriminator 2 view .LVU223
 956 0054 1368     		ldr	r3, [r2]
 957              	.LVL69:
 499:Drivers/STM32G4xx_HAL_Driver/Src/stm32g4xx_hal_uart_ex.c **** 
 958              		.loc 1 499 3 is_stmt 1 discriminator 2 view .LVU224
 959 0056 1168     		ldr	r1, [r2]
 960 0058 21F00101 		bic	r1, r1, #1
 961 005c 1160     		str	r1, [r2]
 502:Drivers/STM32G4xx_HAL_Driver/Src/stm32g4xx_hal_uart_ex.c ****   huart->FifoMode = UART_FIFOMODE_ENABLE;
 962              		.loc 1 502 3 discriminator 2 view .LVU225
 963 005e 43F00053 		orr	r3, r3, #536870912
 964              	.LVL70:
 503:Drivers/STM32G4xx_HAL_Driver/Src/stm32g4xx_hal_uart_ex.c **** 
 965              		.loc 1 503 3 discriminator 2 view .LVU226
 503:Drivers/STM32G4xx_HAL_Driver/Src/stm32g4xx_hal_uart_ex.c **** 
 966              		.loc 1 503 19 is_stmt 0 discriminator 2 view .LVU227
 967 0062 4FF00052 		mov	r2, #536870912
 968 0066 6266     		str	r2, [r4, #100]
 506:Drivers/STM32G4xx_HAL_Driver/Src/stm32g4xx_hal_uart_ex.c **** 
 969              		.loc 1 506 3 is_stmt 1 discriminator 2 view .LVU228
 970 0068 2268     		ldr	r2, [r4]
ARM GAS  /tmp/ccbMW3Yu.s 			page 34


 971 006a 1360     		str	r3, [r2]
 509:Drivers/STM32G4xx_HAL_Driver/Src/stm32g4xx_hal_uart_ex.c **** 
 972              		.loc 1 509 3 discriminator 2 view .LVU229
 973 006c 2046     		mov	r0, r4
 974 006e FFF7FEFF 		bl	UARTEx_SetNbDataToProcess
 975              	.LVL71:
 511:Drivers/STM32G4xx_HAL_Driver/Src/stm32g4xx_hal_uart_ex.c **** 
 976              		.loc 1 511 3 discriminator 2 view .LVU230
 511:Drivers/STM32G4xx_HAL_Driver/Src/stm32g4xx_hal_uart_ex.c **** 
 977              		.loc 1 511 17 is_stmt 0 discriminator 2 view .LVU231
 978 0072 2023     		movs	r3, #32
 979 0074 C4F88030 		str	r3, [r4, #128]
 514:Drivers/STM32G4xx_HAL_Driver/Src/stm32g4xx_hal_uart_ex.c **** 
 980              		.loc 1 514 3 is_stmt 1 discriminator 2 view .LVU232
 514:Drivers/STM32G4xx_HAL_Driver/Src/stm32g4xx_hal_uart_ex.c **** 
 981              		.loc 1 514 3 discriminator 2 view .LVU233
 982 0078 0020     		movs	r0, #0
 983 007a 84F87C00 		strb	r0, [r4, #124]
 514:Drivers/STM32G4xx_HAL_Driver/Src/stm32g4xx_hal_uart_ex.c **** 
 984              		.loc 1 514 3 discriminator 2 view .LVU234
 516:Drivers/STM32G4xx_HAL_Driver/Src/stm32g4xx_hal_uart_ex.c **** }
 985              		.loc 1 516 3 discriminator 2 view .LVU235
 986              	.L68:
 517:Drivers/STM32G4xx_HAL_Driver/Src/stm32g4xx_hal_uart_ex.c **** 
 987              		.loc 1 517 1 is_stmt 0 view .LVU236
 988 007e 10BD     		pop	{r4, pc}
 989              	.LVL72:
 990              	.L69:
 491:Drivers/STM32G4xx_HAL_Driver/Src/stm32g4xx_hal_uart_ex.c **** 
 991              		.loc 1 491 3 view .LVU237
 992 0080 0220     		movs	r0, #2
 993 0082 FCE7     		b	.L68
 994              	.L72:
 995              		.align	2
 996              	.L71:
 997 0084 00380140 		.word	1073821696
 998 0088 00000000 		.word	.LC2
 999              		.cfi_endproc
 1000              	.LFE140:
 1002              		.section	.text.HAL_UARTEx_DisableFifoMode,"ax",%progbits
 1003              		.align	1
 1004              		.global	HAL_UARTEx_DisableFifoMode
 1005              		.syntax unified
 1006              		.thumb
 1007              		.thumb_func
 1008              		.fpu fpv4-sp-d16
 1010              	HAL_UARTEx_DisableFifoMode:
 1011              	.LVL73:
 1012              	.LFB141:
 525:Drivers/STM32G4xx_HAL_Driver/Src/stm32g4xx_hal_uart_ex.c ****   uint32_t tmpcr1;
 1013              		.loc 1 525 1 is_stmt 1 view -0
 1014              		.cfi_startproc
 1015              		@ args = 0, pretend = 0, frame = 0
 1016              		@ frame_needed = 0, uses_anonymous_args = 0
 525:Drivers/STM32G4xx_HAL_Driver/Src/stm32g4xx_hal_uart_ex.c ****   uint32_t tmpcr1;
 1017              		.loc 1 525 1 is_stmt 0 view .LVU239
 1018 0000 10B5     		push	{r4, lr}
ARM GAS  /tmp/ccbMW3Yu.s 			page 35


 1019              	.LCFI16:
 1020              		.cfi_def_cfa_offset 8
 1021              		.cfi_offset 4, -8
 1022              		.cfi_offset 14, -4
 1023 0002 0446     		mov	r4, r0
 526:Drivers/STM32G4xx_HAL_Driver/Src/stm32g4xx_hal_uart_ex.c **** 
 1024              		.loc 1 526 3 is_stmt 1 view .LVU240
 529:Drivers/STM32G4xx_HAL_Driver/Src/stm32g4xx_hal_uart_ex.c **** 
 1025              		.loc 1 529 3 view .LVU241
 1026 0004 0368     		ldr	r3, [r0]
 1027 0006 1D4A     		ldr	r2, .L78
 1028 0008 9342     		cmp	r3, r2
 1029 000a 18D0     		beq	.L74
 529:Drivers/STM32G4xx_HAL_Driver/Src/stm32g4xx_hal_uart_ex.c **** 
 1030              		.loc 1 529 3 is_stmt 0 discriminator 1 view .LVU242
 1031 000c A2F57442 		sub	r2, r2, #62464
 1032 0010 9342     		cmp	r3, r2
 1033 0012 14D0     		beq	.L74
 529:Drivers/STM32G4xx_HAL_Driver/Src/stm32g4xx_hal_uart_ex.c **** 
 1034              		.loc 1 529 3 discriminator 2 view .LVU243
 1035 0014 02F58062 		add	r2, r2, #1024
 1036 0018 9342     		cmp	r3, r2
 1037 001a 10D0     		beq	.L74
 529:Drivers/STM32G4xx_HAL_Driver/Src/stm32g4xx_hal_uart_ex.c **** 
 1038              		.loc 1 529 3 discriminator 3 view .LVU244
 1039 001c 02F58062 		add	r2, r2, #1024
 1040 0020 9342     		cmp	r3, r2
 1041 0022 0CD0     		beq	.L74
 529:Drivers/STM32G4xx_HAL_Driver/Src/stm32g4xx_hal_uart_ex.c **** 
 1042              		.loc 1 529 3 discriminator 4 view .LVU245
 1043 0024 02F58062 		add	r2, r2, #1024
 1044 0028 9342     		cmp	r3, r2
 1045 002a 08D0     		beq	.L74
 529:Drivers/STM32G4xx_HAL_Driver/Src/stm32g4xx_hal_uart_ex.c **** 
 1046              		.loc 1 529 3 discriminator 5 view .LVU246
 1047 002c 02F54052 		add	r2, r2, #12288
 1048 0030 9342     		cmp	r3, r2
 1049 0032 04D0     		beq	.L74
 529:Drivers/STM32G4xx_HAL_Driver/Src/stm32g4xx_hal_uart_ex.c **** 
 1050              		.loc 1 529 3 discriminator 6 view .LVU247
 1051 0034 40F21121 		movw	r1, #529
 1052 0038 1148     		ldr	r0, .L78+4
 1053              	.LVL74:
 529:Drivers/STM32G4xx_HAL_Driver/Src/stm32g4xx_hal_uart_ex.c **** 
 1054              		.loc 1 529 3 discriminator 6 view .LVU248
 1055 003a FFF7FEFF 		bl	assert_failed
 1056              	.LVL75:
 1057              	.L74:
 532:Drivers/STM32G4xx_HAL_Driver/Src/stm32g4xx_hal_uart_ex.c **** 
 1058              		.loc 1 532 3 is_stmt 1 view .LVU249
 532:Drivers/STM32G4xx_HAL_Driver/Src/stm32g4xx_hal_uart_ex.c **** 
 1059              		.loc 1 532 3 view .LVU250
 1060 003e 94F87C30 		ldrb	r3, [r4, #124]	@ zero_extendqisi2
 1061 0042 012B     		cmp	r3, #1
 1062 0044 17D0     		beq	.L76
 532:Drivers/STM32G4xx_HAL_Driver/Src/stm32g4xx_hal_uart_ex.c **** 
 1063              		.loc 1 532 3 discriminator 2 view .LVU251
ARM GAS  /tmp/ccbMW3Yu.s 			page 36


 1064 0046 0123     		movs	r3, #1
 1065 0048 84F87C30 		strb	r3, [r4, #124]
 532:Drivers/STM32G4xx_HAL_Driver/Src/stm32g4xx_hal_uart_ex.c **** 
 1066              		.loc 1 532 3 discriminator 2 view .LVU252
 534:Drivers/STM32G4xx_HAL_Driver/Src/stm32g4xx_hal_uart_ex.c **** 
 1067              		.loc 1 534 3 discriminator 2 view .LVU253
 534:Drivers/STM32G4xx_HAL_Driver/Src/stm32g4xx_hal_uart_ex.c **** 
 1068              		.loc 1 534 17 is_stmt 0 discriminator 2 view .LVU254
 1069 004c 2423     		movs	r3, #36
 1070 004e C4F88030 		str	r3, [r4, #128]
 537:Drivers/STM32G4xx_HAL_Driver/Src/stm32g4xx_hal_uart_ex.c **** 
 1071              		.loc 1 537 3 is_stmt 1 discriminator 2 view .LVU255
 537:Drivers/STM32G4xx_HAL_Driver/Src/stm32g4xx_hal_uart_ex.c **** 
 1072              		.loc 1 537 12 is_stmt 0 discriminator 2 view .LVU256
 1073 0052 2268     		ldr	r2, [r4]
 537:Drivers/STM32G4xx_HAL_Driver/Src/stm32g4xx_hal_uart_ex.c **** 
 1074              		.loc 1 537 10 discriminator 2 view .LVU257
 1075 0054 1368     		ldr	r3, [r2]
 1076              	.LVL76:
 540:Drivers/STM32G4xx_HAL_Driver/Src/stm32g4xx_hal_uart_ex.c **** 
 1077              		.loc 1 540 3 is_stmt 1 discriminator 2 view .LVU258
 1078 0056 1168     		ldr	r1, [r2]
 1079 0058 21F00101 		bic	r1, r1, #1
 1080 005c 1160     		str	r1, [r2]
 543:Drivers/STM32G4xx_HAL_Driver/Src/stm32g4xx_hal_uart_ex.c ****   huart->FifoMode = UART_FIFOMODE_DISABLE;
 1081              		.loc 1 543 3 discriminator 2 view .LVU259
 1082 005e 23F00053 		bic	r3, r3, #536870912
 1083              	.LVL77:
 544:Drivers/STM32G4xx_HAL_Driver/Src/stm32g4xx_hal_uart_ex.c **** 
 1084              		.loc 1 544 3 discriminator 2 view .LVU260
 544:Drivers/STM32G4xx_HAL_Driver/Src/stm32g4xx_hal_uart_ex.c **** 
 1085              		.loc 1 544 19 is_stmt 0 discriminator 2 view .LVU261
 1086 0062 0020     		movs	r0, #0
 1087 0064 6066     		str	r0, [r4, #100]
 547:Drivers/STM32G4xx_HAL_Driver/Src/stm32g4xx_hal_uart_ex.c **** 
 1088              		.loc 1 547 3 is_stmt 1 discriminator 2 view .LVU262
 1089 0066 2268     		ldr	r2, [r4]
 1090 0068 1360     		str	r3, [r2]
 549:Drivers/STM32G4xx_HAL_Driver/Src/stm32g4xx_hal_uart_ex.c **** 
 1091              		.loc 1 549 3 discriminator 2 view .LVU263
 549:Drivers/STM32G4xx_HAL_Driver/Src/stm32g4xx_hal_uart_ex.c **** 
 1092              		.loc 1 549 17 is_stmt 0 discriminator 2 view .LVU264
 1093 006a 2023     		movs	r3, #32
 1094              	.LVL78:
 549:Drivers/STM32G4xx_HAL_Driver/Src/stm32g4xx_hal_uart_ex.c **** 
 1095              		.loc 1 549 17 discriminator 2 view .LVU265
 1096 006c C4F88030 		str	r3, [r4, #128]
 1097              	.LVL79:
 552:Drivers/STM32G4xx_HAL_Driver/Src/stm32g4xx_hal_uart_ex.c **** 
 1098              		.loc 1 552 3 is_stmt 1 discriminator 2 view .LVU266
 552:Drivers/STM32G4xx_HAL_Driver/Src/stm32g4xx_hal_uart_ex.c **** 
 1099              		.loc 1 552 3 discriminator 2 view .LVU267
 1100 0070 84F87C00 		strb	r0, [r4, #124]
 552:Drivers/STM32G4xx_HAL_Driver/Src/stm32g4xx_hal_uart_ex.c **** 
 1101              		.loc 1 552 3 discriminator 2 view .LVU268
 554:Drivers/STM32G4xx_HAL_Driver/Src/stm32g4xx_hal_uart_ex.c **** }
 1102              		.loc 1 554 3 discriminator 2 view .LVU269
ARM GAS  /tmp/ccbMW3Yu.s 			page 37


 1103              	.L75:
 555:Drivers/STM32G4xx_HAL_Driver/Src/stm32g4xx_hal_uart_ex.c **** 
 1104              		.loc 1 555 1 is_stmt 0 view .LVU270
 1105 0074 10BD     		pop	{r4, pc}
 1106              	.LVL80:
 1107              	.L76:
 532:Drivers/STM32G4xx_HAL_Driver/Src/stm32g4xx_hal_uart_ex.c **** 
 1108              		.loc 1 532 3 view .LVU271
 1109 0076 0220     		movs	r0, #2
 1110 0078 FCE7     		b	.L75
 1111              	.L79:
 1112 007a 00BF     		.align	2
 1113              	.L78:
 1114 007c 00380140 		.word	1073821696
 1115 0080 00000000 		.word	.LC2
 1116              		.cfi_endproc
 1117              	.LFE141:
 1119              		.section	.text.HAL_UARTEx_SetTxFifoThreshold,"ax",%progbits
 1120              		.align	1
 1121              		.global	HAL_UARTEx_SetTxFifoThreshold
 1122              		.syntax unified
 1123              		.thumb
 1124              		.thumb_func
 1125              		.fpu fpv4-sp-d16
 1127              	HAL_UARTEx_SetTxFifoThreshold:
 1128              	.LVL81:
 1129              	.LFB142:
 571:Drivers/STM32G4xx_HAL_Driver/Src/stm32g4xx_hal_uart_ex.c ****   uint32_t tmpcr1;
 1130              		.loc 1 571 1 is_stmt 1 view -0
 1131              		.cfi_startproc
 1132              		@ args = 0, pretend = 0, frame = 0
 1133              		@ frame_needed = 0, uses_anonymous_args = 0
 571:Drivers/STM32G4xx_HAL_Driver/Src/stm32g4xx_hal_uart_ex.c ****   uint32_t tmpcr1;
 1134              		.loc 1 571 1 is_stmt 0 view .LVU273
 1135 0000 70B5     		push	{r4, r5, r6, lr}
 1136              	.LCFI17:
 1137              		.cfi_def_cfa_offset 16
 1138              		.cfi_offset 4, -16
 1139              		.cfi_offset 5, -12
 1140              		.cfi_offset 6, -8
 1141              		.cfi_offset 14, -4
 1142 0002 0446     		mov	r4, r0
 1143 0004 0D46     		mov	r5, r1
 572:Drivers/STM32G4xx_HAL_Driver/Src/stm32g4xx_hal_uart_ex.c **** 
 1144              		.loc 1 572 3 is_stmt 1 view .LVU274
 575:Drivers/STM32G4xx_HAL_Driver/Src/stm32g4xx_hal_uart_ex.c ****   assert_param(IS_UART_TXFIFO_THRESHOLD(Threshold));
 1145              		.loc 1 575 3 view .LVU275
 1146 0006 0368     		ldr	r3, [r0]
 1147 0008 2A4A     		ldr	r2, .L87
 1148 000a 9342     		cmp	r3, r2
 1149 000c 18D0     		beq	.L81
 575:Drivers/STM32G4xx_HAL_Driver/Src/stm32g4xx_hal_uart_ex.c ****   assert_param(IS_UART_TXFIFO_THRESHOLD(Threshold));
 1150              		.loc 1 575 3 is_stmt 0 discriminator 1 view .LVU276
 1151 000e A2F57442 		sub	r2, r2, #62464
 1152 0012 9342     		cmp	r3, r2
 1153 0014 14D0     		beq	.L81
 575:Drivers/STM32G4xx_HAL_Driver/Src/stm32g4xx_hal_uart_ex.c ****   assert_param(IS_UART_TXFIFO_THRESHOLD(Threshold));
ARM GAS  /tmp/ccbMW3Yu.s 			page 38


 1154              		.loc 1 575 3 discriminator 2 view .LVU277
 1155 0016 02F58062 		add	r2, r2, #1024
 1156 001a 9342     		cmp	r3, r2
 1157 001c 10D0     		beq	.L81
 575:Drivers/STM32G4xx_HAL_Driver/Src/stm32g4xx_hal_uart_ex.c ****   assert_param(IS_UART_TXFIFO_THRESHOLD(Threshold));
 1158              		.loc 1 575 3 discriminator 3 view .LVU278
 1159 001e 02F58062 		add	r2, r2, #1024
 1160 0022 9342     		cmp	r3, r2
 1161 0024 0CD0     		beq	.L81
 575:Drivers/STM32G4xx_HAL_Driver/Src/stm32g4xx_hal_uart_ex.c ****   assert_param(IS_UART_TXFIFO_THRESHOLD(Threshold));
 1162              		.loc 1 575 3 discriminator 4 view .LVU279
 1163 0026 02F58062 		add	r2, r2, #1024
 1164 002a 9342     		cmp	r3, r2
 1165 002c 08D0     		beq	.L81
 575:Drivers/STM32G4xx_HAL_Driver/Src/stm32g4xx_hal_uart_ex.c ****   assert_param(IS_UART_TXFIFO_THRESHOLD(Threshold));
 1166              		.loc 1 575 3 discriminator 5 view .LVU280
 1167 002e 02F54052 		add	r2, r2, #12288
 1168 0032 9342     		cmp	r3, r2
 1169 0034 04D0     		beq	.L81
 575:Drivers/STM32G4xx_HAL_Driver/Src/stm32g4xx_hal_uart_ex.c ****   assert_param(IS_UART_TXFIFO_THRESHOLD(Threshold));
 1170              		.loc 1 575 3 discriminator 6 view .LVU281
 1171 0036 40F23F21 		movw	r1, #575
 1172              	.LVL82:
 575:Drivers/STM32G4xx_HAL_Driver/Src/stm32g4xx_hal_uart_ex.c ****   assert_param(IS_UART_TXFIFO_THRESHOLD(Threshold));
 1173              		.loc 1 575 3 discriminator 6 view .LVU282
 1174 003a 1F48     		ldr	r0, .L87+4
 1175              	.LVL83:
 575:Drivers/STM32G4xx_HAL_Driver/Src/stm32g4xx_hal_uart_ex.c ****   assert_param(IS_UART_TXFIFO_THRESHOLD(Threshold));
 1176              		.loc 1 575 3 discriminator 6 view .LVU283
 1177 003c FFF7FEFF 		bl	assert_failed
 1178              	.LVL84:
 1179              	.L81:
 576:Drivers/STM32G4xx_HAL_Driver/Src/stm32g4xx_hal_uart_ex.c **** 
 1180              		.loc 1 576 3 is_stmt 1 view .LVU284
 1181 0040 75B1     		cbz	r5, .L82
 576:Drivers/STM32G4xx_HAL_Driver/Src/stm32g4xx_hal_uart_ex.c **** 
 1182              		.loc 1 576 3 is_stmt 0 discriminator 1 view .LVU285
 1183 0042 B5F1005F 		cmp	r5, #536870912
 1184 0046 0BD0     		beq	.L82
 576:Drivers/STM32G4xx_HAL_Driver/Src/stm32g4xx_hal_uart_ex.c **** 
 1185              		.loc 1 576 3 discriminator 2 view .LVU286
 1186 0048 B5F1804F 		cmp	r5, #1073741824
 1187 004c 08D0     		beq	.L82
 576:Drivers/STM32G4xx_HAL_Driver/Src/stm32g4xx_hal_uart_ex.c **** 
 1188              		.loc 1 576 3 discriminator 3 view .LVU287
 1189 004e B5F1C04F 		cmp	r5, #1610612736
 1190 0052 05D0     		beq	.L82
 576:Drivers/STM32G4xx_HAL_Driver/Src/stm32g4xx_hal_uart_ex.c **** 
 1191              		.loc 1 576 3 discriminator 4 view .LVU288
 1192 0054 B5F1004F 		cmp	r5, #-2147483648
 1193 0058 02D0     		beq	.L82
 576:Drivers/STM32G4xx_HAL_Driver/Src/stm32g4xx_hal_uart_ex.c **** 
 1194              		.loc 1 576 3 discriminator 5 view .LVU289
 1195 005a B5F1204F 		cmp	r5, #-1610612736
 1196 005e 21D1     		bne	.L86
 1197              	.L82:
 579:Drivers/STM32G4xx_HAL_Driver/Src/stm32g4xx_hal_uart_ex.c **** 
ARM GAS  /tmp/ccbMW3Yu.s 			page 39


 1198              		.loc 1 579 3 is_stmt 1 view .LVU290
 579:Drivers/STM32G4xx_HAL_Driver/Src/stm32g4xx_hal_uart_ex.c **** 
 1199              		.loc 1 579 3 view .LVU291
 1200 0060 94F87C30 		ldrb	r3, [r4, #124]	@ zero_extendqisi2
 1201 0064 012B     		cmp	r3, #1
 1202 0066 23D0     		beq	.L84
 579:Drivers/STM32G4xx_HAL_Driver/Src/stm32g4xx_hal_uart_ex.c **** 
 1203              		.loc 1 579 3 discriminator 2 view .LVU292
 1204 0068 0123     		movs	r3, #1
 1205 006a 84F87C30 		strb	r3, [r4, #124]
 579:Drivers/STM32G4xx_HAL_Driver/Src/stm32g4xx_hal_uart_ex.c **** 
 1206              		.loc 1 579 3 discriminator 2 view .LVU293
 581:Drivers/STM32G4xx_HAL_Driver/Src/stm32g4xx_hal_uart_ex.c **** 
 1207              		.loc 1 581 3 discriminator 2 view .LVU294
 581:Drivers/STM32G4xx_HAL_Driver/Src/stm32g4xx_hal_uart_ex.c **** 
 1208              		.loc 1 581 17 is_stmt 0 discriminator 2 view .LVU295
 1209 006e 2423     		movs	r3, #36
 1210 0070 C4F88030 		str	r3, [r4, #128]
 584:Drivers/STM32G4xx_HAL_Driver/Src/stm32g4xx_hal_uart_ex.c **** 
 1211              		.loc 1 584 3 is_stmt 1 discriminator 2 view .LVU296
 584:Drivers/STM32G4xx_HAL_Driver/Src/stm32g4xx_hal_uart_ex.c **** 
 1212              		.loc 1 584 12 is_stmt 0 discriminator 2 view .LVU297
 1213 0074 2368     		ldr	r3, [r4]
 584:Drivers/STM32G4xx_HAL_Driver/Src/stm32g4xx_hal_uart_ex.c **** 
 1214              		.loc 1 584 10 discriminator 2 view .LVU298
 1215 0076 1E68     		ldr	r6, [r3]
 1216              	.LVL85:
 587:Drivers/STM32G4xx_HAL_Driver/Src/stm32g4xx_hal_uart_ex.c **** 
 1217              		.loc 1 587 3 is_stmt 1 discriminator 2 view .LVU299
 1218 0078 1A68     		ldr	r2, [r3]
 1219 007a 22F00102 		bic	r2, r2, #1
 1220 007e 1A60     		str	r2, [r3]
 590:Drivers/STM32G4xx_HAL_Driver/Src/stm32g4xx_hal_uart_ex.c **** 
 1221              		.loc 1 590 3 discriminator 2 view .LVU300
 1222 0080 2368     		ldr	r3, [r4]
 1223 0082 9968     		ldr	r1, [r3, #8]
 1224 0084 21F06041 		bic	r1, r1, #-536870912
 1225 0088 0D43     		orrs	r5, r5, r1
 1226              	.LVL86:
 590:Drivers/STM32G4xx_HAL_Driver/Src/stm32g4xx_hal_uart_ex.c **** 
 1227              		.loc 1 590 3 is_stmt 0 discriminator 2 view .LVU301
 1228 008a 9D60     		str	r5, [r3, #8]
 593:Drivers/STM32G4xx_HAL_Driver/Src/stm32g4xx_hal_uart_ex.c **** 
 1229              		.loc 1 593 3 is_stmt 1 discriminator 2 view .LVU302
 1230 008c 2046     		mov	r0, r4
 1231 008e FFF7FEFF 		bl	UARTEx_SetNbDataToProcess
 1232              	.LVL87:
 596:Drivers/STM32G4xx_HAL_Driver/Src/stm32g4xx_hal_uart_ex.c **** 
 1233              		.loc 1 596 3 discriminator 2 view .LVU303
 1234 0092 2368     		ldr	r3, [r4]
 1235 0094 1E60     		str	r6, [r3]
 598:Drivers/STM32G4xx_HAL_Driver/Src/stm32g4xx_hal_uart_ex.c **** 
 1236              		.loc 1 598 3 discriminator 2 view .LVU304
 598:Drivers/STM32G4xx_HAL_Driver/Src/stm32g4xx_hal_uart_ex.c **** 
 1237              		.loc 1 598 17 is_stmt 0 discriminator 2 view .LVU305
 1238 0096 2023     		movs	r3, #32
 1239 0098 C4F88030 		str	r3, [r4, #128]
ARM GAS  /tmp/ccbMW3Yu.s 			page 40


 601:Drivers/STM32G4xx_HAL_Driver/Src/stm32g4xx_hal_uart_ex.c **** 
 1240              		.loc 1 601 3 is_stmt 1 discriminator 2 view .LVU306
 601:Drivers/STM32G4xx_HAL_Driver/Src/stm32g4xx_hal_uart_ex.c **** 
 1241              		.loc 1 601 3 discriminator 2 view .LVU307
 1242 009c 0020     		movs	r0, #0
 1243 009e 84F87C00 		strb	r0, [r4, #124]
 601:Drivers/STM32G4xx_HAL_Driver/Src/stm32g4xx_hal_uart_ex.c **** 
 1244              		.loc 1 601 3 discriminator 2 view .LVU308
 603:Drivers/STM32G4xx_HAL_Driver/Src/stm32g4xx_hal_uart_ex.c **** }
 1245              		.loc 1 603 3 discriminator 2 view .LVU309
 1246              	.LVL88:
 1247              	.L83:
 604:Drivers/STM32G4xx_HAL_Driver/Src/stm32g4xx_hal_uart_ex.c **** 
 1248              		.loc 1 604 1 is_stmt 0 view .LVU310
 1249 00a2 70BD     		pop	{r4, r5, r6, pc}
 1250              	.LVL89:
 1251              	.L86:
 576:Drivers/STM32G4xx_HAL_Driver/Src/stm32g4xx_hal_uart_ex.c **** 
 1252              		.loc 1 576 3 discriminator 6 view .LVU311
 1253 00a4 4FF41071 		mov	r1, #576
 1254 00a8 0348     		ldr	r0, .L87+4
 1255 00aa FFF7FEFF 		bl	assert_failed
 1256              	.LVL90:
 1257 00ae D7E7     		b	.L82
 1258              	.L84:
 579:Drivers/STM32G4xx_HAL_Driver/Src/stm32g4xx_hal_uart_ex.c **** 
 1259              		.loc 1 579 3 view .LVU312
 1260 00b0 0220     		movs	r0, #2
 1261 00b2 F6E7     		b	.L83
 1262              	.L88:
 1263              		.align	2
 1264              	.L87:
 1265 00b4 00380140 		.word	1073821696
 1266 00b8 00000000 		.word	.LC2
 1267              		.cfi_endproc
 1268              	.LFE142:
 1270              		.section	.text.HAL_UARTEx_SetRxFifoThreshold,"ax",%progbits
 1271              		.align	1
 1272              		.global	HAL_UARTEx_SetRxFifoThreshold
 1273              		.syntax unified
 1274              		.thumb
 1275              		.thumb_func
 1276              		.fpu fpv4-sp-d16
 1278              	HAL_UARTEx_SetRxFifoThreshold:
 1279              	.LVL91:
 1280              	.LFB143:
 620:Drivers/STM32G4xx_HAL_Driver/Src/stm32g4xx_hal_uart_ex.c ****   uint32_t tmpcr1;
 1281              		.loc 1 620 1 is_stmt 1 view -0
 1282              		.cfi_startproc
 1283              		@ args = 0, pretend = 0, frame = 0
 1284              		@ frame_needed = 0, uses_anonymous_args = 0
 620:Drivers/STM32G4xx_HAL_Driver/Src/stm32g4xx_hal_uart_ex.c ****   uint32_t tmpcr1;
 1285              		.loc 1 620 1 is_stmt 0 view .LVU314
 1286 0000 70B5     		push	{r4, r5, r6, lr}
 1287              	.LCFI18:
 1288              		.cfi_def_cfa_offset 16
 1289              		.cfi_offset 4, -16
ARM GAS  /tmp/ccbMW3Yu.s 			page 41


 1290              		.cfi_offset 5, -12
 1291              		.cfi_offset 6, -8
 1292              		.cfi_offset 14, -4
 1293 0002 0446     		mov	r4, r0
 1294 0004 0D46     		mov	r5, r1
 621:Drivers/STM32G4xx_HAL_Driver/Src/stm32g4xx_hal_uart_ex.c **** 
 1295              		.loc 1 621 3 is_stmt 1 view .LVU315
 624:Drivers/STM32G4xx_HAL_Driver/Src/stm32g4xx_hal_uart_ex.c ****   assert_param(IS_UART_RXFIFO_THRESHOLD(Threshold));
 1296              		.loc 1 624 3 view .LVU316
 1297 0006 0368     		ldr	r3, [r0]
 1298 0008 2A4A     		ldr	r2, .L96
 1299 000a 9342     		cmp	r3, r2
 1300 000c 18D0     		beq	.L90
 624:Drivers/STM32G4xx_HAL_Driver/Src/stm32g4xx_hal_uart_ex.c ****   assert_param(IS_UART_RXFIFO_THRESHOLD(Threshold));
 1301              		.loc 1 624 3 is_stmt 0 discriminator 1 view .LVU317
 1302 000e A2F57442 		sub	r2, r2, #62464
 1303 0012 9342     		cmp	r3, r2
 1304 0014 14D0     		beq	.L90
 624:Drivers/STM32G4xx_HAL_Driver/Src/stm32g4xx_hal_uart_ex.c ****   assert_param(IS_UART_RXFIFO_THRESHOLD(Threshold));
 1305              		.loc 1 624 3 discriminator 2 view .LVU318
 1306 0016 02F58062 		add	r2, r2, #1024
 1307 001a 9342     		cmp	r3, r2
 1308 001c 10D0     		beq	.L90
 624:Drivers/STM32G4xx_HAL_Driver/Src/stm32g4xx_hal_uart_ex.c ****   assert_param(IS_UART_RXFIFO_THRESHOLD(Threshold));
 1309              		.loc 1 624 3 discriminator 3 view .LVU319
 1310 001e 02F58062 		add	r2, r2, #1024
 1311 0022 9342     		cmp	r3, r2
 1312 0024 0CD0     		beq	.L90
 624:Drivers/STM32G4xx_HAL_Driver/Src/stm32g4xx_hal_uart_ex.c ****   assert_param(IS_UART_RXFIFO_THRESHOLD(Threshold));
 1313              		.loc 1 624 3 discriminator 4 view .LVU320
 1314 0026 02F58062 		add	r2, r2, #1024
 1315 002a 9342     		cmp	r3, r2
 1316 002c 08D0     		beq	.L90
 624:Drivers/STM32G4xx_HAL_Driver/Src/stm32g4xx_hal_uart_ex.c ****   assert_param(IS_UART_RXFIFO_THRESHOLD(Threshold));
 1317              		.loc 1 624 3 discriminator 5 view .LVU321
 1318 002e 02F54052 		add	r2, r2, #12288
 1319 0032 9342     		cmp	r3, r2
 1320 0034 04D0     		beq	.L90
 624:Drivers/STM32G4xx_HAL_Driver/Src/stm32g4xx_hal_uart_ex.c ****   assert_param(IS_UART_RXFIFO_THRESHOLD(Threshold));
 1321              		.loc 1 624 3 discriminator 6 view .LVU322
 1322 0036 4FF41C71 		mov	r1, #624
 1323              	.LVL92:
 624:Drivers/STM32G4xx_HAL_Driver/Src/stm32g4xx_hal_uart_ex.c ****   assert_param(IS_UART_RXFIFO_THRESHOLD(Threshold));
 1324              		.loc 1 624 3 discriminator 6 view .LVU323
 1325 003a 1F48     		ldr	r0, .L96+4
 1326              	.LVL93:
 624:Drivers/STM32G4xx_HAL_Driver/Src/stm32g4xx_hal_uart_ex.c ****   assert_param(IS_UART_RXFIFO_THRESHOLD(Threshold));
 1327              		.loc 1 624 3 discriminator 6 view .LVU324
 1328 003c FFF7FEFF 		bl	assert_failed
 1329              	.LVL94:
 1330              	.L90:
 625:Drivers/STM32G4xx_HAL_Driver/Src/stm32g4xx_hal_uart_ex.c **** 
 1331              		.loc 1 625 3 is_stmt 1 view .LVU325
 1332 0040 75B1     		cbz	r5, .L91
 625:Drivers/STM32G4xx_HAL_Driver/Src/stm32g4xx_hal_uart_ex.c **** 
 1333              		.loc 1 625 3 is_stmt 0 discriminator 1 view .LVU326
 1334 0042 B5F1007F 		cmp	r5, #33554432
ARM GAS  /tmp/ccbMW3Yu.s 			page 42


 1335 0046 0BD0     		beq	.L91
 625:Drivers/STM32G4xx_HAL_Driver/Src/stm32g4xx_hal_uart_ex.c **** 
 1336              		.loc 1 625 3 discriminator 2 view .LVU327
 1337 0048 B5F1806F 		cmp	r5, #67108864
 1338 004c 08D0     		beq	.L91
 625:Drivers/STM32G4xx_HAL_Driver/Src/stm32g4xx_hal_uart_ex.c **** 
 1339              		.loc 1 625 3 discriminator 3 view .LVU328
 1340 004e B5F1C06F 		cmp	r5, #100663296
 1341 0052 05D0     		beq	.L91
 625:Drivers/STM32G4xx_HAL_Driver/Src/stm32g4xx_hal_uart_ex.c **** 
 1342              		.loc 1 625 3 discriminator 4 view .LVU329
 1343 0054 B5F1006F 		cmp	r5, #134217728
 1344 0058 02D0     		beq	.L91
 625:Drivers/STM32G4xx_HAL_Driver/Src/stm32g4xx_hal_uart_ex.c **** 
 1345              		.loc 1 625 3 discriminator 5 view .LVU330
 1346 005a B5F1206F 		cmp	r5, #167772160
 1347 005e 21D1     		bne	.L95
 1348              	.L91:
 628:Drivers/STM32G4xx_HAL_Driver/Src/stm32g4xx_hal_uart_ex.c **** 
 1349              		.loc 1 628 3 is_stmt 1 view .LVU331
 628:Drivers/STM32G4xx_HAL_Driver/Src/stm32g4xx_hal_uart_ex.c **** 
 1350              		.loc 1 628 3 view .LVU332
 1351 0060 94F87C30 		ldrb	r3, [r4, #124]	@ zero_extendqisi2
 1352 0064 012B     		cmp	r3, #1
 1353 0066 23D0     		beq	.L93
 628:Drivers/STM32G4xx_HAL_Driver/Src/stm32g4xx_hal_uart_ex.c **** 
 1354              		.loc 1 628 3 discriminator 2 view .LVU333
 1355 0068 0123     		movs	r3, #1
 1356 006a 84F87C30 		strb	r3, [r4, #124]
 628:Drivers/STM32G4xx_HAL_Driver/Src/stm32g4xx_hal_uart_ex.c **** 
 1357              		.loc 1 628 3 discriminator 2 view .LVU334
 630:Drivers/STM32G4xx_HAL_Driver/Src/stm32g4xx_hal_uart_ex.c **** 
 1358              		.loc 1 630 3 discriminator 2 view .LVU335
 630:Drivers/STM32G4xx_HAL_Driver/Src/stm32g4xx_hal_uart_ex.c **** 
 1359              		.loc 1 630 17 is_stmt 0 discriminator 2 view .LVU336
 1360 006e 2423     		movs	r3, #36
 1361 0070 C4F88030 		str	r3, [r4, #128]
 633:Drivers/STM32G4xx_HAL_Driver/Src/stm32g4xx_hal_uart_ex.c **** 
 1362              		.loc 1 633 3 is_stmt 1 discriminator 2 view .LVU337
 633:Drivers/STM32G4xx_HAL_Driver/Src/stm32g4xx_hal_uart_ex.c **** 
 1363              		.loc 1 633 12 is_stmt 0 discriminator 2 view .LVU338
 1364 0074 2368     		ldr	r3, [r4]
 633:Drivers/STM32G4xx_HAL_Driver/Src/stm32g4xx_hal_uart_ex.c **** 
 1365              		.loc 1 633 10 discriminator 2 view .LVU339
 1366 0076 1E68     		ldr	r6, [r3]
 1367              	.LVL95:
 636:Drivers/STM32G4xx_HAL_Driver/Src/stm32g4xx_hal_uart_ex.c **** 
 1368              		.loc 1 636 3 is_stmt 1 discriminator 2 view .LVU340
 1369 0078 1A68     		ldr	r2, [r3]
 1370 007a 22F00102 		bic	r2, r2, #1
 1371 007e 1A60     		str	r2, [r3]
 639:Drivers/STM32G4xx_HAL_Driver/Src/stm32g4xx_hal_uart_ex.c **** 
 1372              		.loc 1 639 3 discriminator 2 view .LVU341
 1373 0080 2368     		ldr	r3, [r4]
 1374 0082 9968     		ldr	r1, [r3, #8]
 1375 0084 21F06061 		bic	r1, r1, #234881024
 1376 0088 0D43     		orrs	r5, r5, r1
ARM GAS  /tmp/ccbMW3Yu.s 			page 43


 1377              	.LVL96:
 639:Drivers/STM32G4xx_HAL_Driver/Src/stm32g4xx_hal_uart_ex.c **** 
 1378              		.loc 1 639 3 is_stmt 0 discriminator 2 view .LVU342
 1379 008a 9D60     		str	r5, [r3, #8]
 642:Drivers/STM32G4xx_HAL_Driver/Src/stm32g4xx_hal_uart_ex.c **** 
 1380              		.loc 1 642 3 is_stmt 1 discriminator 2 view .LVU343
 1381 008c 2046     		mov	r0, r4
 1382 008e FFF7FEFF 		bl	UARTEx_SetNbDataToProcess
 1383              	.LVL97:
 645:Drivers/STM32G4xx_HAL_Driver/Src/stm32g4xx_hal_uart_ex.c **** 
 1384              		.loc 1 645 3 discriminator 2 view .LVU344
 1385 0092 2368     		ldr	r3, [r4]
 1386 0094 1E60     		str	r6, [r3]
 647:Drivers/STM32G4xx_HAL_Driver/Src/stm32g4xx_hal_uart_ex.c **** 
 1387              		.loc 1 647 3 discriminator 2 view .LVU345
 647:Drivers/STM32G4xx_HAL_Driver/Src/stm32g4xx_hal_uart_ex.c **** 
 1388              		.loc 1 647 17 is_stmt 0 discriminator 2 view .LVU346
 1389 0096 2023     		movs	r3, #32
 1390 0098 C4F88030 		str	r3, [r4, #128]
 650:Drivers/STM32G4xx_HAL_Driver/Src/stm32g4xx_hal_uart_ex.c **** 
 1391              		.loc 1 650 3 is_stmt 1 discriminator 2 view .LVU347
 650:Drivers/STM32G4xx_HAL_Driver/Src/stm32g4xx_hal_uart_ex.c **** 
 1392              		.loc 1 650 3 discriminator 2 view .LVU348
 1393 009c 0020     		movs	r0, #0
 1394 009e 84F87C00 		strb	r0, [r4, #124]
 650:Drivers/STM32G4xx_HAL_Driver/Src/stm32g4xx_hal_uart_ex.c **** 
 1395              		.loc 1 650 3 discriminator 2 view .LVU349
 652:Drivers/STM32G4xx_HAL_Driver/Src/stm32g4xx_hal_uart_ex.c **** }
 1396              		.loc 1 652 3 discriminator 2 view .LVU350
 1397              	.LVL98:
 1398              	.L92:
 653:Drivers/STM32G4xx_HAL_Driver/Src/stm32g4xx_hal_uart_ex.c **** 
 1399              		.loc 1 653 1 is_stmt 0 view .LVU351
 1400 00a2 70BD     		pop	{r4, r5, r6, pc}
 1401              	.LVL99:
 1402              	.L95:
 625:Drivers/STM32G4xx_HAL_Driver/Src/stm32g4xx_hal_uart_ex.c **** 
 1403              		.loc 1 625 3 discriminator 6 view .LVU352
 1404 00a4 40F27121 		movw	r1, #625
 1405 00a8 0348     		ldr	r0, .L96+4
 1406 00aa FFF7FEFF 		bl	assert_failed
 1407              	.LVL100:
 1408 00ae D7E7     		b	.L91
 1409              	.L93:
 628:Drivers/STM32G4xx_HAL_Driver/Src/stm32g4xx_hal_uart_ex.c **** 
 1410              		.loc 1 628 3 view .LVU353
 1411 00b0 0220     		movs	r0, #2
 1412 00b2 F6E7     		b	.L92
 1413              	.L97:
 1414              		.align	2
 1415              	.L96:
 1416 00b4 00380140 		.word	1073821696
 1417 00b8 00000000 		.word	.LC2
 1418              		.cfi_endproc
 1419              	.LFE143:
 1421              		.section	.rodata
 1422              		.align	2
ARM GAS  /tmp/ccbMW3Yu.s 			page 44


 1423              		.set	.LANCHOR0,. + 0
 1424              	.LC0:
 1425 0000 01010103 		.ascii	"\001\001\001\003\007\001\000\000"
 1425      07010000 
 1426              		.text
 1427              	.Letext0:
 1428              		.file 2 "/home/key/github/STM-Linux/gcc-arm-none-eabi-9-2020-q2-update/arm-none-eabi/include/machi
 1429              		.file 3 "/home/key/github/STM-Linux/gcc-arm-none-eabi-9-2020-q2-update/arm-none-eabi/include/sys/_
 1430              		.file 4 "Drivers/CMSIS/Include/core_cm4.h"
 1431              		.file 5 "Drivers/CMSIS/Device/ST/STM32G4xx/Include/system_stm32g4xx.h"
 1432              		.file 6 "Drivers/CMSIS/Device/ST/STM32G4xx/Include/stm32g474xx.h"
 1433              		.file 7 "Drivers/CMSIS/Device/ST/STM32G4xx/Include/stm32g4xx.h"
 1434              		.file 8 "Drivers/STM32G4xx_HAL_Driver/Inc/stm32g4xx_hal_def.h"
 1435              		.file 9 "Drivers/STM32G4xx_HAL_Driver/Inc/stm32g4xx_hal_dma.h"
 1436              		.file 10 "Drivers/STM32G4xx_HAL_Driver/Inc/stm32g4xx_hal_flash.h"
 1437              		.file 11 "Drivers/STM32G4xx_HAL_Driver/Inc/stm32g4xx_hal_uart.h"
 1438              		.file 12 "Drivers/STM32G4xx_HAL_Driver/Inc/stm32g4xx_hal_uart_ex.h"
 1439              		.file 13 "Drivers/STM32G4xx_HAL_Driver/Inc/stm32g4xx_hal.h"
 1440              		.file 14 "Core/Inc/stm32g4xx_hal_conf.h"
ARM GAS  /tmp/ccbMW3Yu.s 			page 45

