ARM GAS  /tmp/cc7ZBXAH.s 			page 1


   1              		.cpu cortex-m4
   2              		.eabi_attribute 27, 1
   3              		.eabi_attribute 28, 1
   4              		.eabi_attribute 20, 1
   5              		.eabi_attribute 21, 1
   6              		.eabi_attribute 23, 3
   7              		.eabi_attribute 24, 1
   8              		.eabi_attribute 25, 1
   9              		.eabi_attribute 26, 1
  10              		.eabi_attribute 30, 1
  11              		.eabi_attribute 34, 1
  12              		.eabi_attribute 18, 4
  13              		.file	"usart.c"
  14              		.text
  15              	.Ltext0:
  16              		.cfi_sections	.debug_frame
  17              		.section	.text.MX_LPUART1_UART_Init,"ax",%progbits
  18              		.align	1
  19              		.global	MX_LPUART1_UART_Init
  20              		.syntax unified
  21              		.thumb
  22              		.thumb_func
  23              		.fpu fpv4-sp-d16
  25              	MX_LPUART1_UART_Init:
  26              	.LFB132:
  27              		.file 1 "Core/Src/usart.c"
   1:Core/Src/usart.c **** /**
   2:Core/Src/usart.c ****   ******************************************************************************
   3:Core/Src/usart.c ****   * File Name          : USART.c
   4:Core/Src/usart.c ****   * Description        : This file provides code for the configuration
   5:Core/Src/usart.c ****   *                      of the USART instances.
   6:Core/Src/usart.c ****   ******************************************************************************
   7:Core/Src/usart.c ****   * @attention
   8:Core/Src/usart.c ****   *
   9:Core/Src/usart.c ****   * <h2><center>&copy; Copyright (c) 2020 STMicroelectronics.
  10:Core/Src/usart.c ****   * All rights reserved.</center></h2>
  11:Core/Src/usart.c ****   *
  12:Core/Src/usart.c ****   * This software component is licensed by ST under BSD 3-Clause license,
  13:Core/Src/usart.c ****   * the "License"; You may not use this file except in compliance with the
  14:Core/Src/usart.c ****   * License. You may obtain a copy of the License at:
  15:Core/Src/usart.c ****   *                        opensource.org/licenses/BSD-3-Clause
  16:Core/Src/usart.c ****   *
  17:Core/Src/usart.c ****   ******************************************************************************
  18:Core/Src/usart.c ****   */
  19:Core/Src/usart.c **** 
  20:Core/Src/usart.c **** /* Includes ------------------------------------------------------------------*/
  21:Core/Src/usart.c **** #include "usart.h"
  22:Core/Src/usart.c **** 
  23:Core/Src/usart.c **** /* USER CODE BEGIN 0 */
  24:Core/Src/usart.c **** 
  25:Core/Src/usart.c **** /* USER CODE END 0 */
  26:Core/Src/usart.c **** 
  27:Core/Src/usart.c **** UART_HandleTypeDef hlpuart1;
  28:Core/Src/usart.c **** 
  29:Core/Src/usart.c **** /* LPUART1 init function */
  30:Core/Src/usart.c **** 
  31:Core/Src/usart.c **** void MX_LPUART1_UART_Init(void)
ARM GAS  /tmp/cc7ZBXAH.s 			page 2


  32:Core/Src/usart.c **** {
  28              		.loc 1 32 0
  29              		.cfi_startproc
  30              		@ args = 0, pretend = 0, frame = 0
  31              		@ frame_needed = 0, uses_anonymous_args = 0
  32 0000 08B5     		push	{r3, lr}
  33              	.LCFI0:
  34              		.cfi_def_cfa_offset 8
  35              		.cfi_offset 3, -8
  36              		.cfi_offset 14, -4
  33:Core/Src/usart.c **** 
  34:Core/Src/usart.c ****   hlpuart1.Instance = LPUART1;
  37              		.loc 1 34 0
  38 0002 1648     		ldr	r0, .L11
  39 0004 164B     		ldr	r3, .L11+4
  40 0006 0360     		str	r3, [r0]
  35:Core/Src/usart.c ****   hlpuart1.Init.BaudRate = 115200;
  41              		.loc 1 35 0
  42 0008 4FF4E133 		mov	r3, #115200
  43 000c 4360     		str	r3, [r0, #4]
  36:Core/Src/usart.c ****   hlpuart1.Init.WordLength = UART_WORDLENGTH_8B;
  44              		.loc 1 36 0
  45 000e 0023     		movs	r3, #0
  46 0010 8360     		str	r3, [r0, #8]
  37:Core/Src/usart.c ****   hlpuart1.Init.StopBits = UART_STOPBITS_1;
  47              		.loc 1 37 0
  48 0012 C360     		str	r3, [r0, #12]
  38:Core/Src/usart.c ****   hlpuart1.Init.Parity = UART_PARITY_NONE;
  49              		.loc 1 38 0
  50 0014 0361     		str	r3, [r0, #16]
  39:Core/Src/usart.c ****   hlpuart1.Init.Mode = UART_MODE_TX_RX;
  51              		.loc 1 39 0
  52 0016 0C22     		movs	r2, #12
  53 0018 4261     		str	r2, [r0, #20]
  40:Core/Src/usart.c ****   hlpuart1.Init.HwFlowCtl = UART_HWCONTROL_NONE;
  54              		.loc 1 40 0
  55 001a 8361     		str	r3, [r0, #24]
  41:Core/Src/usart.c ****   hlpuart1.Init.OneBitSampling = UART_ONE_BIT_SAMPLE_DISABLE;
  56              		.loc 1 41 0
  57 001c 0362     		str	r3, [r0, #32]
  42:Core/Src/usart.c ****   hlpuart1.AdvancedInit.AdvFeatureInit = UART_ADVFEATURE_NO_INIT;
  58              		.loc 1 42 0
  59 001e 8362     		str	r3, [r0, #40]
  43:Core/Src/usart.c ****   if (HAL_UART_Init(&hlpuart1) != HAL_OK)
  60              		.loc 1 43 0
  61 0020 FFF7FEFF 		bl	HAL_UART_Init
  62              	.LVL0:
  63 0024 70B9     		cbnz	r0, .L7
  64              	.L2:
  44:Core/Src/usart.c ****   {
  45:Core/Src/usart.c ****     Error_Handler();
  46:Core/Src/usart.c ****   }
  47:Core/Src/usart.c ****   if (HAL_UARTEx_SetTxFifoThreshold(&hlpuart1, UART_TXFIFO_THRESHOLD_1_8) != HAL_OK)
  65              		.loc 1 47 0
  66 0026 0021     		movs	r1, #0
  67 0028 0C48     		ldr	r0, .L11
  68 002a FFF7FEFF 		bl	HAL_UARTEx_SetTxFifoThreshold
ARM GAS  /tmp/cc7ZBXAH.s 			page 3


  69              	.LVL1:
  70 002e 60B9     		cbnz	r0, .L8
  71              	.L3:
  48:Core/Src/usart.c ****   {
  49:Core/Src/usart.c ****     Error_Handler();
  50:Core/Src/usart.c ****   }
  51:Core/Src/usart.c ****   if (HAL_UARTEx_SetRxFifoThreshold(&hlpuart1, UART_RXFIFO_THRESHOLD_1_8) != HAL_OK)
  72              		.loc 1 51 0
  73 0030 0021     		movs	r1, #0
  74 0032 0A48     		ldr	r0, .L11
  75 0034 FFF7FEFF 		bl	HAL_UARTEx_SetRxFifoThreshold
  76              	.LVL2:
  77 0038 50B9     		cbnz	r0, .L9
  78              	.L4:
  52:Core/Src/usart.c ****   {
  53:Core/Src/usart.c ****     Error_Handler();
  54:Core/Src/usart.c ****   }
  55:Core/Src/usart.c ****   if (HAL_UARTEx_DisableFifoMode(&hlpuart1) != HAL_OK)
  79              		.loc 1 55 0
  80 003a 0848     		ldr	r0, .L11
  81 003c FFF7FEFF 		bl	HAL_UARTEx_DisableFifoMode
  82              	.LVL3:
  83 0040 48B9     		cbnz	r0, .L10
  84              	.L1:
  56:Core/Src/usart.c ****   {
  57:Core/Src/usart.c ****     Error_Handler();
  58:Core/Src/usart.c ****   }
  59:Core/Src/usart.c **** 
  60:Core/Src/usart.c **** }
  85              		.loc 1 60 0
  86 0042 08BD     		pop	{r3, pc}
  87              	.L7:
  45:Core/Src/usart.c ****   }
  88              		.loc 1 45 0
  89 0044 FFF7FEFF 		bl	Error_Handler
  90              	.LVL4:
  91 0048 EDE7     		b	.L2
  92              	.L8:
  49:Core/Src/usart.c ****   }
  93              		.loc 1 49 0
  94 004a FFF7FEFF 		bl	Error_Handler
  95              	.LVL5:
  96 004e EFE7     		b	.L3
  97              	.L9:
  53:Core/Src/usart.c ****   }
  98              		.loc 1 53 0
  99 0050 FFF7FEFF 		bl	Error_Handler
 100              	.LVL6:
 101 0054 F1E7     		b	.L4
 102              	.L10:
  57:Core/Src/usart.c ****   }
 103              		.loc 1 57 0
 104 0056 FFF7FEFF 		bl	Error_Handler
 105              	.LVL7:
 106              		.loc 1 60 0
 107 005a F2E7     		b	.L1
 108              	.L12:
ARM GAS  /tmp/cc7ZBXAH.s 			page 4


 109              		.align	2
 110              	.L11:
 111 005c 00000000 		.word	hlpuart1
 112 0060 00800040 		.word	1073774592
 113              		.cfi_endproc
 114              	.LFE132:
 116              		.section	.text.HAL_UART_MspInit,"ax",%progbits
 117              		.align	1
 118              		.global	HAL_UART_MspInit
 119              		.syntax unified
 120              		.thumb
 121              		.thumb_func
 122              		.fpu fpv4-sp-d16
 124              	HAL_UART_MspInit:
 125              	.LFB133:
  61:Core/Src/usart.c **** 
  62:Core/Src/usart.c **** void HAL_UART_MspInit(UART_HandleTypeDef* uartHandle)
  63:Core/Src/usart.c **** {
 126              		.loc 1 63 0
 127              		.cfi_startproc
 128              		@ args = 0, pretend = 0, frame = 32
 129              		@ frame_needed = 0, uses_anonymous_args = 0
 130              	.LVL8:
 131 0000 00B5     		push	{lr}
 132              	.LCFI1:
 133              		.cfi_def_cfa_offset 4
 134              		.cfi_offset 14, -4
 135 0002 89B0     		sub	sp, sp, #36
 136              	.LCFI2:
 137              		.cfi_def_cfa_offset 40
  64:Core/Src/usart.c **** 
  65:Core/Src/usart.c ****   GPIO_InitTypeDef GPIO_InitStruct = {0};
 138              		.loc 1 65 0
 139 0004 0023     		movs	r3, #0
 140 0006 0393     		str	r3, [sp, #12]
 141 0008 0493     		str	r3, [sp, #16]
 142 000a 0593     		str	r3, [sp, #20]
 143 000c 0693     		str	r3, [sp, #24]
 144 000e 0793     		str	r3, [sp, #28]
  66:Core/Src/usart.c ****   if(uartHandle->Instance==LPUART1)
 145              		.loc 1 66 0
 146 0010 0268     		ldr	r2, [r0]
 147 0012 134B     		ldr	r3, .L17
 148 0014 9A42     		cmp	r2, r3
 149 0016 02D0     		beq	.L16
 150              	.LVL9:
 151              	.L13:
  67:Core/Src/usart.c ****   {
  68:Core/Src/usart.c ****   /* USER CODE BEGIN LPUART1_MspInit 0 */
  69:Core/Src/usart.c **** 
  70:Core/Src/usart.c ****   /* USER CODE END LPUART1_MspInit 0 */
  71:Core/Src/usart.c ****     /* LPUART1 clock enable */
  72:Core/Src/usart.c ****     __HAL_RCC_LPUART1_CLK_ENABLE();
  73:Core/Src/usart.c **** 
  74:Core/Src/usart.c ****     __HAL_RCC_GPIOA_CLK_ENABLE();
  75:Core/Src/usart.c ****     /**LPUART1 GPIO Configuration
  76:Core/Src/usart.c ****     PA2     ------> LPUART1_TX
ARM GAS  /tmp/cc7ZBXAH.s 			page 5


  77:Core/Src/usart.c ****     PA3     ------> LPUART1_RX
  78:Core/Src/usart.c ****     */
  79:Core/Src/usart.c ****     GPIO_InitStruct.Pin = LPUART1_TX_Pin|LPUART1_RX_Pin;
  80:Core/Src/usart.c ****     GPIO_InitStruct.Mode = GPIO_MODE_AF_PP;
  81:Core/Src/usart.c ****     GPIO_InitStruct.Pull = GPIO_NOPULL;
  82:Core/Src/usart.c ****     GPIO_InitStruct.Speed = GPIO_SPEED_FREQ_LOW;
  83:Core/Src/usart.c ****     GPIO_InitStruct.Alternate = GPIO_AF12_LPUART1;
  84:Core/Src/usart.c ****     HAL_GPIO_Init(GPIOA, &GPIO_InitStruct);
  85:Core/Src/usart.c **** 
  86:Core/Src/usart.c ****   /* USER CODE BEGIN LPUART1_MspInit 1 */
  87:Core/Src/usart.c **** 
  88:Core/Src/usart.c ****   /* USER CODE END LPUART1_MspInit 1 */
  89:Core/Src/usart.c ****   }
  90:Core/Src/usart.c **** }
 152              		.loc 1 90 0
 153 0018 09B0     		add	sp, sp, #36
 154              	.LCFI3:
 155              		.cfi_remember_state
 156              		.cfi_def_cfa_offset 4
 157              		@ sp needed
 158 001a 5DF804FB 		ldr	pc, [sp], #4
 159              	.LVL10:
 160              	.L16:
 161              	.LCFI4:
 162              		.cfi_restore_state
 163              	.LBB2:
  72:Core/Src/usart.c **** 
 164              		.loc 1 72 0
 165 001e 03F5C833 		add	r3, r3, #102400
 166 0022 DA6D     		ldr	r2, [r3, #92]
 167 0024 42F00102 		orr	r2, r2, #1
 168 0028 DA65     		str	r2, [r3, #92]
 169 002a DA6D     		ldr	r2, [r3, #92]
 170 002c 02F00102 		and	r2, r2, #1
 171 0030 0192     		str	r2, [sp, #4]
 172 0032 019A     		ldr	r2, [sp, #4]
 173              	.LBE2:
 174              	.LBB3:
  74:Core/Src/usart.c ****     /**LPUART1 GPIO Configuration
 175              		.loc 1 74 0
 176 0034 DA6C     		ldr	r2, [r3, #76]
 177 0036 42F00102 		orr	r2, r2, #1
 178 003a DA64     		str	r2, [r3, #76]
 179 003c DB6C     		ldr	r3, [r3, #76]
 180 003e 03F00103 		and	r3, r3, #1
 181 0042 0293     		str	r3, [sp, #8]
 182 0044 029B     		ldr	r3, [sp, #8]
 183              	.LBE3:
  79:Core/Src/usart.c ****     GPIO_InitStruct.Mode = GPIO_MODE_AF_PP;
 184              		.loc 1 79 0
 185 0046 0C23     		movs	r3, #12
 186 0048 0393     		str	r3, [sp, #12]
  80:Core/Src/usart.c ****     GPIO_InitStruct.Pull = GPIO_NOPULL;
 187              		.loc 1 80 0
 188 004a 0222     		movs	r2, #2
 189 004c 0492     		str	r2, [sp, #16]
  83:Core/Src/usart.c ****     HAL_GPIO_Init(GPIOA, &GPIO_InitStruct);
ARM GAS  /tmp/cc7ZBXAH.s 			page 6


 190              		.loc 1 83 0
 191 004e 0793     		str	r3, [sp, #28]
  84:Core/Src/usart.c **** 
 192              		.loc 1 84 0
 193 0050 0DEB0301 		add	r1, sp, r3
 194 0054 4FF09040 		mov	r0, #1207959552
 195              	.LVL11:
 196 0058 FFF7FEFF 		bl	HAL_GPIO_Init
 197              	.LVL12:
 198              		.loc 1 90 0
 199 005c DCE7     		b	.L13
 200              	.L18:
 201 005e 00BF     		.align	2
 202              	.L17:
 203 0060 00800040 		.word	1073774592
 204              		.cfi_endproc
 205              	.LFE133:
 207              		.section	.text.HAL_UART_MspDeInit,"ax",%progbits
 208              		.align	1
 209              		.global	HAL_UART_MspDeInit
 210              		.syntax unified
 211              		.thumb
 212              		.thumb_func
 213              		.fpu fpv4-sp-d16
 215              	HAL_UART_MspDeInit:
 216              	.LFB134:
  91:Core/Src/usart.c **** 
  92:Core/Src/usart.c **** void HAL_UART_MspDeInit(UART_HandleTypeDef* uartHandle)
  93:Core/Src/usart.c **** {
 217              		.loc 1 93 0
 218              		.cfi_startproc
 219              		@ args = 0, pretend = 0, frame = 0
 220              		@ frame_needed = 0, uses_anonymous_args = 0
 221              	.LVL13:
 222 0000 08B5     		push	{r3, lr}
 223              	.LCFI5:
 224              		.cfi_def_cfa_offset 8
 225              		.cfi_offset 3, -8
 226              		.cfi_offset 14, -4
  94:Core/Src/usart.c **** 
  95:Core/Src/usart.c ****   if(uartHandle->Instance==LPUART1)
 227              		.loc 1 95 0
 228 0002 0268     		ldr	r2, [r0]
 229 0004 074B     		ldr	r3, .L23
 230 0006 9A42     		cmp	r2, r3
 231 0008 00D0     		beq	.L22
 232              	.LVL14:
 233              	.L19:
  96:Core/Src/usart.c ****   {
  97:Core/Src/usart.c ****   /* USER CODE BEGIN LPUART1_MspDeInit 0 */
  98:Core/Src/usart.c **** 
  99:Core/Src/usart.c ****   /* USER CODE END LPUART1_MspDeInit 0 */
 100:Core/Src/usart.c ****     /* Peripheral clock disable */
 101:Core/Src/usart.c ****     __HAL_RCC_LPUART1_CLK_DISABLE();
 102:Core/Src/usart.c **** 
 103:Core/Src/usart.c ****     /**LPUART1 GPIO Configuration
 104:Core/Src/usart.c ****     PA2     ------> LPUART1_TX
ARM GAS  /tmp/cc7ZBXAH.s 			page 7


 105:Core/Src/usart.c ****     PA3     ------> LPUART1_RX
 106:Core/Src/usart.c ****     */
 107:Core/Src/usart.c ****     HAL_GPIO_DeInit(GPIOA, LPUART1_TX_Pin|LPUART1_RX_Pin);
 108:Core/Src/usart.c **** 
 109:Core/Src/usart.c ****   /* USER CODE BEGIN LPUART1_MspDeInit 1 */
 110:Core/Src/usart.c **** 
 111:Core/Src/usart.c ****   /* USER CODE END LPUART1_MspDeInit 1 */
 112:Core/Src/usart.c ****   }
 113:Core/Src/usart.c **** }
 234              		.loc 1 113 0
 235 000a 08BD     		pop	{r3, pc}
 236              	.LVL15:
 237              	.L22:
 101:Core/Src/usart.c **** 
 238              		.loc 1 101 0
 239 000c 064A     		ldr	r2, .L23+4
 240 000e D36D     		ldr	r3, [r2, #92]
 241 0010 23F00103 		bic	r3, r3, #1
 242 0014 D365     		str	r3, [r2, #92]
 107:Core/Src/usart.c **** 
 243              		.loc 1 107 0
 244 0016 0C21     		movs	r1, #12
 245 0018 4FF09040 		mov	r0, #1207959552
 246              	.LVL16:
 247 001c FFF7FEFF 		bl	HAL_GPIO_DeInit
 248              	.LVL17:
 249              		.loc 1 113 0
 250 0020 F3E7     		b	.L19
 251              	.L24:
 252 0022 00BF     		.align	2
 253              	.L23:
 254 0024 00800040 		.word	1073774592
 255 0028 00100240 		.word	1073876992
 256              		.cfi_endproc
 257              	.LFE134:
 259              		.comm	hlpuart1,140,4
 260              		.text
 261              	.Letext0:
 262              		.file 2 "/usr/include/newlib/machine/_default_types.h"
 263              		.file 3 "/usr/include/newlib/sys/_stdint.h"
 264              		.file 4 "Drivers/CMSIS/Include/core_cm4.h"
 265              		.file 5 "Drivers/CMSIS/Device/ST/STM32G4xx/Include/system_stm32g4xx.h"
 266              		.file 6 "Drivers/CMSIS/Device/ST/STM32G4xx/Include/stm32g474xx.h"
 267              		.file 7 "Drivers/STM32G4xx_HAL_Driver/Inc/stm32g4xx_hal_def.h"
 268              		.file 8 "Drivers/STM32G4xx_HAL_Driver/Inc/stm32g4xx_hal_gpio.h"
 269              		.file 9 "Drivers/STM32G4xx_HAL_Driver/Inc/stm32g4xx_hal_dma.h"
 270              		.file 10 "Drivers/STM32G4xx_HAL_Driver/Inc/stm32g4xx_hal_flash.h"
 271              		.file 11 "Drivers/STM32G4xx_HAL_Driver/Inc/stm32g4xx_hal_uart.h"
 272              		.file 12 "Drivers/STM32G4xx_HAL_Driver/Inc/stm32g4xx_hal.h"
 273              		.file 13 "Core/Inc/usart.h"
 274              		.file 14 "Drivers/STM32G4xx_HAL_Driver/Inc/stm32g4xx_hal_uart_ex.h"
 275              		.file 15 "Core/Inc/main.h"
ARM GAS  /tmp/cc7ZBXAH.s 			page 8

